 engine

 Timestamp is 611c3260 (Wed Aug 18 01:04:16 2021)

 Preferred load address is 0000000180000000

 Start         Length     Name                   Class
 0001:00000000 00099080H .text$mn                CODE
 0001:00099080 00000040H .text$mn$00             CODE
 0001:000990c0 00000ffdH .text$x                 CODE
 0002:00000000 000002c0H .idata$5                DATA
 0002:000002c0 00000028H .00cfg                  DATA
 0002:000002e8 00000008H .CRT$XCA                DATA
 0002:000002f0 00000008H .CRT$XCZ                DATA
 0002:000002f8 00000008H .CRT$XIA                DATA
 0002:00000300 00000018H .CRT$XIC                DATA
 0002:00000318 00000008H .CRT$XIZ                DATA
 0002:00000320 00000008H .CRT$XPA                DATA
 0002:00000328 00000010H .CRT$XPX                DATA
 0002:00000338 00000008H .CRT$XPXA               DATA
 0002:00000340 00000008H .CRT$XPZ                DATA
 0002:00000348 00000008H .CRT$XTA                DATA
 0002:00000350 00000010H .CRT$XTZ                DATA
 0002:00000358 00000000H .gehcont$y              DATA
 0002:00000358 00000000H .gfids$y                DATA
 0002:00000360 0001fd20H .rdata                  DATA
 0002:00020080 00000008H .rdata$CastGuardVftablesA DATA
 0002:00020088 00000008H .rdata$CastGuardVftablesC DATA
 0002:00020090 00000464H .rdata$r                DATA
 0002:000204f4 00000184H .rdata$voltmd           DATA
 0002:00020678 00000358H .rdata$zzzdbg           DATA
 0002:000209d0 00000008H .rtc$IAA                DATA
 0002:000209d8 00000008H .rtc$IZZ                DATA
 0002:000209e0 00000008H .rtc$TAA                DATA
 0002:000209e8 00000008H .rtc$TZZ                DATA
 0002:000209f0 00006458H .xdata                  DATA
 0002:00026e48 00000088H .xdata$x                DATA
 0002:00026ed0 00000070H .edata                  DATA
 0002:00026f40 00000014H .idata$2                DATA
 0002:00026f54 00000014H .idata$3                DATA
 0002:00026f68 000002c0H .idata$4                DATA
 0002:00027228 00000678H .idata$6                DATA
 0003:00000000 00000ab0H .data                   DATA
 0003:00000ab0 00000078H .data$r                 DATA
 0003:00000b28 000000f8H .data$rs                DATA
 0003:00000c20 00001b20H .bss                    DATA
 0004:00000000 00007ce0H .pdata                  DATA
 0005:00000000 000000f4H _RDATA                  DATA

  Address         Publics by Value              Rva+Base               Lib:Object

 0000:00000000       __guard_longjmp_count      0000000000000000     <absolute>
 0000:00000000       __arm64x_extra_rfe_table   0000000000000000     <absolute>
 0000:00000000       __guard_longjmp_table      0000000000000000     <absolute>
 0000:00000000       __AbsoluteZero             0000000000000000     <absolute>
 0000:00000000       __x64_code_ranges_to_entry_points 0000000000000000     <absolute>
 0000:00000000       __guard_fids_table         0000000000000000     <absolute>
 0000:00000000       __guard_eh_cont_table      0000000000000000     <absolute>
 0000:00000000       __arm64x_redirection_metadata_count 0000000000000000     <absolute>
 0000:00000000       __x64_code_ranges_to_entry_points_count 0000000000000000     <absolute>
 0000:00000000       __guard_eh_cont_count      0000000000000000     <absolute>
 0000:00000000       __hybrid_code_map          0000000000000000     <absolute>
 0000:00000000       __hybrid_auxiliary_iat     0000000000000000     <absolute>
 0000:00000000       __dynamic_value_reloc_table 0000000000000000     <absolute>
 0000:00000000       __arm64x_redirection_metadata 0000000000000000     <absolute>
 0000:00000000       ___safe_se_handler_table   0000000000000000     <absolute>
 0000:00000000       ___safe_se_handler_count   0000000000000000     <absolute>
 0000:00000000       __hybrid_code_map_count    0000000000000000     <absolute>
 0000:00000000       __hybrid_auxiliary_iat_copy 0000000000000000     <absolute>
 0000:00000000       __guard_iat_count          0000000000000000     <absolute>
 0000:00000000       __arm64x_native_entrypoint 0000000000000000     <absolute>
 0000:00000000       __arm64x_extra_rfe_table_size 0000000000000000     <absolute>
 0000:00000000       __enclave_config           0000000000000000     <absolute>
 0000:00000000       __guard_iat_table          0000000000000000     <absolute>
 0000:00000000       __guard_fids_count         0000000000000000     <absolute>
 0000:00000000       __guard_check_icall_a64n_fptr 0000000000000000     <absolute>
 0000:00000100       __guard_flags              0000000000000100     <absolute>
 0000:00000000       __ImageBase                0000000180000000     <linker-defined>
 0001:00000380       GameUpdateAndRender        0000000180001380 f   engine.obj
 0001:000026c0       GameGetSoundSamples        00000001800036c0 f   engine.obj
 0001:00002700       ?FloorReal32ToInt32@@YAHM@Z 0000000180003700 f i engine.obj
 0001:00002730       ?GetCanonicalPosition@@YA?AUcanonical_position@@PEAUworld@@Uraw_position@@@Z 0000000180003730 f i engine.obj
 0001:00002970       ?GetController@@YAPEAUgame_controller_input@@PEAUgame_input@@I@Z 0000000180003970 f i engine.obj
 0001:000029c0       ?GetTileMap@@YAPEAUtile_map@@PEAUworld@@HH@Z 00000001800039c0 f i engine.obj
 0001:00002a40       ?GetTileValueUnchecked@@YAIPEAUworld@@PEAUtile_map@@HH@Z 0000000180003a40 f i engine.obj
 0001:00002ad0       ?IsTileMapPointEmpty@@YAHPEAUworld@@PEAUtile_map@@HH@Z 0000000180003ad0 f i engine.obj
 0001:00002b70       ?RoundReal32ToInt32@@YAHM@Z 0000000180003b70 f i engine.obj
 0001:00002ba0       __GSHandlerCheck           0000000180003ba0 f   LIBCMTD:gshandler.obj
 0001:00002be0       __GSHandlerCheckCommon     0000000180003be0 f   LIBCMTD:gshandler.obj
 0001:00002cf0       __security_check_cookie    0000000180003cf0 f   LIBCMTD:amdsecgs.obj
 0001:00003120       _CRT_INIT                  0000000180004120 f   LIBCMTD:dll_dllmain.obj
 0001:00003150       _DllMainCRTStartup         0000000180004150 f   LIBCMTD:dll_dllmain.obj
 0001:00003190       __raise_securityfailure    0000000180004190 f   LIBCMTD:gs_report.obj
 0001:000031d0       __report_gsfailure         00000001800041d0 f   LIBCMTD:gs_report.obj
 0001:000032b0       __report_rangecheckfailure 00000001800042b0 f   LIBCMTD:gs_report.obj
 0001:000032d0       __report_securityfailure   00000001800042d0 f   LIBCMTD:gs_report.obj
 0001:00003370       __report_securityfailureEx 0000000180004370 f   LIBCMTD:gs_report.obj
 0001:000036a0       __security_init_cookie     00000001800046a0 f   LIBCMTD:gs_support.obj
 0001:00003720       DllMain                    0000000180004720 f   LIBCMTD:dll_dllmain_stub.obj
 0001:00003740       ?__scrt_initialize_type_info@@YAXXZ 0000000180004740 f   LIBCMTD:tncleanup.obj
 0001:00003760       ?__scrt_uninitialize_type_info@@YAXXZ 0000000180004760 f   LIBCMTD:tncleanup.obj
 0001:00003780       __local_stdio_printf_options 0000000180004780 f i LIBCMTD:default_local_stdio_options.obj
 0001:00003790       __local_stdio_scanf_options 0000000180004790 f i LIBCMTD:default_local_stdio_options.obj
 0001:000037a0       __scrt_initialize_default_local_stdio_options 00000001800047a0 f   LIBCMTD:default_local_stdio_options.obj
 0001:000037f0       ?configure_argv@__scrt_narrow_argv_policy@@SAHXZ 00000001800047f0 f i LIBCMTD:utility.obj
 0001:000038e0       ?initialize_environment@__scrt_narrow_environment_policy@@SAHXZ 00000001800048e0 f i LIBCMTD:utility.obj
 0001:00003980       NtCurrentTeb               0000000180004980 f i LIBCMTD:utility.obj
 0001:00003990       __scrt_acquire_startup_lock 0000000180004990 f   LIBCMTD:utility.obj
 0001:00003a00       __scrt_dllmain_after_initialize_c 0000000180004a00 f   LIBCMTD:utility.obj
 0001:00003a30       __scrt_dllmain_before_initialize_c 0000000180004a30 f   LIBCMTD:utility.obj
 0001:00003a50       __scrt_dllmain_crt_thread_attach 0000000180004a50 f   LIBCMTD:utility.obj
 0001:00003a80       __scrt_dllmain_crt_thread_detach 0000000180004a80 f   LIBCMTD:utility.obj
 0001:00003aa0       __scrt_dllmain_exception_filter 0000000180004aa0 f   LIBCMTD:utility.obj
 0001:00003b10       __scrt_dllmain_uninitialize_c 0000000180004b10 f   LIBCMTD:utility.obj
 0001:00003b40       __scrt_dllmain_uninitialize_critical 0000000180004b40 f   LIBCMTD:utility.obj
 0001:00003b60       __scrt_initialize_crt      0000000180004b60 f   LIBCMTD:utility.obj
 0001:00003bb0       __scrt_initialize_onexit_tables 0000000180004bb0 f   LIBCMTD:utility.obj
 0001:00003cc0       __scrt_is_nonwritable_in_current_image 0000000180004cc0 f   LIBCMTD:utility.obj
 0001:00003d50       __scrt_release_startup_lock 0000000180004d50 f   LIBCMTD:utility.obj
 0001:00003d80       __scrt_uninitialize_crt    0000000180004d80 f   LIBCMTD:utility.obj
 0001:00003dc0       _onexit                    0000000180004dc0 f   LIBCMTD:utility.obj
 0001:00003e40       at_quick_exit              0000000180004e40 f   LIBCMTD:utility.obj
 0001:00003e90       atexit                     0000000180004e90 f   LIBCMTD:utility.obj
 0001:00003ed0       __scrt_get_dyn_tls_init_callback 0000000180004ed0 f   LIBCMTD:dyn_tls_init.obj
 0001:00003ee0       __crt_debugger_hook        0000000180004ee0 f   LIBCMTD:utility_desktop.obj
 0001:00003ef0       __scrt_fastfail            0000000180004ef0 f   LIBCMTD:utility_desktop.obj
 0001:00004090       __scrt_get_show_window_mode 0000000180005090 f   LIBCMTD:utility_desktop.obj
 0001:000040f0       __scrt_initialize_mta      00000001800050f0 f   LIBCMTD:utility_desktop.obj
 0001:00004100       __scrt_initialize_winrt    0000000180005100 f   LIBCMTD:utility_desktop.obj
 0001:00004110       __scrt_is_managed_app      0000000180005110 f   LIBCMTD:utility_desktop.obj
 0001:000041c0       __scrt_set_unhandled_exception_filter 00000001800051c0 f   LIBCMTD:utility_desktop.obj
 0001:000041e0       __scrt_exe_initialize_mta  00000001800051e0 f   LIBCMTD:utility_desktop.obj
 0001:000041e0       __scrt_stub_for_initialize_mta 00000001800051e0 f   LIBCMTD:utility_desktop.obj
 0001:000041f0       __scrt_unhandled_exception_filter 00000001800051f0 f   LIBCMTD:utility_desktop.obj
 0001:00004290       _RTC_Initialize            0000000180005290 f   LIBCMTD:initsect.obj
 0001:000042e0       _RTC_Terminate             00000001800052e0 f   LIBCMTD:initsect.obj
 0001:00004330       _guard_check_icall_nop     0000000180005330 f i LIBCMTD:guard_support.obj
 0001:00004340       ReadNoFence64              0000000180005340 f i LIBCMTD:guard_support.obj
 0001:00004360       ReadPointerNoFence         0000000180005360 f i LIBCMTD:guard_support.obj
 0001:00004380       __castguard_check_failure_debugbreak 0000000180005380 f i LIBCMTD:guard_support.obj
 0001:000043a0       __castguard_check_failure_fastfail 00000001800053a0 f i LIBCMTD:guard_support.obj
 0001:000043d0       __castguard_check_failure_nop 00000001800053d0 f i LIBCMTD:guard_support.obj
 0001:000043e0       __castguard_check_failure_os_handled 00000001800053e0 f i LIBCMTD:guard_support.obj
 0001:000044a0       __castguard_slow_path_check_debugbreak 00000001800054a0 f i LIBCMTD:guard_support.obj
 0001:000044e0       __castguard_slow_path_check_fastfail 00000001800054e0 f i LIBCMTD:guard_support.obj
 0001:00004530       __castguard_slow_path_check_nop 0000000180005530 f i LIBCMTD:guard_support.obj
 0001:00004540       __castguard_slow_path_check_os_handled 0000000180005540 f i LIBCMTD:guard_support.obj
 0001:00004620       _guard_icall_checks_enforced 0000000180005620 f i LIBCMTD:guard_support.obj
 0001:00004660       _guard_rf_checks_enforced  0000000180005660 f i LIBCMTD:guard_support.obj
 0001:00004670       __isa_available_init       0000000180005670 f   LIBCMTD:cpu_disp.obj
 0001:00004a10       _get_startup_argv_mode     0000000180005a10 f   LIBCMTD:argv_mode.obj
 0001:00004a20       __scrt_is_ucrt_dll_in_use  0000000180005a20 f   LIBCMTD:ucrt_detection.obj
 0001:00004a50       RtlCaptureContext          0000000180005a50 f   kernel32:KERNEL32.dll
 0001:00004a56       RtlLookupFunctionEntry     0000000180005a56 f   kernel32:KERNEL32.dll
 0001:00004a5c       RtlVirtualUnwind           0000000180005a5c f   kernel32:KERNEL32.dll
 0001:00004a62       UnhandledExceptionFilter   0000000180005a62 f   kernel32:KERNEL32.dll
 0001:00004a68       SetUnhandledExceptionFilter 0000000180005a68 f   kernel32:KERNEL32.dll
 0001:00004a6e       GetCurrentProcess          0000000180005a6e f   kernel32:KERNEL32.dll
 0001:00004a74       TerminateProcess           0000000180005a74 f   kernel32:KERNEL32.dll
 0001:00004a7a       IsProcessorFeaturePresent  0000000180005a7a f   kernel32:KERNEL32.dll
 0001:00004a80       QueryPerformanceCounter    0000000180005a80 f   kernel32:KERNEL32.dll
 0001:00004a86       GetCurrentProcessId        0000000180005a86 f   kernel32:KERNEL32.dll
 0001:00004a8c       GetCurrentThreadId         0000000180005a8c f   kernel32:KERNEL32.dll
 0001:00004a92       GetSystemTimeAsFileTime    0000000180005a92 f   kernel32:KERNEL32.dll
 0001:00004a98       InitializeSListHead        0000000180005a98 f   kernel32:KERNEL32.dll
 0001:00004a9e       IsDebuggerPresent          0000000180005a9e f   kernel32:KERNEL32.dll
 0001:00004aa4       GetStartupInfoW            0000000180005aa4 f   kernel32:KERNEL32.dll
 0001:00004aaa       GetModuleHandleW           0000000180005aaa f   kernel32:KERNEL32.dll
 0001:00004ab0       __C_specific_handler       0000000180005ab0 f   libvcruntimed:riscchandler.obj
 0001:00004f60       ??$?RD@__crt_internal_free_policy@@QEBAXQEBD@Z 0000000180005f60 f i libvcruntimed:std_type_info.obj
 0001:00004f90       ??$?RX@__crt_internal_free_policy@@QEBAXQEBX@Z 0000000180005f90 f i libvcruntimed:std_type_info.obj
 0001:00004fc0       ??$__crt_interlocked_compare_exchange_pointer@$$CBDPEAD$$T@@YAPEBDPEDSEBDQEAD$$T@Z 0000000180005fc0 f i libvcruntimed:std_type_info.obj
 0001:00005000       ??$__crt_interlocked_read_pointer@$$CBD@@YAPEBDPEDSEBD@Z 0000000180006000 f i libvcruntimed:std_type_info.obj
 0001:00005020       ??0?$__crt_unique_heap_ptr@DU__crt_internal_free_policy@@@@QEAA@QEAD@Z 0000000180006020 f i libvcruntimed:std_type_info.obj
 0001:00005040       ??0?$__crt_unique_heap_ptr@XU__crt_internal_free_policy@@@@QEAA@QEAX@Z 0000000180006040 f i libvcruntimed:std_type_info.obj
 0001:00005060       ??1?$__crt_unique_heap_ptr@DU__crt_internal_free_policy@@@@QEAA@XZ 0000000180006060 f i libvcruntimed:std_type_info.obj
 0001:00005080       ??1?$__crt_unique_heap_ptr@XU__crt_internal_free_policy@@@@QEAA@XZ 0000000180006080 f i libvcruntimed:std_type_info.obj
 0001:000050a0       ??B?$__crt_unique_heap_ptr@DU__crt_internal_free_policy@@@@QEBA_NXZ 00000001800060a0 f i libvcruntimed:std_type_info.obj
 0001:000050c0       ??B?$__crt_unique_heap_ptr@XU__crt_internal_free_policy@@@@QEBA_NXZ 00000001800060c0 f i libvcruntimed:std_type_info.obj
 0001:00005160       ?__crt_interlocked_read_64@@YA_JPED_J@Z 0000000180006160 f i libvcruntimed:std_type_info.obj
 0001:00005180       ?detach@?$__crt_unique_heap_ptr@XU__crt_internal_free_policy@@@@QEAAPEAXXZ 0000000180006180 f i libvcruntimed:std_type_info.obj
 0001:000051b0       ?get@?$__crt_unique_heap_ptr@DU__crt_internal_free_policy@@@@QEBAPEADXZ 00000001800061b0 f i libvcruntimed:std_type_info.obj
 0001:000051c0       ?get@?$__crt_unique_heap_ptr@XU__crt_internal_free_policy@@@@QEBAPEAXXZ 00000001800061c0 f i libvcruntimed:std_type_info.obj
 0001:000051d0       ?is_valid@?$__crt_unique_heap_ptr@DU__crt_internal_free_policy@@@@QEBA_NXZ 00000001800061d0 f i libvcruntimed:std_type_info.obj
 0001:00005200       ?is_valid@?$__crt_unique_heap_ptr@XU__crt_internal_free_policy@@@@QEBA_NXZ 0000000180006200 f i libvcruntimed:std_type_info.obj
 0001:00005230       ?release@?$__crt_unique_heap_ptr@DU__crt_internal_free_policy@@@@QEAAXXZ 0000000180006230 f i libvcruntimed:std_type_info.obj
 0001:00005260       ?release@?$__crt_unique_heap_ptr@XU__crt_internal_free_policy@@@@QEAAXXZ 0000000180006260 f i libvcruntimed:std_type_info.obj
 0001:00005290       __std_type_info_compare    0000000180006290 f   libvcruntimed:std_type_info.obj
 0001:000052d0       __std_type_info_destroy_list 00000001800062d0 f   libvcruntimed:std_type_info.obj
 0001:00005330       __std_type_info_hash       0000000180006330 f   libvcruntimed:std_type_info.obj
 0001:000053e0       __std_type_info_name       00000001800063e0 f   libvcruntimed:std_type_info.obj
 0001:00005690       __vcrt_initialize          0000000180006690 f   libvcruntimed:initialization.obj
 0001:000056d0       __vcrt_thread_attach       00000001800066d0 f   libvcruntimed:initialization.obj
 0001:000056f0       __vcrt_thread_detach       00000001800066f0 f   libvcruntimed:initialization.obj
 0001:00005710       __vcrt_uninitialize        0000000180006710 f   libvcruntimed:initialization.obj
 0001:00005730       __vcrt_uninitialize_critical 0000000180006730 f   libvcruntimed:initialization.obj
 0001:00005750       __DestructExceptionObject  0000000180006750 f   libvcruntimed:ehhelpers.obj
 0001:00005850       ?_CallMemberFunction0@@YAXQEAX0@Z 0000000180006850 f i libvcruntimed:ehhelpers.obj
 0001:00005920       ?raw_name@type_info@@QEBAPEBDXZ 0000000180006920 f i libvcruntimed:ehhelpers.obj
 0001:00005930       _IsExceptionObjectToBeDestroyed 0000000180006930 f   libvcruntimed:ehhelpers.obj
 0001:00005980       _SetWinRTOutOfMemoryExceptionCallback 0000000180006980 f   libvcruntimed:ehhelpers.obj
 0001:000059a0       __AdjustPointer            00000001800069a0 f   libvcruntimed:ehhelpers.obj
 0001:00005a20       __FrameUnwindFilter        0000000180006a20 f   libvcruntimed:ehhelpers.obj
 0001:00005ad0       __GetPlatformExceptionInfo 0000000180006ad0 f   libvcruntimed:ehhelpers.obj
 0001:00005b80       __current_exception        0000000180006b80 f   libvcruntimed:ehhelpers.obj
 0001:00005ba0       __current_exception_context 0000000180006ba0 f   libvcruntimed:ehhelpers.obj
 0001:00005bc0       __processing_throw         0000000180006bc0 f   libvcruntimed:ehhelpers.obj
 0001:00005be0       __std_terminate            0000000180006be0 f   libvcruntimed:ehhelpers.obj
 0001:00005bf0       _is_exception_typeof       0000000180006bf0 f   libvcruntimed:ehhelpers.obj
 0001:00005d50       _NLG_Notify                0000000180006d50 f   libvcruntimed:notify.obj
 0001:00005d70       __NLG_Dispatch2            0000000180006d70 f   libvcruntimed:notify.obj
 0001:00005d80       __NLG_Return2              0000000180006d80 f   libvcruntimed:notify.obj
 0001:00005da0       __except_validate_context_record 0000000180006da0 f   libvcruntimed:jbcxrval.obj
 0001:00005e00       __except_validate_jump_buffer 0000000180006e00 f   libvcruntimed:jbcxrval.obj
 0001:00005e20       __except_validate_jump_buffer_common 0000000180006e20 f i libvcruntimed:jbcxrval.obj
 0001:00005ea0       ??$?0$00@DName@@QEAA@PEBDU?$StringLifeSelector@$00@@@Z 0000000180006ea0 f i libvcruntimed:undname.obj
 0001:00005f10       ??$?0$00@pcharNode@@QEAA@PEBDHU?$StringLifeSelector@$00@@@Z 0000000180006f10 f i libvcruntimed:undname.obj
 0001:00005f70       ??$?0$01@DName@@QEAA@PEBDU?$StringLifeSelector@$01@@@Z 0000000180006f70 f i libvcruntimed:undname.obj
 0001:00005fe0       ??$?0$01@pcharNode@@QEAA@PEBDHU?$StringLifeSelector@$01@@@Z 0000000180006fe0 f i libvcruntimed:undname.obj
 0001:00006090       ??$?0$0A@@DName@@QEAA@PEBDU?$StringLifeSelector@$0A@@@@Z 0000000180007090 f i libvcruntimed:undname.obj
 0001:00006100       ??$?0$0A@@pcharNode@@QEAA@PEBDHU?$StringLifeSelector@$0A@@@@Z 0000000180007100 f i libvcruntimed:undname.obj
 0001:000061b0       ??$?0_K$0A@@?$optional@_K@std@@QEAA@$$QEA_K@Z 00000001800071b0 f i libvcruntimed:undname.obj
 0001:00006200       ??$?0_K@?$_Optional_construct_base@_K@std@@QEAA@Uin_place_t@1@$$QEA_K@Z 0000000180007200 f i libvcruntimed:undname.obj
 0001:00006230       ??$?0_K@?$_Optional_destruct_base@_K$00@std@@QEAA@Uin_place_t@1@$$QEA_K@Z 0000000180007230 f i libvcruntimed:undname.obj
 0001:00006270       ??$append@VDNameNode@@@DName@@AEAAXPEBVDNameNode@@@Z 0000000180007270 f i libvcruntimed:undname.obj
 0001:00006320       ??$append@VDNameStatusNode@@@DName@@AEAAXPEBVDNameStatusNode@@@Z 0000000180007320 f i libvcruntimed:undname.obj
 0001:000063d0       ??$append@VcharNode@@@DName@@AEAAXPEBVcharNode@@@Z 00000001800073d0 f i libvcruntimed:undname.obj
 0001:00006480       ??$append@VpDNameNode@@@DName@@AEAAXPEBVpDNameNode@@@Z 0000000180007480 f i libvcruntimed:undname.obj
 0001:00006530       ??$append@VpcharNode@@@DName@@AEAAXPEBVpcharNode@@@Z 0000000180007530 f i libvcruntimed:undname.obj
 0001:000065e0       ??$doPchar@$00@DName@@AEAAXPEBDH@Z 00000001800075e0 f i libvcruntimed:undname.obj
 0001:00006740       ??$doPchar@$01@DName@@AEAAXPEBDH@Z 0000000180007740 f i libvcruntimed:undname.obj
 0001:000068a0       ??$doPchar@$0A@@DName@@AEAAXPEBDH@Z 00000001800078a0 f i libvcruntimed:undname.obj
 0001:00006a00       ??$forward@_K@std@@YA$$QEA_KAEA_K@Z 0000000180007a00 f i libvcruntimed:undname.obj
 0001:00006a10       ??$size@D$04@std@@YA_KAEAY04$$CBD@Z 0000000180007a10 f i libvcruntimed:undname.obj
 0001:00006a20       ??$size@D$0EB@@std@@YA_KAEAY0EB@$$CBD@Z 0000000180007a20 f i libvcruntimed:undname.obj
 0001:00006a30       ??0?$_Optional_construct_base@_K@std@@QEAA@XZ 0000000180007a30 f i libvcruntimed:undname.obj
 0001:00006a50       ??0?$_Optional_destruct_base@_K$00@std@@QEAA@XZ 0000000180007a50 f i libvcruntimed:undname.obj
 0001:00006a80       ??0?$optional@_K@std@@QEAA@XZ 0000000180007a80 f i libvcruntimed:undname.obj
 0001:00006aa0       ??0Block@_HeapManager@@QEAA@XZ 0000000180007aa0 f i libvcruntimed:undname.obj
 0001:00006ac0       ??0DName@@QEAA@AEAPEBDD@Z  0000000180007ac0 f   libvcruntimed:undname.obj
 0001:00006c90       ??0DName@@QEAA@AEBUStringLiteral@@@Z 0000000180007c90 f   libvcruntimed:undname.obj
 0001:00006cf0       ??0DName@@QEAA@AEBV0@@Z    0000000180007cf0 f i libvcruntimed:undname.obj
 0001:00006d20       ??0DName@@QEAA@D@Z         0000000180007d20 f   libvcruntimed:undname.obj
 0001:00006d60       ??0DName@@QEAA@PEAV0@@Z    0000000180007d60 f   libvcruntimed:undname.obj
 0001:00006e40       ??0DName@@QEAA@W4DNameStatus@@@Z 0000000180007e40 f   libvcruntimed:undname.obj
 0001:00006ef0       ??0DName@@QEAA@XZ          0000000180007ef0 f i libvcruntimed:undname.obj
 0001:00006f20       ??0DName@@QEAA@_J@Z        0000000180007f20 f   libvcruntimed:undname.obj
 0001:00007030       ??0DName@@QEAA@_K@Z        0000000180008030 f   libvcruntimed:undname.obj
 0001:00007100       ??0DNameNode@@IEAA@XZ      0000000180008100 f i libvcruntimed:undname.obj
 0001:00007120       ??0Replicator@@QEAA@XZ     0000000180008120 f i libvcruntimed:undname.obj
 0001:00007160       ??0UnDecorator@@QEAA@PEBDP6APEADJ@ZK@Z 0000000180008160 f i libvcruntimed:undname.obj
 0001:00007210       ??0_Nontrivial_dummy_type@std@@QEAA@XZ 0000000180008210 f i libvcruntimed:undname.obj
 0001:00007220       ??0charNode@@QEAA@D@Z      0000000180008220 f i libvcruntimed:undname.obj
 0001:00007260       ??0pDNameNode@@QEAA@PEAVDName@@@Z 0000000180008260 f   libvcruntimed:undname.obj
 0001:000072e0       ??0pairNode@@QEAA@PEBVDNameNode@@0@Z 00000001800082e0 f i libvcruntimed:undname.obj
 0001:00007360       ??2@YAPEAX_KAEAV_HeapManager@@H@Z 0000000180008360 f   libvcruntimed:undname.obj
 0001:000073c0       ??4DName@@QEAAAEAV0@AEBUStringLiteral@@@Z 00000001800083c0 f   libvcruntimed:undname.obj
 0001:00007410       ??4DName@@QEAAAEAV0@AEBV0@@Z 0000000180008410 f   libvcruntimed:undname.obj
 0001:00007440       ??4DName@@QEAAAEAV0@D@Z    0000000180008440 f i libvcruntimed:undname.obj
 0001:00007480       ??4DName@@QEAAAEAV0@PEAV0@@Z 0000000180008480 f   libvcruntimed:undname.obj
 0001:00007550       ??4DName@@QEAAAEAV0@W4DNameStatus@@@Z 0000000180008550 f   libvcruntimed:undname.obj
 0001:000075e0       ??AReplicator@@QEBA?AVDName@@H@Z 00000001800085e0 f   libvcruntimed:undname.obj
 0001:00007670       ??B?$optional@_K@std@@QEBA_NXZ 0000000180008670 f i libvcruntimed:undname.obj
 0001:00007680       ??D?$optional@_K@std@@QEGAAAEA_KXZ 0000000180008680 f i libvcruntimed:undname.obj
 0001:00007720       ??H@YA?AVDName@@AEBUStringLiteral@@AEBV0@@Z 0000000180008720 f i libvcruntimed:undname.obj
 0001:00007770       ??H@YA?AVDName@@DAEBV0@@Z  0000000180008770 f i libvcruntimed:undname.obj
 0001:000077c0       ??H@YA?AVDName@@W4DNameStatus@@AEBV0@@Z 00000001800087c0 f i libvcruntimed:undname.obj
 0001:00007810       ??HDName@@QEBA?AV0@AEBUStringLiteral@@@Z 0000000180008810 f   libvcruntimed:undname.obj
 0001:00007860       ??HDName@@QEBA?AV0@AEBV0@@Z 0000000180008860 f   libvcruntimed:undname.obj
 0001:000078b0       ??HDName@@QEBA?AV0@D@Z     00000001800088b0 f   libvcruntimed:undname.obj
 0001:00007900       ??HDName@@QEBA?AV0@PEAV0@@Z 0000000180008900 f   libvcruntimed:undname.obj
 0001:00007950       ??HDName@@QEBA?AV0@W4DNameStatus@@@Z 0000000180008950 f   libvcruntimed:undname.obj
 0001:000079a0       ??HStringLiteral@@QEBA?AU0@H@Z 00000001800089a0 f i libvcruntimed:undname.obj
 0001:000079e0       ??YDName@@QEAAAEAV0@AEBUStringLiteral@@@Z 00000001800089e0 f   libvcruntimed:undname.obj
 0001:00007ab0       ??YDName@@QEAAAEAV0@AEBV0@@Z 0000000180008ab0 f   libvcruntimed:undname.obj
 0001:00007b70       ??YDName@@QEAAAEAV0@D@Z    0000000180008b70 f   libvcruntimed:undname.obj
 0001:00007c10       ??YDName@@QEAAAEAV0@PEAV0@@Z 0000000180008c10 f   libvcruntimed:undname.obj
 0001:00007cf0       ??YDName@@QEAAAEAV0@W4DNameStatus@@@Z 0000000180008cf0 f   libvcruntimed:undname.obj
 0001:00007d60       ??YReplicator@@QEAAAEAV0@AEBVDName@@@Z 0000000180008d60 f   libvcruntimed:undname.obj
 0001:00007e20       ??_5DName@@QEAAAEAV0@AEBV0@@Z 0000000180008e20 f   libvcruntimed:undname.obj
 0001:00007e90       ??__K_l@@YA?AUStringLiteral@@PEBD_K@Z 0000000180008e90 f i libvcruntimed:undname.obj
 0001:00007ee0       ?Constructor@_HeapManager@@QEAAXP6APEAX_K@ZP6AXPEAX@Z@Z 0000000180008ee0 f i libvcruntimed:undname.obj
 0001:00007f40       ?Destructor@_HeapManager@@QEAAXXZ 0000000180008f40 f i libvcruntimed:undname.obj
 0001:00007fe0       ?UScore@UnDecorator@@SA?AUStringLiteral@@W4Tokens@@@Z 0000000180008fe0 f   libvcruntimed:undname.obj
 0001:00008070       ?composeDeclaration@UnDecorator@@CA?AVDName@@AEBV2@@Z 0000000180009070 f i libvcruntimed:undname.obj
 0001:0000a570       ?dbGetString@DName@@QEBAPEADXZ 000000018000b570 f   libvcruntimed:undname.obj
 0001:0000a5a0       ?doAccessSpecifiers@UnDecorator@@SAHXZ 000000018000b5a0 f i libvcruntimed:undname.obj
 0001:0000a5d0       ?doAllocationLanguage@UnDecorator@@SAHXZ 000000018000b5d0 f i libvcruntimed:undname.obj
 0001:0000a600       ?doAllocationModel@UnDecorator@@SAHXZ 000000018000b600 f i libvcruntimed:undname.obj
 0001:0000a630       ?doEcsu@UnDecorator@@SAHXZ 000000018000b630 f i libvcruntimed:undname.obj
 0001:0000a660       ?doEllipsis@UnDecorator@@SAHXZ 000000018000b660 f i libvcruntimed:undname.obj
 0001:0000a690       ?doFunctionReturns@UnDecorator@@SAHXZ 000000018000b690 f i libvcruntimed:undname.obj
 0001:0000a6c0       ?doMSKeywords@UnDecorator@@SAHXZ 000000018000b6c0 f i libvcruntimed:undname.obj
 0001:0000a6f0       ?doMemberTypes@UnDecorator@@SAHXZ 000000018000b6f0 f i libvcruntimed:undname.obj
 0001:0000a720       ?doNameOnly@UnDecorator@@SAHXZ 000000018000b720 f i libvcruntimed:undname.obj
 0001:0000a730       ?doNoIdentCharCheck@UnDecorator@@SAHXZ 000000018000b730 f i libvcruntimed:undname.obj
 0001:0000a740       ?doPchar@DName@@AEAAXD@Z   000000018000b740 f   libvcruntimed:undname.obj
 0001:0000a7d0       ?doPtr64@UnDecorator@@SAHXZ 000000018000b7d0 f i libvcruntimed:undname.obj
 0001:0000a800       ?doRestrictionSpec@UnDecorator@@SAHXZ 000000018000b800 f i libvcruntimed:undname.obj
 0001:0000a830       ?doThisTypes@UnDecorator@@SAHXZ 000000018000b830 f i libvcruntimed:undname.obj
 0001:0000a860       ?doThrowTypes@UnDecorator@@SAHXZ 000000018000b860 f i libvcruntimed:undname.obj
 0001:0000a890       ?doTypeOnly@UnDecorator@@SAHXZ 000000018000b890 f i libvcruntimed:undname.obj
 0001:0000a8a0       ?doUnderScore@UnDecorator@@SAHXZ 000000018000b8a0 f i libvcruntimed:undname.obj
 0001:0000a8d0       ?getAddressOf@UnDecorator@@CA?AVDName@@XZ 000000018000b8d0 f   libvcruntimed:undname.obj
 0001:0000a970       ?getArgumentList@UnDecorator@@CA?AVDName@@XZ 000000018000b970 f   libvcruntimed:undname.obj
 0001:0000ab10       ?getArgumentTypes@UnDecorator@@CA?AVDName@@XZ 000000018000bb10 f   libvcruntimed:undname.obj
 0001:0000ae70       ?getArrayAccess@UnDecorator@@CA?AVDName@@XZ 000000018000be70 f   libvcruntimed:undname.obj
 0001:0000af30       ?getArrayObject@UnDecorator@@CA?AVDName@@XZ 000000018000bf30 f   libvcruntimed:undname.obj
 0001:0000b050       ?getArrayType@UnDecorator@@CA?AVDName@@AEBV2@@Z 000000018000c050 f i libvcruntimed:undname.obj
 0001:0000b410       ?getBasedType@UnDecorator@@CA?AVDName@@XZ 000000018000c410 f   libvcruntimed:undname.obj
 0001:0000b580       ?getBasicDataType@UnDecorator@@CA?AVDName@@AEBV2@@Z 000000018000c580 f   libvcruntimed:undname.obj
 0001:0000c320       ?getCHPEName@UnDecorator@@QEAAPEADPEADH@Z 000000018000d320 f i libvcruntimed:undname.obj
 0001:0000c4f0       ?getCallIndex@UnDecorator@@CA?AVDName@@XZ 000000018000d4f0 f i libvcruntimed:undname.obj
 0001:0000c510       ?getCallingConvention@UnDecorator@@CA?AVDName@@XZ 000000018000d510 f   libvcruntimed:undname.obj
 0001:0000c8b0       ?getDataIndirectType@UnDecorator@@CA?AVDName@@AEBV2@W4IndirectionKind@@0H@Z 000000018000d8b0 f   libvcruntimed:undname.obj
 0001:0000d550       ?getDataIndirectType@UnDecorator@@CA?AVDName@@XZ 000000018000e550 f i libvcruntimed:undname.obj
 0001:0000d5a0       ?getDataType@UnDecorator@@CA?AVDName@@PEAV2@@Z 000000018000e5a0 f   libvcruntimed:undname.obj
 0001:0000d780       ?getDecoratedName@UnDecorator@@CA?AVDName@@XZ 000000018000e780 f   libvcruntimed:undname.obj
 0001:0000dc70       ?getDimension@UnDecorator@@CA?AVDName@@_N@Z 000000018000ec70 f   libvcruntimed:undname.obj
 0001:0000df80       ?getDispatchTarget@UnDecorator@@CA?AVDName@@XZ 000000018000ef80 f   libvcruntimed:undname.obj
 0001:0000e050       ?getDisplacement@UnDecorator@@CA?AVDName@@XZ 000000018000f050 f i libvcruntimed:undname.obj
 0001:0000e070       ?getECSUDataType@UnDecorator@@CA?AVDName@@XZ 000000018000f070 f   libvcruntimed:undname.obj
 0001:0000e400       ?getECSUName@UnDecorator@@CA?AVDName@@XZ 000000018000f400 f i libvcruntimed:undname.obj
 0001:0000e420       ?getEnumType@UnDecorator@@CA?AVDName@@XZ 000000018000f420 f i libvcruntimed:undname.obj
 0001:0000e6b0       ?getExtendedDataIndirectType@UnDecorator@@CA?AVDName@@AEAW4IndirectionKind@@AEA_NH@Z 000000018000f6b0 f   libvcruntimed:undname.obj
 0001:0000e9d0       ?getExternalDataType@UnDecorator@@CA?AVDName@@AEBV2@@Z 000000018000f9d0 f i libvcruntimed:undname.obj
 0001:0000eab0       ?getFloatingPoint@UnDecorator@@CA?AVDName@@H@Z 000000018000fab0 f   libvcruntimed:undname.obj
 0001:0000ed30       ?getFunctionIndirectType@UnDecorator@@CA?AVDName@@AEBV2@@Z 000000018000fd30 f   libvcruntimed:undname.obj
 0001:0000f360       ?getGuardNumber@UnDecorator@@CA?AVDName@@XZ 0000000180010360 f i libvcruntimed:undname.obj
 0001:0000f380       ?getLastChar@DName@@QEBADXZ 0000000180010380 f i libvcruntimed:undname.obj
 0001:0000f3d0       ?getLastChar@DNameStatusNode@@UEBADXZ 00000001800103d0 f i libvcruntimed:undname.obj
 0001:0000f410       ?getLastChar@charNode@@UEBADXZ 0000000180010410 f i libvcruntimed:undname.obj
 0001:0000f420       ?getLastChar@pDNameNode@@UEBADXZ 0000000180010420 f i libvcruntimed:undname.obj
 0001:0000f460       ?getLastChar@pairNode@@UEBADXZ 0000000180010460 f i libvcruntimed:undname.obj
 0001:0000f4e0       ?getLastChar@pcharNode@@UEBADXZ 00000001800104e0 f i libvcruntimed:undname.obj
 0001:0000f520       ?getLexicalFrame@UnDecorator@@CA?AVDName@@XZ 0000000180010520 f i libvcruntimed:undname.obj
 0001:0000f570       ?getMemberAccess@UnDecorator@@CA?AVDName@@XZ 0000000180010570 f   libvcruntimed:undname.obj
 0001:0000f620       ?getMemoryWithBuffer@_HeapManager@@QEAAPEAX_K@Z 0000000180010620 f   libvcruntimed:undname.obj
 0001:0000f770       ?getMemoryWithoutBuffer@_HeapManager@@QEAAPEAX_K@Z 0000000180010770 f   libvcruntimed:undname.obj
 0001:0000f7c0       ?getNoexcept@UnDecorator@@CA?AVDName@@XZ 00000001800107c0 f   libvcruntimed:undname.obj
 0001:0000f870       ?getNumberOfDimensions@UnDecorator@@CAHXZ 0000000180010870 f   libvcruntimed:undname.obj
 0001:0000f990       ?getOperatorName@UnDecorator@@CA?AVDName@@_NPEA_N@Z 0000000180010990 f i libvcruntimed:undname.obj
 0001:00010980       ?getPointerToMember@UnDecorator@@CA?AVDName@@XZ 0000000180011980 f   libvcruntimed:undname.obj
 0001:00010ad0       ?getPointerType@UnDecorator@@CA?AVDName@@AEBV2@0@Z 0000000180011ad0 f i libvcruntimed:undname.obj
 0001:00010b10       ?getPointerTypeArray@UnDecorator@@CA?AVDName@@AEBV2@0@Z 0000000180011b10 f i libvcruntimed:undname.obj
 0001:00010b50       ?getPrimaryDataType@UnDecorator@@CA?AVDName@@AEBV2@@Z 0000000180011b50 f   libvcruntimed:undname.obj
 0001:00011180       ?getPtrRefDataType@UnDecorator@@CA?AVDName@@AEBV2@H@Z 0000000180012180 f   libvcruntimed:undname.obj
 0001:00011570       ?getPtrRefType@UnDecorator@@CA?AVDName@@AEBV2@0W4IndirectionKind@@@Z 0000000180012570 f   libvcruntimed:undname.obj
 0001:000117b0       ?getReferenceType@UnDecorator@@CA?AVDName@@AEBV2@0W4IndirectionKind@@@Z 00000001800127b0 f i libvcruntimed:undname.obj
 0001:000117f0       ?getRestrictionSpec@UnDecorator@@CA?AVDName@@XZ 00000001800127f0 f   libvcruntimed:undname.obj
 0001:00011a80       ?getReturnType@UnDecorator@@CA?AVDName@@PEAV2@@Z 0000000180012a80 f   libvcruntimed:undname.obj
 0001:00011ae0       ?getScope@UnDecorator@@CA?AVDName@@XZ 0000000180012ae0 f   libvcruntimed:undname.obj
 0001:00012240       ?getScopedName@UnDecorator@@CA?AVDName@@XZ 0000000180013240 f   libvcruntimed:undname.obj
 0001:00012440       ?getSignedDimension@UnDecorator@@CA?AVDName@@XZ 0000000180013440 f   libvcruntimed:undname.obj
 0001:000124d0       ?getStorageConvention@UnDecorator@@CA?AVDName@@XZ 00000001800134d0 f i libvcruntimed:undname.obj
 0001:000124f0       ?getString@DName@@QEBAPEADPEAD0@Z 00000001800134f0 f i libvcruntimed:undname.obj
 0001:00012570       ?getString@DName@@QEBAPEADPEADH@Z 0000000180013570 f i libvcruntimed:undname.obj
 0001:00012630       ?getString@DNameStatusNode@@UEBAPEADPEAD0@Z 0000000180013630 f i libvcruntimed:undname.obj
 0001:00012680       ?getString@charNode@@UEBAPEADPEAD0@Z 0000000180013680 f i libvcruntimed:undname.obj
 0001:000126c0       ?getString@pDNameNode@@UEBAPEADPEAD0@Z 00000001800136c0 f i libvcruntimed:undname.obj
 0001:00012720       ?getString@pairNode@@UEBAPEADPEAD0@Z 0000000180013720 f i libvcruntimed:undname.obj
 0001:000127f0       ?getString@pcharNode@@UEBAPEADPEAD0@Z 00000001800137f0 f i libvcruntimed:undname.obj
 0001:00012830       ?getStringEncoding@UnDecorator@@CA?AVDName@@W4PrefixKind@@H@Z 0000000180013830 f   libvcruntimed:undname.obj
 0001:00012990       ?getStringHelper@@YAPEADPEADPEBD1H@Z 0000000180013990 f i libvcruntimed:undname.obj
 0001:00012a00       ?getStringObject@UnDecorator@@CA?AVDName@@XZ 0000000180013a00 f   libvcruntimed:undname.obj
 0001:00012ae0       ?getSymbolName@UnDecorator@@CA?AVDName@@XZ 0000000180013ae0 f i libvcruntimed:undname.obj
 0001:00012b80       ?getTemplateArgumentList@UnDecorator@@CA?AVDName@@XZ 0000000180013b80 f   libvcruntimed:undname.obj
 0001:00012ec0       ?getTemplateName@UnDecorator@@CA?AVDName@@_N@Z 0000000180013ec0 f   libvcruntimed:undname.obj
 0001:00013100       ?getTemplateNonTypeArgument@UnDecorator@@CA?AVDName@@XZ 0000000180014100 f   libvcruntimed:undname.obj
 0001:00013930       ?getTemplateTypeArgument@UnDecorator@@CA?AVDName@@XZ 0000000180014930 f   libvcruntimed:undname.obj
 0001:00013ba0       ?getThisType@UnDecorator@@CA?AVDName@@XZ 0000000180014ba0 f i libvcruntimed:undname.obj
 0001:00013bf0       ?getThrowTypes@UnDecorator@@CA?AVDName@@XZ 0000000180014bf0 f   libvcruntimed:undname.obj
 0001:00013c40       ?getTypeEncoding@UnDecorator@@CAHXZ 0000000180014c40 f i libvcruntimed:undname.obj
 0001:000148a0       ?getUndecoratedName@UnDecorator@@QEAAPEADPEADH@Z 00000001800158a0 f i libvcruntimed:undname.obj
 0001:00014a90       ?getUnionObject@UnDecorator@@CA?AVDName@@XZ 0000000180015a90 f   libvcruntimed:undname.obj
 0001:00014ba0       ?getVCallThunkType@UnDecorator@@CA?AVDName@@XZ 0000000180015ba0 f i libvcruntimed:undname.obj
 0001:00014c50       ?getValue@UnDecorator@@CA?AV?$optional@_K@std@@XZ 0000000180015c50 f   libvcruntimed:undname.obj
 0001:00014d20       ?getValueObject@UnDecorator@@CA?AVDName@@XZ 0000000180015d20 f   libvcruntimed:undname.obj
 0001:00014f40       ?getVbTableType@UnDecorator@@CA?AVDName@@AEBV2@@Z 0000000180015f40 f i libvcruntimed:undname.obj
 0001:00014f70       ?getVdispMapType@UnDecorator@@CA?AVDName@@AEBV2@@Z 0000000180015f70 f i libvcruntimed:undname.obj
 0001:00015030       ?getVfTableType@UnDecorator@@CA?AVDName@@AEBV2@@Z 0000000180016030 f i libvcruntimed:undname.obj
 0001:000152d0       ?getZName@UnDecorator@@CA?AVDName@@_N0@Z 00000001800162d0 f   libvcruntimed:undname.obj
 0001:00015760       ?haveTemplateParameters@UnDecorator@@SAHXZ 0000000180016760 f i libvcruntimed:undname.obj
 0001:00015770       ?isArray@DName@@QEBAHXZ    0000000180016770 f i libvcruntimed:undname.obj
 0001:00015790       ?isComArray@DName@@QEBAHXZ 0000000180016790 f i libvcruntimed:undname.obj
 0001:000157b0       ?isEmpty@DName@@QEBAHXZ    00000001800167b0 f i libvcruntimed:undname.obj
 0001:000157e0       ?isFull@Replicator@@QEBAHXZ 00000001800167e0 f i libvcruntimed:undname.obj
 0001:00015810       ?isNoTE@DName@@QEBAHXZ     0000000180016810 f i libvcruntimed:undname.obj
 0001:00015830       ?isPinPtr@DName@@QEBAHXZ   0000000180016830 f i libvcruntimed:undname.obj
 0001:00015850       ?isPtrRef@DName@@QEBAHXZ   0000000180016850 f i libvcruntimed:undname.obj
 0001:00015870       ?isUDC@DName@@QEBAHXZ      0000000180016870 f i libvcruntimed:undname.obj
 0001:000158c0       ?isUDTThunk@DName@@QEBAHXZ 00000001800168c0 f i libvcruntimed:undname.obj
 0001:00015910       ?isVCallThunk@DName@@QEBAHXZ 0000000180016910 f i libvcruntimed:undname.obj
 0001:00015930       ?isValid@DName@@QEBAHXZ    0000000180016930 f i libvcruntimed:undname.obj
 0001:00015970       ?length@DName@@QEBAHXZ     0000000180016970 f i libvcruntimed:undname.obj
 0001:000159c0       ?length@DNameStatusNode@@UEBAHXZ 00000001800169c0 f i libvcruntimed:undname.obj
 0001:000159d0       ?length@charNode@@UEBAHXZ  00000001800169d0 f i libvcruntimed:undname.obj
 0001:000159e0       ?length@pDNameNode@@UEBAHXZ 00000001800169e0 f i libvcruntimed:undname.obj
 0001:00015a20       ?length@pairNode@@UEBAHXZ  0000000180016a20 f i libvcruntimed:undname.obj
 0001:00015ab0       ?length@pcharNode@@UEBAHXZ 0000000180016ab0 f i libvcruntimed:undname.obj
 0001:00015ac0       ?make@DNameStatusNode@@SAPEBV1@W4DNameStatus@@@Z 0000000180016ac0 f i libvcruntimed:undname.obj
 0001:00015b10       ?parseDecoratedName@UnDecorator@@CA?AVDName@@XZ 0000000180016b10 f   libvcruntimed:undname.obj
 0001:00015d00       ?raw_length@DNameStatusNode@@UEBAHXZ 0000000180016d00 f i libvcruntimed:undname.obj
 0001:00015d20       ?raw_length@charNode@@UEBAHXZ 0000000180016d20 f i libvcruntimed:undname.obj
 0001:00015d40       ?raw_length@pDNameNode@@UEBAHXZ 0000000180016d40 f i libvcruntimed:undname.obj
 0001:00015d50       ?raw_length@pairNode@@UEBAHXZ 0000000180016d50 f i libvcruntimed:undname.obj
 0001:00015d60       ?raw_length@pcharNode@@UEBAHXZ 0000000180016d60 f i libvcruntimed:undname.obj
 0001:00015d80       ?setIsArray@DName@@QEAAXXZ 0000000180016d80 f i libvcruntimed:undname.obj
 0001:00015da0       ?setIsComArray@DName@@QEAAXXZ 0000000180016da0 f i libvcruntimed:undname.obj
 0001:00015dc0       ?setIsNoTE@DName@@QEAAXXZ  0000000180016dc0 f i libvcruntimed:undname.obj
 0001:00015de0       ?setIsPinPtr@DName@@QEAAXXZ 0000000180016de0 f i libvcruntimed:undname.obj
 0001:00015e00       ?setIsUDC@DName@@QEAAXXZ   0000000180016e00 f i libvcruntimed:undname.obj
 0001:00015e30       ?setIsVCallThunk@DName@@QEAAXXZ 0000000180016e30 f i libvcruntimed:undname.obj
 0001:00015e50       ?setPtrRef@DName@@QEAAAEAV1@XZ 0000000180016e50 f i libvcruntimed:undname.obj
 0001:00015e70       ?status@DName@@QEBA?AW4DNameStatus@@XZ 0000000180016e70 f i libvcruntimed:undname.obj
 0001:00015fa0       __unDName                  0000000180016fa0 f   libvcruntimed:undname.obj
 0001:00016000       __unDNameEx                0000000180017000 f   libvcruntimed:undname.obj
 0001:000160c0       _vsprintf_s_l              00000001800170c0 f i libvcruntimed:undname.obj
 0001:00016130       sprintf_s                  0000000180017130 f i libvcruntimed:undname.obj
 0001:00016190       unDNameGenerateCHPE        0000000180017190 f   libvcruntimed:undname.obj
 0001:00016240       ??$?RU__vcrt_ptd@@@__crt_internal_free_policy@@QEBAXQEBU__vcrt_ptd@@@Z 0000000180017240 f i libvcruntimed:per_thread_data.obj
 0001:00016270       ??0?$__crt_unique_heap_ptr@U__vcrt_ptd@@U__crt_internal_free_policy@@@@QEAA@QEAU__vcrt_ptd@@@Z 0000000180017270 f i libvcruntimed:per_thread_data.obj
 0001:000162b0       ??1?$__crt_unique_heap_ptr@U__vcrt_ptd@@U__crt_internal_free_policy@@@@QEAA@XZ 00000001800172b0 f i libvcruntimed:per_thread_data.obj
 0001:000162f0       ??B?$__crt_unique_heap_ptr@U__vcrt_ptd@@U__crt_internal_free_policy@@@@QEBA_NXZ 00000001800172f0 f i libvcruntimed:per_thread_data.obj
 0001:00016310       ?detach@?$__crt_unique_heap_ptr@U__vcrt_ptd@@U__crt_internal_free_policy@@@@QEAAPEAU__vcrt_ptd@@XZ 0000000180017310 f i libvcruntimed:per_thread_data.obj
 0001:00016340       ?get@?$__crt_unique_heap_ptr@U__vcrt_ptd@@U__crt_internal_free_policy@@@@QEBAPEAU__vcrt_ptd@@XZ 0000000180017340 f i libvcruntimed:per_thread_data.obj
 0001:00016350       ?is_valid@?$__crt_unique_heap_ptr@U__vcrt_ptd@@U__crt_internal_free_policy@@@@QEBA_NXZ 0000000180017350 f i libvcruntimed:per_thread_data.obj
 0001:00016380       ?release@?$__crt_unique_heap_ptr@U__vcrt_ptd@@U__crt_internal_free_policy@@@@QEAAXXZ 0000000180017380 f i libvcruntimed:per_thread_data.obj
 0001:000163f0       __vcrt_freefls             00000001800173f0 f   libvcruntimed:per_thread_data.obj
 0001:00016430       __vcrt_freeptd             0000000180017430 f   libvcruntimed:per_thread_data.obj
 0001:00016490       __vcrt_getptd              0000000180017490 f   libvcruntimed:per_thread_data.obj
 0001:000164c0       __vcrt_getptd_noexit       00000001800174c0 f   libvcruntimed:per_thread_data.obj
 0001:00016660       __vcrt_getptd_noinit       0000000180017660 f   libvcruntimed:per_thread_data.obj
 0001:000166c0       __vcrt_initialize_ptd      00000001800176c0 f   libvcruntimed:per_thread_data.obj
 0001:00016710       __vcrt_uninitialize_ptd    0000000180017710 f   libvcruntimed:per_thread_data.obj
 0001:00016740       __vcrt_initialize_locks    0000000180017740 f   libvcruntimed:locks.obj
 0001:000167b0       __vcrt_lock                00000001800177b0 f   libvcruntimed:locks.obj
 0001:000167e0       __vcrt_uninitialize_locks  00000001800177e0 f   libvcruntimed:locks.obj
 0001:00016840       __vcrt_unlock              0000000180017840 f   libvcruntimed:locks.obj
 0001:00016870       ??$__crt_interlocked_exchange_pointer@$$A6AXXZP6AXXZ@@YAP6AXXZPEDS6AXXZQ6AXXZ@Z 0000000180017870 f i libvcruntimed:purevirt.obj
 0001:00016890       ??$__crt_interlocked_read_pointer@$$A6AXXZ@@YAP6AXXZPEDS6AXXZ@Z 0000000180017890 f i libvcruntimed:purevirt.obj
 0001:000168b0       _get_purecall_handler      00000001800178b0 f   libvcruntimed:purevirt.obj
 0001:000168d0       _purecall                  00000001800178d0 f   libvcruntimed:purevirt.obj
 0001:00016910       _set_purecall_handler      0000000180017910 f   libvcruntimed:purevirt.obj
 0001:00016940       memcpy_repmovs             0000000180017940 f   libvcruntimed:memcpy.obj
 0001:00016960       memcpy                     0000000180017960 f   libvcruntimed:memcpy.obj
 0001:00016960       memmove                    0000000180017960 f   libvcruntimed:memcpy.obj
 0001:00016fe0       ??$?0AEAViterator@TryBlockMap4@FH4@@AEAV012@$0A@@?$pair@Viterator@TryBlockMap4@FH4@@V123@@std@@QEAA@AEAViterator@TryBlockMap4@FH4@@0@Z 0000000180017fe0 f i libvcruntimed:risctrnsctrl.obj
 0001:00017040       ??$?0AEAViterator@TryBlockMap@__FrameHandler3@@AEAV012@$0A@@?$pair@Viterator@TryBlockMap@__FrameHandler3@@V123@@std@@QEAA@AEAViterator@TryBlockMap@__FrameHandler3@@0@Z 0000000180018040 f i libvcruntimed:risctrnsctrl.obj
 0001:00017210       ??$_CallSETranslator@V__FrameHandler3@@@@YAHPEAUEHExceptionRecord@@PEA_KPEAU_CONTEXT@@PEAU_xDISPATCHER_CONTEXT@@PEBU_s_FuncInfo@@K1H@Z 0000000180018210 f i libvcruntimed:risctrnsctrl.obj
 0001:000172a0       ??$_CallSETranslator@V__FrameHandler4@@@@YAHPEAUEHExceptionRecord@@PEA_KPEAU_CONTEXT@@PEAU_xDISPATCHER_CONTEXT@@PEAUFuncInfo4@FH4@@K1H@Z 00000001800182a0 f i libvcruntimed:risctrnsctrl.obj
 0001:00017330       ??$forward@AEAViterator@TryBlockMap4@FH4@@@std@@YAAEAViterator@TryBlockMap4@FH4@@AEAV123@@Z 0000000180018330 f i libvcruntimed:risctrnsctrl.obj
 0001:00017340       ??$forward@AEAViterator@TryBlockMap@__FrameHandler3@@@std@@YAAEAViterator@TryBlockMap@__FrameHandler3@@AEAV123@@Z 0000000180018340 f i libvcruntimed:risctrnsctrl.obj
 0001:00017350       ??0FuncInfo4@FH4@@QEAA@XZ  0000000180018350 f i libvcruntimed:risctrnsctrl.obj
 0001:000173c0       ??0FuncInfoHeader@FH4@@QEAA@XZ 00000001800183c0 f i libvcruntimed:risctrnsctrl.obj
 0001:000173e0       ??0iterator@TryBlockMap4@FH4@@QEAA@AEAV12@I@Z 00000001800183e0 f i libvcruntimed:risctrnsctrl.obj
 0001:00017410       ??0iterator@TryBlockMap@__FrameHandler3@@QEAA@AEAV12@I@Z 0000000180018410 f i libvcruntimed:risctrnsctrl.obj
 0001:00017440       ??4iterator@TryBlockMap4@FH4@@QEAAAEAV012@AEBV012@@Z 0000000180018440 f i libvcruntimed:risctrnsctrl.obj
 0001:00017460       ??9iterator@TryBlockMap4@FH4@@QEBA_NAEBV012@@Z 0000000180018460 f i libvcruntimed:risctrnsctrl.obj
 0001:000174a0       ??Diterator@TryBlockMap4@FH4@@QEAA?AUTryBlockMapEntry4@2@XZ 00000001800184a0 f i libvcruntimed:risctrnsctrl.obj
 0001:000174d0       ??Eiterator@TryBlockMap4@FH4@@QEAAAEAV012@XZ 00000001800184d0 f i libvcruntimed:risctrnsctrl.obj
 0001:00017510       ?CatchTryBlock@__FrameHandler3@@SAPEBU_s_TryBlockMapEntry@@PEBU_s_FuncInfo@@H@Z 0000000180018510 f   libvcruntimed:risctrnsctrl.obj
 0001:000175a0       ?DecompFuncInfo@FH4@@YA_JPEAEAEAUFuncInfo4@1@_KH@Z 00000001800185a0 f i libvcruntimed:risctrnsctrl.obj
 0001:000175e0       ?DecompFuncInfo@FH4@@YA_JPEAEAEAUFuncInfo4@1@_KH_N@Z 00000001800185e0 f i libvcruntimed:risctrnsctrl.obj
 0001:000177b0       ?DecompTryBlock@TryBlockMap4@FH4@@AEAAXXZ 00000001800187b0 f i libvcruntimed:risctrnsctrl.obj
 0001:00017830       ?ExecutionInCatch@__FrameHandler3@@SA_NPEAU_xDISPATCHER_CONTEXT@@PEBU_s_FuncInfo@@@Z 0000000180018830 f   libvcruntimed:risctrnsctrl.obj
 0001:00017880       ?ExecutionInCatch@__FrameHandler4@@SA_NPEAU_xDISPATCHER_CONTEXT@@PEAUFuncInfo4@FH4@@@Z 0000000180018880 f   libvcruntimed:risctrnsctrl.obj
 0001:000178a0       ?FrameUnwindToEmptyState@__FrameHandler3@@SAXPEA_KPEAU_xDISPATCHER_CONTEXT@@PEBU_s_FuncInfo@@@Z 00000001800188a0 f   libvcruntimed:risctrnsctrl.obj
 0001:00017940       ?FrameUnwindToEmptyState@__FrameHandler4@@SAXPEA_KPEAU_xDISPATCHER_CONTEXT@@PEAUFuncInfo4@FH4@@@Z 0000000180018940 f   libvcruntimed:risctrnsctrl.obj
 0001:00017990       ?GetEstablisherFrame@__FrameHandler3@@SAPEA_KPEA_KPEAU_xDISPATCHER_CONTEXT@@PEBU_s_FuncInfo@@0@Z 0000000180018990 f   libvcruntimed:risctrnsctrl.obj
 0001:00017b00       ?GetEstablisherFrame@__FrameHandler4@@SAPEA_KPEA_KPEAU_xDISPATCHER_CONTEXT@@PEAUFuncInfo4@FH4@@0@Z 0000000180018b00 f   libvcruntimed:risctrnsctrl.obj
 0001:00017b70       ?GetRangeOfTrysToCheck@__FrameHandler3@@SA?AU?$pair@Viterator@TryBlockMap@__FrameHandler3@@V123@@std@@AEAVTryBlockMap@1@HPEAU_xDISPATCHER_CONTEXT@@PEBU_s_FuncInfo@@H@Z 0000000180018b70 f   libvcruntimed:risctrnsctrl.obj
 0001:00017db0       ?GetRangeOfTrysToCheck@__FrameHandler4@@SA?AU?$pair@Viterator@TryBlockMap4@FH4@@V123@@std@@AEAVTryBlockMap4@FH4@@HPEAU_xDISPATCHER_CONTEXT@@PEAUFuncInfo4@5@H@Z 0000000180018db0 f   libvcruntimed:risctrnsctrl.obj
 0001:00017f60       ?ReadInt@FH4@@YAHPEAPEAE@Z 0000000180018f60 f i libvcruntimed:risctrnsctrl.obj
 0001:00017fa0       ?ReadUnsigned@FH4@@YAIPEAPEAE@Z 0000000180018fa0 f i libvcruntimed:risctrnsctrl.obj
 0001:00018030       ?UnwindNestedFrames@__FrameHandler3@@SAXPEA_KPEAUEHExceptionRecord@@PEAU_CONTEXT@@0PEAXPEBU_s_FuncInfo@@HHPEBU_s_HandlerType@@PEAU_xDISPATCHER_CONTEXT@@E@Z 0000000180019030 f   libvcruntimed:risctrnsctrl.obj
 0001:000181a0       ?UnwindNestedFrames@__FrameHandler4@@SAXPEA_KPEAUEHExceptionRecord@@PEAU_CONTEXT@@0PEAXPEAUFuncInfo4@FH4@@HHPEAUHandlerType4@5@PEAU_xDISPATCHER_CONTEXT@@E@Z 00000001800191a0 f   libvcruntimed:risctrnsctrl.obj
 0001:00018370       ?begin@TryBlockMap4@FH4@@QEAA?AViterator@12@XZ 0000000180019370 f i libvcruntimed:risctrnsctrl.obj
 0001:000183a0       ?end@TryBlockMap4@FH4@@QEAA?AViterator@12@XZ 00000001800193a0 f i libvcruntimed:risctrnsctrl.obj
 0001:000183d0       ?imageRelToByteBuffer@FH4@@YAPEAE_KH@Z 00000001800193d0 f i libvcruntimed:risctrnsctrl.obj
 0001:000183f0       ?incrementToSentinel@iterator@TryBlockMap4@FH4@@QEAAXXZ 00000001800193f0 f i libvcruntimed:risctrnsctrl.obj
 0001:00018410       ?setBuffer@TryBlockMap4@FH4@@QEAAXViterator@12@@Z 0000000180019410 f i libvcruntimed:risctrnsctrl.obj
 0001:00018480       _CreateFrameInfo           0000000180019480 f   libvcruntimed:risctrnsctrl.obj
 0001:000184f0       _FindAndUnlinkFrame        00000001800194f0 f   libvcruntimed:risctrnsctrl.obj
 0001:00018570       _GetImageBase              0000000180019570 f   libvcruntimed:risctrnsctrl.obj
 0001:00018590       _GetThrowImageBase         0000000180019590 f   libvcruntimed:risctrnsctrl.obj
 0001:000185b0       _SetImageBase              00000001800195b0 f   libvcruntimed:risctrnsctrl.obj
 0001:000185d0       _SetThrowImageBase         00000001800195d0 f   libvcruntimed:risctrnsctrl.obj
 0001:000185f0       __CxxFrameHandler          00000001800195f0 f   libvcruntimed:risctrnsctrl.obj
 0001:00018630       __CxxFrameHandler2         0000000180019630 f   libvcruntimed:risctrnsctrl.obj
 0001:00018670       __CxxFrameHandler3         0000000180019670 f   libvcruntimed:risctrnsctrl.obj
 0001:00018750       __CxxFrameHandler4         0000000180019750 f   libvcruntimed:risctrnsctrl.obj
 0001:00018860       ??$__crt_interlocked_exchange_pointer@UHINSTANCE__@@PEAU1@@@YAPEAUHINSTANCE__@@PEDSEAU0@QEAU0@@Z 0000000180019860 f i libvcruntimed:winapi_downlevel.obj
 0001:00018880       ??$__crt_interlocked_exchange_pointer@UHINSTANCE__@@PEAX@@YAPEAUHINSTANCE__@@PEDSEAU0@QEAX@Z 0000000180019880 f i libvcruntimed:winapi_downlevel.obj
 0001:000188a0       ??$__crt_interlocked_exchange_pointer@XPEAX@@YAPEAXPEDSEAXQEAX@Z 00000001800198a0 f i libvcruntimed:winapi_downlevel.obj
 0001:000188c0       ??$__crt_interlocked_read_pointer@UHINSTANCE__@@@@YAPEAUHINSTANCE__@@PEDSEAU0@@Z 00000001800198c0 f i libvcruntimed:winapi_downlevel.obj
 0001:000188e0       ??$__crt_interlocked_read_pointer@X@@YAPEAXPEDSEAX@Z 00000001800198e0 f i libvcruntimed:winapi_downlevel.obj
 0001:00018df0       __vcrt_FlsAlloc            0000000180019df0 f   libvcruntimed:winapi_downlevel.obj
 0001:00018e40       __vcrt_FlsFree             0000000180019e40 f   libvcruntimed:winapi_downlevel.obj
 0001:00018e90       __vcrt_FlsGetValue         0000000180019e90 f   libvcruntimed:winapi_downlevel.obj
 0001:00018ee0       __vcrt_FlsSetValue         0000000180019ee0 f   libvcruntimed:winapi_downlevel.obj
 0001:00018f40       __vcrt_InitializeCriticalSectionEx 0000000180019f40 f   libvcruntimed:winapi_downlevel.obj
 0001:00018fb0       ?GetCurrentState@__FrameHandler3@@SAHPEA_KPEAU_xDISPATCHER_CONTEXT@@PEBU_s_FuncInfo@@@Z 0000000180019fb0 f   libvcruntimed:ehstate.obj
 0001:00019010       ?GetUnwindTryBlock@__FrameHandler3@@SAHPEA_KPEAU_xDISPATCHER_CONTEXT@@PEBU_s_FuncInfo@@@Z 000000018001a010 f   libvcruntimed:ehstate.obj
 0001:00019060       ?SetState@__FrameHandler3@@SAXPEA_KPEBU_s_FuncInfo@@H@Z 000000018001a060 f   libvcruntimed:ehstate.obj
 0001:00019090       ?SetUnwindTryBlock@__FrameHandler3@@SAXPEA_KPEAU_xDISPATCHER_CONTEXT@@PEBU_s_FuncInfo@@H@Z 000000018001a090 f   libvcruntimed:ehstate.obj
 0001:00019100       ?StateFromControlPc@__FrameHandler3@@SAHPEBU_s_FuncInfo@@PEAU_xDISPATCHER_CONTEXT@@@Z 000000018001a100 f   libvcruntimed:ehstate.obj
 0001:00019140       ?StateFromControlPc@__FrameHandler4@@SAHPEAUFuncInfo4@FH4@@PEAU_xDISPATCHER_CONTEXT@@@Z 000000018001a140 f   libvcruntimed:ehstate.obj
 0001:00019180       ?StateFromIp@__FrameHandler3@@SAHPEBU_s_FuncInfo@@PEAU_xDISPATCHER_CONTEXT@@_K@Z 000000018001a180 f   libvcruntimed:ehstate.obj
 0001:00019270       ?StateFromIp@__FrameHandler4@@SAHPEAUFuncInfo4@FH4@@PEAU_xDISPATCHER_CONTEXT@@_K@Z 000000018001a270 f   libvcruntimed:ehstate.obj
 0001:00019360       ?__FuncRelToRealOffset@@YA_KPEAU_xDISPATCHER_CONTEXT@@I@Z 000000018001a360 f i libvcruntimed:ehstate.obj
 0001:00019390       ?__RVAtoRealOffset@@YA_KPEAU_xDISPATCHER_CONTEXT@@H@Z 000000018001a390 f i libvcruntimed:ehstate.obj
 0001:0001b5f0       ??$TypeMatchHelper@V__FrameHandler3@@@@YAHPEBU_s_HandlerType@@PEBU_s_CatchableType@@PEBU_s_ThrowInfo@@@Z 000000018001c5f0 f i libvcruntimed:frame.obj
 0001:0001b7f0       ??$TypeMatchHelper@V__FrameHandler4@@@@YAHPEAUHandlerType4@FH4@@PEBU_s_CatchableType@@PEBU_s_ThrowInfo@@@Z 000000018001c7f0 f i libvcruntimed:frame.obj
 0001:0001ba00       ??$__InternalCxxFrameHandler@V__FrameHandler3@@@@YA?AW4_EXCEPTION_DISPOSITION@@PEAUEHExceptionRecord@@PEA_KPEAU_CONTEXT@@PEAU_xDISPATCHER_CONTEXT@@PEBU_s_FuncInfo@@H1E@Z 000000018001ca00 f i libvcruntimed:frame.obj
 0001:0001be70       ??$__InternalCxxFrameHandler@V__FrameHandler4@@@@YA?AW4_EXCEPTION_DISPOSITION@@PEAUEHExceptionRecord@@PEA_KPEAU_CONTEXT@@PEAU_xDISPATCHER_CONTEXT@@PEAUFuncInfo4@FH4@@H1E@Z 000000018001ce70 f i libvcruntimed:frame.obj
 0001:0001c300       ??0HandlerMap4@FH4@@QEAA@PEBUTryBlockMapEntry4@1@_KH@Z 000000018001d300 f i libvcruntimed:frame.obj
 0001:0001c3c0       ??0HandlerMap@__FrameHandler3@@QEAA@PEBU_s_TryBlockMapEntry@@_KI@Z 000000018001d3c0 f i libvcruntimed:frame.obj
 0001:0001c410       ??0HandlerType4@FH4@@QEAA@XZ 000000018001d410 f i libvcruntimed:frame.obj
 0001:0001c430       ??0TryBlockMap4@FH4@@QEAA@PEBUFuncInfo4@1@_K@Z 000000018001d430 f i libvcruntimed:frame.obj
 0001:0001c4c0       ??0TryBlockMap@__FrameHandler3@@QEAA@PEBU_s_FuncInfo@@_K@Z 000000018001d4c0 f i libvcruntimed:frame.obj
 0001:0001c4f0       ??0UWMap4@FH4@@QEAA@PEBUFuncInfo4@1@_K@Z 000000018001d4f0 f i libvcruntimed:frame.obj
 0001:0001c560       ??0bad_exception@std@@QEAA@AEBV01@@Z 000000018001d560 f i libvcruntimed:frame.obj
 0001:0001c5a0       ??0bad_exception@std@@QEAA@XZ 000000018001d5a0 f i libvcruntimed:frame.obj
 0001:0001c5e0       ??0exception@std@@QEAA@AEBV01@@Z 000000018001d5e0 f i libvcruntimed:frame.obj
 0001:0001c640       ??0exception@std@@QEAA@QEBDH@Z 000000018001d640 f i libvcruntimed:frame.obj
 0001:0001c690       ??0iterator@HandlerMap4@FH4@@QEAA@AEAV12@I@Z 000000018001d690 f i libvcruntimed:frame.obj
 0001:0001c6c0       ??0iterator@HandlerMap@__FrameHandler3@@QEAA@AEAV12@I@Z 000000018001d6c0 f i libvcruntimed:frame.obj
 0001:0001c6f0       ??0iterator@UWMap4@FH4@@QEAA@AEAV12@PEAE@Z 000000018001d6f0 f i libvcruntimed:frame.obj
 0001:0001c720       ??1bad_exception@std@@UEAA@XZ 000000018001d720 f i libvcruntimed:frame.obj
 0001:0001c740       ??1exception@std@@UEAA@XZ  000000018001d740 f i libvcruntimed:frame.obj
 0001:0001c770       ??4iterator@UWMap4@FH4@@QEAAAEAV012@AEBV012@@Z 000000018001d770 f i libvcruntimed:frame.obj
 0001:0001c7c0       ??8iterator@HandlerMap4@FH4@@QEBA_NAEBV012@@Z 000000018001d7c0 f i libvcruntimed:frame.obj
 0001:0001c800       ??8iterator@HandlerMap@__FrameHandler3@@QEBA_NAEBV012@@Z 000000018001d800 f i libvcruntimed:frame.obj
 0001:0001c840       ??8type_info@@QEBA_NAEBV0@@Z 000000018001d840 f i libvcruntimed:frame.obj
 0001:0001c890       ??9iterator@HandlerMap4@FH4@@QEBA_NAEBV012@@Z 000000018001d890 f i libvcruntimed:frame.obj
 0001:0001c8d0       ??9iterator@HandlerMap@__FrameHandler3@@QEBA_NAEBV012@@Z 000000018001d8d0 f i libvcruntimed:frame.obj
 0001:0001c910       ??Diterator@HandlerMap4@FH4@@QEAA?AUHandlerType4@2@XZ 000000018001d910 f i libvcruntimed:frame.obj
 0001:0001c940       ??Diterator@HandlerMap@__FrameHandler3@@QEAA?BU_s_HandlerType@@XZ 000000018001d940 f i libvcruntimed:frame.obj
 0001:0001c980       ??Diterator@TryBlockMap@__FrameHandler3@@QEAA?BU_s_TryBlockMapEntry@@XZ 000000018001d980 f i libvcruntimed:frame.obj
 0001:0001c9d0       ??Diterator@UWMap4@FH4@@QEAA?AUUnwindMapEntry4@2@XZ 000000018001d9d0 f i libvcruntimed:frame.obj
 0001:0001ca50       ??Eiterator@HandlerMap4@FH4@@QEAAAEAV012@XZ 000000018001da50 f i libvcruntimed:frame.obj
 0001:0001ca90       ??Eiterator@HandlerMap@__FrameHandler3@@QEAAAEAV012@XZ 000000018001da90 f i libvcruntimed:frame.obj
 0001:0001cab0       ??Eiterator@TryBlockMap@__FrameHandler3@@QEAAAEAV012@XZ 000000018001dab0 f i libvcruntimed:frame.obj
 0001:0001cad0       ??Eiterator@UWMap4@FH4@@QEAAAEAV012@XZ 000000018001dad0 f i libvcruntimed:frame.obj
 0001:0001cb10       ??Giterator@UWMap4@FH4@@QEBA_JAEBV012@@Z 000000018001db10 f i libvcruntimed:frame.obj
 0001:0001cb30       ??Miterator@TryBlockMap4@FH4@@QEBA_NAEBV012@@Z 000000018001db30 f i libvcruntimed:frame.obj
 0001:0001cb70       ??Miterator@TryBlockMap@__FrameHandler3@@QEBA_NAEBV012@@Z 000000018001db70 f i libvcruntimed:frame.obj
 0001:0001cbb0       ??Oiterator@UWMap4@FH4@@QEBA_NAEBV012@@Z 000000018001dbb0 f i libvcruntimed:frame.obj
 0001:0001cbf0       ??Piterator@UWMap4@FH4@@QEBA_NAEBV012@@Z 000000018001dbf0 f i libvcruntimed:frame.obj
 0001:0001cc30       ??_Ebad_exception@std@@UEAAPEAXI@Z 000000018001dc30 f i libvcruntimed:frame.obj
 0001:0001cc30       ??_Gbad_exception@std@@UEAAPEAXI@Z 000000018001dc30 f i libvcruntimed:frame.obj
 0001:0001cc70       ??_Gexception@std@@UEAAPEAXI@Z 000000018001dc70 f i libvcruntimed:frame.obj
 0001:0001cc70       ??_Eexception@std@@UEAAPEAXI@Z 000000018001dc70 f i libvcruntimed:frame.obj
 0001:0001ccb0       ?BuildCatchObject@__FrameHandler3@@SAXPEAUEHExceptionRecord@@PEAXPEBU_s_HandlerType@@PEBU_s_CatchableType@@@Z 000000018001dcb0 f   libvcruntimed:frame.obj
 0001:0001ccf0       ?BuildCatchObject@__FrameHandler4@@SAXPEAUEHExceptionRecord@@PEAXPEAUHandlerType4@FH4@@PEBU_s_CatchableType@@@Z 000000018001dcf0 f   libvcruntimed:frame.obj
 0001:0001cd30       ?BuildCatchObjectHelper@__FrameHandler3@@SAHPEAUEHExceptionRecord@@PEAXPEBU_s_HandlerType@@PEBU_s_CatchableType@@@Z 000000018001dd30 f   libvcruntimed:frame.obj
 0001:0001cd70       ?BuildCatchObjectHelper@__FrameHandler4@@SAHPEAUEHExceptionRecord@@PEAXPEAUHandlerType4@FH4@@PEBU_s_CatchableType@@@Z 000000018001dd70 f   libvcruntimed:frame.obj
 0001:0001cdb0       ?CxxCallCatchBlock@__FrameHandler3@@SAPEAXPEAU_EXCEPTION_RECORD@@@Z 000000018001ddb0 f   libvcruntimed:frame.obj
 0001:0001d010       ?CxxCallCatchBlock@__FrameHandler4@@SAPEAXPEAU_EXCEPTION_RECORD@@@Z 000000018001e010 f   libvcruntimed:frame.obj
 0001:0001d340       ?DecompHandler@HandlerMap4@FH4@@AEAAXXZ 000000018001e340 f i libvcruntimed:frame.obj
 0001:0001d710       ?FrameUnwindToState@__FrameHandler3@@SAXPEA_KPEAU_xDISPATCHER_CONTEXT@@PEBU_s_FuncInfo@@H@Z 000000018001e710 f   libvcruntimed:frame.obj
 0001:0001d960       ?FrameUnwindToState@__FrameHandler4@@SAXPEA_KPEAU_xDISPATCHER_CONTEXT@@PEAUFuncInfo4@FH4@@H@Z 000000018001e960 f   libvcruntimed:frame.obj
 0001:0001dc70       ?GetHandlerSearchState@__FrameHandler3@@SAHPEA_KPEAU_xDISPATCHER_CONTEXT@@PEBU_s_FuncInfo@@@Z 000000018001ec70 f i libvcruntimed:frame.obj
 0001:0001dd20       ?GetHandlerSearchState@__FrameHandler4@@SAHPEA_KPEAU_xDISPATCHER_CONTEXT@@PEAUFuncInfo4@FH4@@@Z 000000018001ed20 f i libvcruntimed:frame.obj
 0001:0001dda0       ?GetMaxState@__FrameHandler3@@SAHPEAU_xDISPATCHER_CONTEXT@@PEBU_s_FuncInfo@@@Z 000000018001eda0 f i libvcruntimed:frame.obj
 0001:0001ddc0       ?GetMaxState@__FrameHandler4@@SAHPEAU_xDISPATCHER_CONTEXT@@PEAUFuncInfo4@FH4@@@Z 000000018001edc0 f i libvcruntimed:frame.obj
 0001:0001dff0       ?ReadEntry@UWMap4@FH4@@AEAAXPEAPEAE@Z 000000018001eff0 f i libvcruntimed:frame.obj
 0001:0001e0a0       ?TypeMatch@__FrameHandler3@@SAHPEBU_s_HandlerType@@PEBU_s_CatchableType@@PEBU_s_ThrowInfo@@@Z 000000018001f0a0 f   libvcruntimed:frame.obj
 0001:0001e0d0       ?TypeMatch@__FrameHandler4@@SAHPEAUHandlerType4@FH4@@PEBU_s_CatchableType@@PEBU_s_ThrowInfo@@@Z 000000018001f0d0 f   libvcruntimed:frame.obj
 0001:0001e100       ?WalkBack@UWMap4@FH4@@AEAAXPEAPEAE@Z 000000018001f100 f i libvcruntimed:frame.obj
 0001:0001e150       ?WalkBack@iterator@UWMap4@FH4@@QEAAXXZ 000000018001f150 f i libvcruntimed:frame.obj
 0001:0001e190       ?WalkForward@UWMap4@FH4@@AEAAXPEAPEAE@Z 000000018001f190 f i libvcruntimed:frame.obj
 0001:0001e1c0       ?_CallMemberFunction1@@YAXQEAX00@Z 000000018001f1c0 f i libvcruntimed:frame.obj
 0001:0001e200       ?_CallMemberFunction2@@YAXQEAX00H@Z 000000018001f200 f i libvcruntimed:frame.obj
 0001:0001e290       ?begin@HandlerMap4@FH4@@QEAA?AViterator@12@XZ 000000018001f290 f i libvcruntimed:frame.obj
 0001:0001e2c0       ?begin@HandlerMap@__FrameHandler3@@QEAA?AViterator@12@XZ 000000018001f2c0 f i libvcruntimed:frame.obj
 0001:0001e2f0       ?begin@UWMap4@FH4@@QEAA?AViterator@12@XZ 000000018001f2f0 f i libvcruntimed:frame.obj
 0001:0001e320       ?end@HandlerMap4@FH4@@QEAA?AViterator@12@XZ 000000018001f320 f i libvcruntimed:frame.obj
 0001:0001e350       ?end@HandlerMap@__FrameHandler3@@QEAA?AViterator@12@XZ 000000018001f350 f i libvcruntimed:frame.obj
 0001:0001e380       ?getESTypes@__FrameHandler3@@SAPEBU_s_ESTypeList@@PEBU_s_FuncInfo@@@Z 000000018001f380 f i libvcruntimed:frame.obj
 0001:0001e3c0       ?getESTypes@__FrameHandler4@@SAPEBU_s_ESTypeList@@PEAUFuncInfo4@FH4@@@Z 000000018001f3c0 f i libvcruntimed:frame.obj
 0001:0001e3d0       ?getLastEntry@HandlerMap4@FH4@@QEAAPEAUHandlerType4@2@XZ 000000018001f3d0 f i libvcruntimed:frame.obj
 0001:0001e410       ?getLastEntry@HandlerMap@__FrameHandler3@@QEAAPEBU_s_HandlerType@@XZ 000000018001f410 f i libvcruntimed:frame.obj
 0001:0001e430       ?getMagicNum@__FrameHandler3@@SAIPEBU_s_FuncInfo@@@Z 000000018001f430 f i libvcruntimed:frame.obj
 0001:0001e450       ?getMagicNum@__FrameHandler4@@SAIPEAUFuncInfo4@FH4@@@Z 000000018001f450 f i libvcruntimed:frame.obj
 0001:0001e460       ?getNumTryBlocks@TryBlockMap4@FH4@@QEAAIXZ 000000018001f460 f i libvcruntimed:frame.obj
 0001:0001e470       ?getNumTryBlocks@TryBlockMap@__FrameHandler3@@QEAAIXZ 000000018001f470 f i libvcruntimed:frame.obj
 0001:0001e490       ?getStartStop@UWMap4@FH4@@QEAAXHHAEAViterator@12@0@Z 000000018001f490 f i libvcruntimed:frame.obj
 0001:0001e5b0       ?getStateFromIterators@UWMap4@FH4@@SAHAEBViterator@12@H0H0@Z 000000018001f5b0 f i libvcruntimed:frame.obj
 0001:0001e6f0       ?isEHs@__FrameHandler3@@SA_NPEBU_s_FuncInfo@@@Z 000000018001f6f0 f i libvcruntimed:frame.obj
 0001:0001e730       ?isEHs@__FrameHandler4@@SA_NPEAUFuncInfo4@FH4@@@Z 000000018001f730 f i libvcruntimed:frame.obj
 0001:0001e750       ?isNoExcept@__FrameHandler3@@SA_NPEBU_s_FuncInfo@@@Z 000000018001f750 f i libvcruntimed:frame.obj
 0001:0001e790       ?isNoExcept@__FrameHandler4@@SA_NPEAUFuncInfo4@FH4@@@Z 000000018001f790 f i libvcruntimed:frame.obj
 0001:0001e7b0       ?reset@HandlerType4@FH4@@QEAAXXZ 000000018001f7b0 f i libvcruntimed:frame.obj
 0001:0001e810       ?resetBuffer@HandlerMap4@FH4@@QEAAXXZ 000000018001f810 f i libvcruntimed:frame.obj
 0001:0001e830       ?setBuffer@HandlerMap4@FH4@@QEAAXI@Z 000000018001f830 f i libvcruntimed:frame.obj
 0001:0001e890       ?what@exception@std@@UEBAPEBDXZ 000000018001f890 f i libvcruntimed:frame.obj
 0001:0001e8d0       __BuildCatchObject         000000018001f8d0 f   libvcruntimed:frame.obj
 0001:0001e910       __BuildCatchObjectHelper   000000018001f910 f   libvcruntimed:frame.obj
 0001:0001e950       __TypeMatch                000000018001f950 f   libvcruntimed:frame.obj
 0001:0001e980       __vcrt_EncodePointer       000000018001f980 f i libvcruntimed:frame.obj
 0001:0001e9b0       memset_repmovs             000000018001f9b0 f   libvcruntimed:memset.obj
 0001:0001e9d0       memset                     000000018001f9d0 f   libvcruntimed:memset.obj
 0001:0001eb70       _CallSettingFrame          000000018001fb70 f   libvcruntimed:handlers.obj
 0001:0001ebc0       _CallSettingFrame_LookupContinuationIndex 000000018001fbc0 f   libvcruntimed:handlers.obj
 0001:0001ebf0       _CallSettingFrame_NotifyContinuationAddr 000000018001fbf0 f   libvcruntimed:handlers.obj
 0001:0001ec20       _CallSettingFrameEncoded   000000018001fc20 f   libvcruntimed:handlers.obj
 0001:0001ec70       ??$?RD@__crt_public_free_policy@@QEBAXQEBD@Z 000000018001fc70 f i libvcruntimed:std_exception.obj
 0001:0001ec90       ??0?$__crt_unique_heap_ptr@DU__crt_public_free_policy@@@@QEAA@QEAD@Z 000000018001fc90 f i libvcruntimed:std_exception.obj
 0001:0001ecb0       ??1?$__crt_unique_heap_ptr@DU__crt_public_free_policy@@@@QEAA@XZ 000000018001fcb0 f i libvcruntimed:std_exception.obj
 0001:0001ecd0       ??B?$__crt_unique_heap_ptr@DU__crt_public_free_policy@@@@QEBA_NXZ 000000018001fcd0 f i libvcruntimed:std_exception.obj
 0001:0001ecf0       ?detach@?$__crt_unique_heap_ptr@DU__crt_public_free_policy@@@@QEAAPEADXZ 000000018001fcf0 f i libvcruntimed:std_exception.obj
 0001:0001ed20       ?get@?$__crt_unique_heap_ptr@DU__crt_public_free_policy@@@@QEBAPEADXZ 000000018001fd20 f i libvcruntimed:std_exception.obj
 0001:0001ed30       ?is_valid@?$__crt_unique_heap_ptr@DU__crt_public_free_policy@@@@QEBA_NXZ 000000018001fd30 f i libvcruntimed:std_exception.obj
 0001:0001ed60       ?release@?$__crt_unique_heap_ptr@DU__crt_public_free_policy@@@@QEAAXXZ 000000018001fd60 f i libvcruntimed:std_exception.obj
 0001:0001ed90       __std_exception_copy       000000018001fd90 f   libvcruntimed:std_exception.obj
 0001:0001eed0       __std_exception_destroy    000000018001fed0 f   libvcruntimed:std_exception.obj
 0001:0001ef10       _CxxThrowException         000000018001ff10 f   libvcruntimed:throw.obj
 0001:0001f040       floorf                     0000000180020040 f   libucrtd:floorf.obj
 0001:0001f190       _initterm                  0000000180020190 f   libucrtd:initterm.obj
 0001:0001f1f0       _initterm_e                00000001800201f0 f   libucrtd:initterm.obj
 0001:0001f2e0       _seh_filter_dll            00000001800202e0 f   libucrtd:exception_filter.obj
 0001:0001f310       _seh_filter_exe            0000000180020310 f   libucrtd:exception_filter.obj
 0001:0001f5b0       ??$?B$$A6AXPEAXK0@Z@__crt_fast_encoded_nullptr_t@@QEBAP6AXPEAXK0@ZXZ 00000001800205b0 f i libucrtd:exit.obj
 0001:0001f660       ??$__crt_fast_decode_pointer@P6AXPEAXK0@Z@@YAP6AXPEAXK0@ZQ6AX0K0@Z@Z 0000000180020660 f i libucrtd:exit.obj
 0001:0001f6a0       ??$__crt_fast_encode_pointer@P6AXPEAXK0@Z@@YAP6AXPEAXK0@ZQ6AX0K0@Z@Z 00000001800206a0 f i libucrtd:exit.obj
 0001:0001f6e0       ??$__crt_get_proc_address@P6AXI@Z@@YAP6AXI@ZQEAUHINSTANCE__@@QEBD@Z 00000001800206e0 f i libucrtd:exit.obj
 0001:0001f710       ??$__crt_interlocked_read@J@@YAJPEDJ@Z 0000000180020710 f i libucrtd:exit.obj
 0001:0001f7c0       ??0?$__crt_unique_handle_t@U__crt_hmodule_traits@@@@QEAA@QEAUHINSTANCE__@@@Z 00000001800207c0 f i libucrtd:exit.obj
 0001:0001f7e0       ??1?$__crt_unique_handle_t@U__crt_hmodule_traits@@@@QEAA@XZ 00000001800207e0 f i libucrtd:exit.obj
 0001:0001f940       ?__acrt_select_exit_lock@@YA?AW4__acrt_lock_id@@XZ 0000000180020940 f i libucrtd:exit.obj
 0001:0001f950       ?__crt_fast_encode_pointer@@YA?AU__crt_fast_encoded_nullptr_t@@$$T@Z 0000000180020950 f i libucrtd:exit.obj
 0001:0001f970       ?__crt_interlocked_read_32@@YAHPEDH@Z 0000000180020970 f i libucrtd:exit.obj
 0001:0001f990       ?__crt_rotate_pointer_value@@YA_K_KH@Z 0000000180020990 f i libucrtd:exit.obj
 0001:0001f9d0       ?close@?$__crt_unique_handle_t@U__crt_hmodule_traits@@@@QEAAXXZ 00000001800209d0 f i libucrtd:exit.obj
 0001:0001fa10       ?close@__crt_hmodule_traits@@SA_NPEAUHINSTANCE__@@@Z 0000000180020a10 f i libucrtd:exit.obj
 0001:0001fb20       ?get@?$__crt_unique_handle_t@U__crt_hmodule_traits@@@@QEBAPEAUHINSTANCE__@@XZ 0000000180020b20 f i libucrtd:exit.obj
 0001:0001fb30       ?get_address_of@?$__crt_unique_handle_t@U__crt_hmodule_traits@@@@QEAAPEAPEAUHINSTANCE__@@XZ 0000000180020b30 f i libucrtd:exit.obj
 0001:0001fb40       ?get_invalid_value@__crt_hmodule_traits@@SAPEAUHINSTANCE__@@XZ 0000000180020b40 f i libucrtd:exit.obj
 0001:0001fd00       _Exit                      0000000180020d00 f   libucrtd:exit.obj
 0001:0001fd20       __acrt_initialize_thread_local_exit_callback 0000000180020d20 f   libucrtd:exit.obj
 0001:0001fd40       _c_exit                    0000000180020d40 f   libucrtd:exit.obj
 0001:0001fd60       _cexit                     0000000180020d60 f   libucrtd:exit.obj
 0001:0001fd80       _exit                      0000000180020d80 f   libucrtd:exit.obj
 0001:0001fda0       _is_c_termination_complete 0000000180020da0 f   libucrtd:exit.obj
 0001:0001fdc0       _register_thread_local_exe_atexit_callback 0000000180020dc0 f   libucrtd:exit.obj
 0001:0001fe10       exit                       0000000180020e10 f   libucrtd:exit.obj
 0001:0001fe30       quick_exit                 0000000180020e30 f   libucrtd:exit.obj
 0001:0001fe50       ??$?RE@__crt_internal_free_policy@@QEBAXQEBE@Z 0000000180020e50 f i libucrtd:argv_parsing.obj
 0001:0001fe80       ??$?RPEAD@__crt_internal_free_policy@@QEBAXQEBQEAD@Z 0000000180020e80 f i libucrtd:argv_parsing.obj
 0001:0001feb0       ??$?RPEA_W@__crt_internal_free_policy@@QEBAXQEBQEA_W@Z 0000000180020eb0 f i libucrtd:argv_parsing.obj
 0001:00020600       ??$get_module_file_name@$$TAEAY0BAF@DH@?$__crt_char_traits@D@@SAK$$QEA$$TAEAY0BAF@D$$QEAH@Z 0000000180021600 f i libucrtd:argv_parsing.obj
 0001:00020640       ??$get_module_file_name@$$TAEAY0BAF@_WH@?$__crt_char_traits@_W@@SAK$$QEA$$TAEAY0BAF@_W$$QEAH@Z 0000000180021640 f i libucrtd:argv_parsing.obj
 0001:00020ff0       ??$set_program_name@PEAD@?$__crt_char_traits@D@@SAX$$QEAPEAD@Z 0000000180021ff0 f i libucrtd:argv_parsing.obj
 0001:00021010       ??$set_program_name@PEA_W@?$__crt_char_traits@_W@@SAX$$QEAPEA_W@Z 0000000180022010 f i libucrtd:argv_parsing.obj
 0001:00021070       ??0?$__crt_unique_heap_ptr@EU__crt_internal_free_policy@@@@QEAA@QEAE@Z 0000000180022070 f i libucrtd:argv_parsing.obj
 0001:00021090       ??0?$__crt_unique_heap_ptr@PEADU__crt_internal_free_policy@@@@QEAA@QEAPEAD@Z 0000000180022090 f i libucrtd:argv_parsing.obj
 0001:000210b0       ??0?$__crt_unique_heap_ptr@PEA_WU__crt_internal_free_policy@@@@QEAA@QEAPEA_W@Z 00000001800220b0 f i libucrtd:argv_parsing.obj
 0001:000210d0       ??1?$__crt_unique_heap_ptr@EU__crt_internal_free_policy@@@@QEAA@XZ 00000001800220d0 f i libucrtd:argv_parsing.obj
 0001:000210f0       ??1?$__crt_unique_heap_ptr@PEADU__crt_internal_free_policy@@@@QEAA@XZ 00000001800220f0 f i libucrtd:argv_parsing.obj
 0001:00021110       ??1?$__crt_unique_heap_ptr@PEA_WU__crt_internal_free_policy@@@@QEAA@XZ 0000000180022110 f i libucrtd:argv_parsing.obj
 0001:00021130       ??B?$__crt_unique_heap_ptr@EU__crt_internal_free_policy@@@@QEBA_NXZ 0000000180022130 f i libucrtd:argv_parsing.obj
 0001:00021210       ?detach@?$__crt_unique_heap_ptr@EU__crt_internal_free_policy@@@@QEAAPEAEXZ 0000000180022210 f i libucrtd:argv_parsing.obj
 0001:00021240       ?detach@?$__crt_unique_heap_ptr@PEADU__crt_internal_free_policy@@@@QEAAPEAPEADXZ 0000000180022240 f i libucrtd:argv_parsing.obj
 0001:00021270       ?detach@?$__crt_unique_heap_ptr@PEA_WU__crt_internal_free_policy@@@@QEAAPEAPEA_WXZ 0000000180022270 f i libucrtd:argv_parsing.obj
 0001:00021330       ?get@?$__crt_unique_heap_ptr@EU__crt_internal_free_policy@@@@QEBAPEAEXZ 0000000180022330 f i libucrtd:argv_parsing.obj
 0001:00021340       ?get@?$__crt_unique_heap_ptr@PEADU__crt_internal_free_policy@@@@QEBAPEAPEADXZ 0000000180022340 f i libucrtd:argv_parsing.obj
 0001:00021350       ?get@?$__crt_unique_heap_ptr@PEA_WU__crt_internal_free_policy@@@@QEBAPEAPEA_WXZ 0000000180022350 f i libucrtd:argv_parsing.obj
 0001:00021360       ?get_address_of@?$__crt_unique_heap_ptr@PEADU__crt_internal_free_policy@@@@QEAAPEAPEAPEADXZ 0000000180022360 f i libucrtd:argv_parsing.obj
 0001:00021370       ?get_address_of@?$__crt_unique_heap_ptr@PEA_WU__crt_internal_free_policy@@@@QEAAPEAPEAPEA_WXZ 0000000180022370 f i libucrtd:argv_parsing.obj
 0001:000213c0       ?is_valid@?$__crt_unique_heap_ptr@EU__crt_internal_free_policy@@@@QEBA_NXZ 00000001800223c0 f i libucrtd:argv_parsing.obj
 0001:000213f0       ?release@?$__crt_unique_heap_ptr@EU__crt_internal_free_policy@@@@QEAAXXZ 00000001800223f0 f i libucrtd:argv_parsing.obj
 0001:00021420       ?release@?$__crt_unique_heap_ptr@PEADU__crt_internal_free_policy@@@@QEAAXXZ 0000000180022420 f i libucrtd:argv_parsing.obj
 0001:00021450       ?release@?$__crt_unique_heap_ptr@PEA_WU__crt_internal_free_policy@@@@QEAAXXZ 0000000180022450 f i libucrtd:argv_parsing.obj
 0001:000214d0       __acrt_allocate_buffer_for_argv 00000001800224d0 f   libucrtd:argv_parsing.obj
 0001:000215f0       _configure_narrow_argv     00000001800225f0 f   libucrtd:argv_parsing.obj
 0001:00021610       _configure_wide_argv       0000000180022610 f   libucrtd:argv_parsing.obj
 0001:00021630       _set_pgmptr                0000000180022630 f i libucrtd:argv_parsing.obj
 0001:00021650       _set_wpgmptr               0000000180022650 f i libucrtd:argv_parsing.obj
 0001:00021664       ??$?R_W@__crt_internal_free_policy@@QEBAXQEB_W@Z 0000000180022664 f i libucrtd:environment_initialization.obj
 0001:00021c3c       ??$get_environment_from_os@$$V@?$__crt_char_traits@D@@SAPEADXZ 0000000180022c3c f i libucrtd:environment_initialization.obj
 0001:00021c44       ??$get_environment_from_os@$$V@?$__crt_char_traits@_W@@SAPEA_WXZ 0000000180022c44 f i libucrtd:environment_initialization.obj
 0001:00021e14       ??$set_variable_in_environment_nolock@PEADH@?$__crt_char_traits@D@@SAH$$QEAPEAD$$QEAH@Z 0000000180022e14 f i libucrtd:environment_initialization.obj
 0001:00021e20       ??$set_variable_in_environment_nolock@PEA_WH@?$__crt_char_traits@_W@@SAH$$QEAPEA_W$$QEAH@Z 0000000180022e20 f i libucrtd:environment_initialization.obj
 0001:00021e2c       ??$tcscpy_s@PEADAEB_KAEAPEAD@?$__crt_char_traits@D@@SAH$$QEAPEADAEB_KAEAPEAD@Z 0000000180022e2c f i libucrtd:environment_initialization.obj
 0001:00021e3c       ??$tcscpy_s@PEA_WAEB_KAEAPEA_W@?$__crt_char_traits@_W@@SAH$$QEAPEA_WAEB_KAEAPEA_W@Z 0000000180022e3c f i libucrtd:environment_initialization.obj
 0001:00021e4c       ??$tcslen@AEAPEAD@?$__crt_char_traits@D@@SA_KAEAPEAD@Z 0000000180022e4c f i libucrtd:environment_initialization.obj
 0001:00021e60       ??$tcslen@AEAPEA_W@?$__crt_char_traits@_W@@SA_KAEAPEA_W@Z 0000000180022e60 f i libucrtd:environment_initialization.obj
 0001:00021e74       ??$uninitialize@A6AXAEAPEAPEAD@Z@?$dual_state_global@PEAPEAD@__crt_state_management@@QEAAXA6AXAEAPEAPEAD@Z@Z 0000000180022e74 f i libucrtd:environment_initialization.obj
 0001:00021eb8       ??$uninitialize@A6AXAEAPEAPEA_W@Z@?$dual_state_global@PEAPEA_W@__crt_state_management@@QEAAXA6AXAEAPEAPEA_W@Z@Z 0000000180022eb8 f i libucrtd:environment_initialization.obj
 0001:00021f34       ??0?$__crt_unique_heap_ptr@_WU__crt_internal_free_policy@@@@QEAA@QEA_W@Z 0000000180022f34 f i libucrtd:environment_initialization.obj
 0001:00021f3c       ??1?$__crt_unique_heap_ptr@_WU__crt_internal_free_policy@@@@QEAA@XZ 0000000180022f3c f i libucrtd:environment_initialization.obj
 0001:00021f5c       ??B?$__crt_unique_heap_ptr@PEADU__crt_internal_free_policy@@@@QEBA_NXZ 0000000180022f5c f i libucrtd:environment_initialization.obj
 0001:00021f64       ??B?$__crt_unique_heap_ptr@PEA_WU__crt_internal_free_policy@@@@QEBA_NXZ 0000000180022f64 f i libucrtd:environment_initialization.obj
 0001:00021f6c       ??B?$__crt_unique_heap_ptr@_WU__crt_internal_free_policy@@@@QEBA_NXZ 0000000180022f6c f i libucrtd:environment_initialization.obj
 0001:00021f74       ?__crt_compute_required_transform_buffer_count@@YA_KIQEBD@Z 0000000180022f74 f i libucrtd:environment_initialization.obj
 0001:00021f98       ?__crt_compute_required_transform_buffer_count@@YA_KIQEB_W@Z 0000000180022f98 f i libucrtd:environment_initialization.obj
 0001:00021fc8       ?__crt_transform_string@@YA_KIQEBDQEA_W_K@Z 0000000180022fc8 f i libucrtd:environment_initialization.obj
 0001:00021fec       ?__crt_transform_string@@YA_KIQEB_WQEAD_K@Z 0000000180022fec f i libucrtd:environment_initialization.obj
 0001:0002201c       ?detach@?$__crt_unique_heap_ptr@DU__crt_internal_free_policy@@@@QEAAPEADXZ 000000018002301c f i libucrtd:environment_initialization.obj
 0001:00022024       ?detach@?$__crt_unique_heap_ptr@_WU__crt_internal_free_policy@@@@QEAAPEA_WXZ 0000000180023024 f i libucrtd:environment_initialization.obj
 0001:0002202c       ?get@?$__crt_unique_heap_ptr@_WU__crt_internal_free_policy@@@@QEBAPEA_WXZ 000000018002302c f i libucrtd:environment_initialization.obj
 0001:00022030       ?get_current_state_index@__crt_state_management@@YA_KXZ 0000000180023030 f i libucrtd:environment_initialization.obj
 0001:00022064       ?initialize@?$dual_state_global@PEAPEAD@__crt_state_management@@QEAAXQEAPEAD@Z 0000000180023064 f i libucrtd:environment_initialization.obj
 0001:0002208c       ?initialize@?$dual_state_global@PEAPEA_W@__crt_state_management@@QEAAXQEAPEA_W@Z 000000018002308c f i libucrtd:environment_initialization.obj
 0001:000220b4       ?is_valid@?$__crt_unique_heap_ptr@PEADU__crt_internal_free_policy@@@@QEBA_NXZ 00000001800230b4 f i libucrtd:environment_initialization.obj
 0001:000220bc       ?is_valid@?$__crt_unique_heap_ptr@PEA_WU__crt_internal_free_policy@@@@QEBA_NXZ 00000001800230bc f i libucrtd:environment_initialization.obj
 0001:000220c4       ?is_valid@?$__crt_unique_heap_ptr@_WU__crt_internal_free_policy@@@@QEBA_NXZ 00000001800230c4 f i libucrtd:environment_initialization.obj
 0001:000220d8       ?release@?$__crt_unique_heap_ptr@_WU__crt_internal_free_policy@@@@QEAAXXZ 00000001800230d8 f i libucrtd:environment_initialization.obj
 0001:000220f8       ?value@?$dual_state_global@PEAPEAD@__crt_state_management@@QEAAAEAPEAPEADXZ 00000001800230f8 f i libucrtd:environment_initialization.obj
 0001:000220fc       ?value@?$dual_state_global@PEAPEA_W@__crt_state_management@@QEAAAEAPEAPEA_WXZ 00000001800230fc f i libucrtd:environment_initialization.obj
 0001:00022100       __dcrt_get_or_create_narrow_environment_nolock 0000000180023100 f   libucrtd:environment_initialization.obj
 0001:0002213c       __dcrt_get_or_create_wide_environment_nolock 000000018002313c f   libucrtd:environment_initialization.obj
 0001:00022178       __dcrt_uninitialize_environments_nolock 0000000180023178 f   libucrtd:environment_initialization.obj
 0001:000221b0       __p__environ               00000001800231b0 f   libucrtd:environment_initialization.obj
 0001:000221b8       __p__wenviron              00000001800231b8 f   libucrtd:environment_initialization.obj
 0001:000221c0       _get_initial_narrow_environment 00000001800231c0 f   libucrtd:environment_initialization.obj
 0001:00022210       _get_initial_wide_environment 0000000180023210 f   libucrtd:environment_initialization.obj
 0001:00022260       _initialize_narrow_environment 0000000180023260 f   libucrtd:environment_initialization.obj
 0001:00022268       _initialize_wide_environment 0000000180023268 f   libucrtd:environment_initialization.obj
 0001:00022270       _invoke_watson_if_error    0000000180023270 f i libucrtd:environment_initialization.obj
 0001:000222b0       ??$?B$$A6AXXZ@__crt_fast_encoded_nullptr_t@@QEBAP6AXXZXZ 00000001800232b0 f i libucrtd:onexit.obj
 0001:000222d0       ??$?BP6AXXZ@__crt_fast_encoded_nullptr_t@@QEBAPEAP6AXXZXZ 00000001800232d0 f i libucrtd:onexit.obj
 0001:000222f0       ??$?RP6AXXZ@__crt_internal_free_policy@@QEBAXQEBQ6AXXZ@Z 00000001800232f0 f i libucrtd:onexit.obj
 0001:00022460       ??$__crt_fast_decode_pointer@P6AXXZ@@YAP6AXXZQ6AXXZ@Z 0000000180023460 f i libucrtd:onexit.obj
 0001:000224a0       ??$__crt_fast_decode_pointer@PEAP6AXXZ@@YAPEAP6AXXZQEAP6AXXZ@Z 00000001800234a0 f i libucrtd:onexit.obj
 0001:000224e0       ??$__crt_fast_encode_pointer@P6AHXZ@@YAP6AHXZQ6AHXZ@Z 00000001800234e0 f i libucrtd:onexit.obj
 0001:00022520       ??$__crt_fast_encode_pointer@P6AXXZ@@YAP6AXXZQ6AXXZ@Z 0000000180023520 f i libucrtd:onexit.obj
 0001:00022560       ??$__crt_fast_encode_pointer@PEAP6AXXZ@@YAPEAP6AXXZQEAP6AXXZ@Z 0000000180023560 f i libucrtd:onexit.obj
 0001:00022670       ??0?$__crt_unique_heap_ptr@P6AXXZU__crt_internal_free_policy@@@@QEAA@QEAP6AXXZ@Z 0000000180023670 f i libucrtd:onexit.obj
 0001:00022690       ??1?$__crt_unique_heap_ptr@P6AXXZU__crt_internal_free_policy@@@@QEAA@XZ 0000000180023690 f i libucrtd:onexit.obj
 0001:000226b0       ??1scoped_global_state_reset@__crt_state_management@@QEAA@XZ 00000001800236b0 f i libucrtd:onexit.obj
 0001:00022c80       ?detach@?$__crt_unique_heap_ptr@P6AXXZU__crt_internal_free_policy@@@@QEAAPEAP6AXXZXZ 0000000180023c80 f i libucrtd:onexit.obj
 0001:00022cb0       ?release@?$__crt_unique_heap_ptr@P6AXXZU__crt_internal_free_policy@@@@QEAAXXZ 0000000180023cb0 f i libucrtd:onexit.obj
 0001:00022ce0       _crt_at_quick_exit         0000000180023ce0 f   libucrtd:onexit.obj
 0001:00022d00       _crt_atexit                0000000180023d00 f   libucrtd:onexit.obj
 0001:00022d20       _execute_onexit_table      0000000180023d20 f   libucrtd:onexit.obj
 0001:00022d60       _initialize_onexit_table   0000000180023d60 f   libucrtd:onexit.obj
 0001:00022de0       _register_onexit_function  0000000180023de0 f   libucrtd:onexit.obj
 0001:00023050       ??$?BX@__crt_fast_encoded_nullptr_t@@QEBAPEAXXZ 0000000180024050 f i libucrtd:initialization.obj
 0001:00023070       ??$__crt_fast_encode_pointer@PEAX@@YAPEAXQEAX@Z 0000000180024070 f i libucrtd:initialization.obj
 0001:00023160       ?initialize@?$dual_state_global@PEAU__crt_locale_data@@@__crt_state_management@@QEAAXQEAU__crt_locale_data@@@Z 0000000180024160 f i libucrtd:initialization.obj
 0001:000231b0       __acrt_initialize          00000001800241b0 f   libucrtd:initialization.obj
 0001:000231e0       __acrt_thread_attach       00000001800241e0 f   libucrtd:initialization.obj
 0001:00023200       __acrt_thread_detach       0000000180024200 f   libucrtd:initialization.obj
 0001:00023210       __acrt_uninitialize        0000000180024210 f   libucrtd:initialization.obj
 0001:00023240       __acrt_uninitialize_critical 0000000180024240 f   libucrtd:initialization.obj
 0001:000232a0       _get_terminate             00000001800242a0 f   libucrtd:terminate.obj
 0001:000232c0       set_terminate              00000001800242c0 f   libucrtd:terminate.obj
 0001:00023300       terminate                  0000000180024300 f   libucrtd:terminate.obj
 0001:00023340       ??0_LocaleUpdate@@QEAA@QEAU__crt_locale_pointers@@@Z 0000000180024340 f i libucrtd:debug_heap.obj
 0001:00023460       ??1_LocaleUpdate@@QEAA@XZ  0000000180024460 f i libucrtd:debug_heap.obj
 0001:00023490       ?GetLocaleT@_LocaleUpdate@@QEAAPEAU__crt_locale_pointers@@XZ 0000000180024490 f i libucrtd:debug_heap.obj
 0001:00025470       _CrtCheckMemory            0000000180026470 f   libucrtd:debug_heap.obj
 0001:00025600       _CrtDoForAllClientObjects  0000000180026600 f   libucrtd:debug_heap.obj
 0001:00025730       _CrtDumpMemoryLeaks        0000000180026730 f   libucrtd:debug_heap.obj
 0001:000257f0       _CrtGetAllocHook           00000001800267f0 f   libucrtd:debug_heap.obj
 0001:00025800       _CrtGetDumpClient          0000000180026800 f   libucrtd:debug_heap.obj
 0001:00025810       _CrtIsMemoryBlock          0000000180026810 f   libucrtd:debug_heap.obj
 0001:00025950       _CrtIsValidHeapPointer     0000000180026950 f   libucrtd:debug_heap.obj
 0001:00025990       _CrtIsValidPointer         0000000180026990 f   libucrtd:debug_heap.obj
 0001:000259d0       _CrtMemCheckpoint          00000001800269d0 f   libucrtd:debug_heap.obj
 0001:00025c50       _CrtMemDifference          0000000180026c50 f   libucrtd:debug_heap.obj
 0001:00025fb0       _CrtMemDumpAllObjectsSince 0000000180026fb0 f   libucrtd:debug_heap.obj
 0001:00026010       _CrtMemDumpStatistics      0000000180027010 f   libucrtd:debug_heap.obj
 0001:000261b0       _CrtReportBlockType        00000001800271b0 f   libucrtd:debug_heap.obj
 0001:000261e0       _CrtSetAllocHook           00000001800271e0 f   libucrtd:debug_heap.obj
 0001:00026210       _CrtSetBreakAlloc          0000000180027210 f   libucrtd:debug_heap.obj
 0001:00026240       _CrtSetDbgBlockType        0000000180027240 f   libucrtd:debug_heap.obj
 0001:000262e0       _CrtSetDbgFlag             00000001800272e0 f   libucrtd:debug_heap.obj
 0001:00026440       _CrtSetDumpClient          0000000180027440 f   libucrtd:debug_heap.obj
 0001:00026470       __acrt_disable_global_locale_sync 0000000180027470 f i libucrtd:debug_heap.obj
 0001:000264a0       __acrt_enable_global_locale_sync 00000001800274a0 f i libucrtd:debug_heap.obj
 0001:000264d0       __acrt_get_locale_data_prefix 00000001800274d0 f i libucrtd:debug_heap.obj
 0001:000264f0       __acrt_locale_changed      00000001800274f0 f i libucrtd:debug_heap.obj
 0001:00026520       __p__crtBreakAlloc         0000000180027520 f   libucrtd:debug_heap.obj
 0001:00026530       __p__crtDbgFlag            0000000180027530 f   libucrtd:debug_heap.obj
 0001:00026540       _aligned_free_dbg          0000000180027540 f   libucrtd:debug_heap.obj
 0001:00026630       _aligned_malloc_dbg        0000000180027630 f   libucrtd:debug_heap.obj
 0001:00026670       _aligned_msize_dbg         0000000180027670 f   libucrtd:debug_heap.obj
 0001:00026840       _aligned_offset_malloc_dbg 0000000180027840 f   libucrtd:debug_heap.obj
 0001:00026b30       _aligned_offset_realloc_dbg 0000000180027b30 f   libucrtd:debug_heap.obj
 0001:00026fe0       _aligned_offset_recalloc_dbg 0000000180027fe0 f   libucrtd:debug_heap.obj
 0001:00027100       _aligned_realloc_dbg       0000000180028100 f   libucrtd:debug_heap.obj
 0001:00027150       _aligned_recalloc_dbg      0000000180028150 f   libucrtd:debug_heap.obj
 0001:000271b0       _calloc_dbg                00000001800281b0 f   libucrtd:debug_heap.obj
 0001:00027250       _chvalidchk_l              0000000180028250 f i libucrtd:debug_heap.obj
 0001:00027280       _expand_dbg                0000000180028280 f   libucrtd:debug_heap.obj
 0001:000273b0       _free_dbg                  00000001800283b0 f   libucrtd:debug_heap.obj
 0001:00027420       _invoke_watson_if_oneof    0000000180028420 f i libucrtd:debug_heap.obj
 0001:00027480       _ischartype_l              0000000180028480 f i libucrtd:debug_heap.obj
 0001:00027510       _malloc_dbg                0000000180028510 f   libucrtd:debug_heap.obj
 0001:00027550       _msize_dbg                 0000000180028550 f   libucrtd:debug_heap.obj
 0001:000276f0       _realloc_dbg               00000001800286f0 f   libucrtd:debug_heap.obj
 0001:00027760       _recalloc_dbg              0000000180028760 f   libucrtd:debug_heap.obj
 0001:00027d30       strcpy_s                   0000000180028d30 f   libucrtd:strcpy_s.obj
 0001:00027d70       strcmp                     0000000180028d70 f   libucrtd:strcmp.obj
 0001:00027df0       strlen                     0000000180028df0 f   libucrtd:strlen.obj
 0001:00027ea0       _set_abort_behavior        0000000180028ea0 f   libucrtd:abort.obj
 0001:00027ee0       abort                      0000000180028ee0 f   libucrtd:abort.obj
 0001:00027f60       ??$__crt_fast_decode_pointer@P6AXPEB_W00I_K@Z@@YAP6AXPEB_W00I_K@ZQ6AX000I1@Z@Z 0000000180028f60 f i libucrtd:invalid_parameter.obj
 0001:00027fa0       ??$__crt_fast_encode_pointer@P6AXPEB_W00I_K@Z@@YAP6AXPEB_W00I_K@ZQ6AX000I1@Z@Z 0000000180028fa0 f i libucrtd:invalid_parameter.obj
 0001:00027fe0       ??$initialize_from_array@$$BY00Q6AXPEB_W00I_K@Z@?$dual_state_global@P6AXPEB_W00I_K@Z@__crt_state_management@@QEAAXAEAY00Q6AXPEB_W00I_K@Z@Z 0000000180028fe0 f i libucrtd:invalid_parameter.obj
 0001:000280e0       ?dangerous_get_state_array@?$dual_state_global@P6AXPEB_W00I_K@Z@__crt_state_management@@QEAAPEAP6AXPEB_W00I_K@ZXZ 00000001800290e0 f i libucrtd:invalid_parameter.obj
 0001:000280f0       ?value@?$dual_state_global@P6AXPEB_W00I_K@Z@__crt_state_management@@QEAAAEAP6AXPEB_W00I_K@ZXZ 00000001800290f0 f i libucrtd:invalid_parameter.obj
 0001:00028110       __acrt_call_reportfault    0000000180029110 f   libucrtd:invalid_parameter.obj
 0001:00028240       __acrt_initialize_invalid_parameter_handler 0000000180029240 f   libucrtd:invalid_parameter.obj
 0001:00028270       _get_invalid_parameter_handler 0000000180029270 f   libucrtd:invalid_parameter.obj
 0001:00028290       _get_thread_local_invalid_parameter_handler 0000000180029290 f   libucrtd:invalid_parameter.obj
 0001:000282c0       _invalid_parameter         00000001800292c0 f   libucrtd:invalid_parameter.obj
 0001:000283c0       _invalid_parameter_noinfo  00000001800293c0 f   libucrtd:invalid_parameter.obj
 0001:000283f0       _invalid_parameter_noinfo_noreturn 00000001800293f0 f   libucrtd:invalid_parameter.obj
 0001:00028430       _invoke_watson             0000000180029430 f   libucrtd:invalid_parameter.obj
 0001:00028490       _set_invalid_parameter_handler 0000000180029490 f   libucrtd:invalid_parameter.obj
 0001:000284e0       _set_thread_local_invalid_parameter_handler 00000001800294e0 f   libucrtd:invalid_parameter.obj
 0001:00028520       ??$?0AEBV?$stream_output_adapter@D@__crt_stdio_output@@AEB_KAEBQEBDAEBQEAU__crt_locale_pointers@@AEBQEAD@?$format_validation_base@DV?$stream_output_adapter@D@__crt_stdio_output@@@__crt_stdio_output@@IEAA@AEBV?$stream_output_adapter@D@1@AEB_KAEBQEBDAEBQEAU__crt_locale_pointers@@AEBQEAD@Z 0000000180029520 f i libucrtd:output.obj
 0001:00028570       ??$?0AEBV?$stream_output_adapter@D@__crt_stdio_output@@AEB_KAEBQEBDAEBQEAU__crt_locale_pointers@@AEBQEAD@?$positional_parameter_base@DV?$stream_output_adapter@D@__crt_stdio_output@@@__crt_stdio_output@@IEAA@AEBV?$stream_output_adapter@D@1@AEB_KAEBQEBDAEBQEAU__crt_locale_pointers@@AEBQEAD@Z 0000000180029570 f i libucrtd:output.obj
 0001:00028610       ??$?0AEBV?$stream_output_adapter@D@__crt_stdio_output@@AEB_KAEBQEBDAEBQEAU__crt_locale_pointers@@AEBQEAD@?$standard_base@DV?$stream_output_adapter@D@__crt_stdio_output@@@__crt_stdio_output@@IEAA@AEBV?$stream_output_adapter@D@1@AEB_KAEBQEBDAEBQEAU__crt_locale_pointers@@AEBQEAD@Z 0000000180029610 f i libucrtd:output.obj
 0001:00028680       ??$?0AEBV?$stream_output_adapter@_W@__crt_stdio_output@@AEB_KAEBQEB_WAEBQEAU__crt_locale_pointers@@AEBQEAD@?$format_validation_base@_WV?$stream_output_adapter@_W@__crt_stdio_output@@@__crt_stdio_output@@IEAA@AEBV?$stream_output_adapter@_W@1@AEB_KAEBQEB_WAEBQEAU__crt_locale_pointers@@AEBQEAD@Z 0000000180029680 f i libucrtd:output.obj
 0001:000286d0       ??$?0AEBV?$stream_output_adapter@_W@__crt_stdio_output@@AEB_KAEBQEB_WAEBQEAU__crt_locale_pointers@@AEBQEAD@?$positional_parameter_base@_WV?$stream_output_adapter@_W@__crt_stdio_output@@@__crt_stdio_output@@IEAA@AEBV?$stream_output_adapter@_W@1@AEB_KAEBQEB_WAEBQEAU__crt_locale_pointers@@AEBQEAD@Z 00000001800296d0 f i libucrtd:output.obj
 0001:00028770       ??$?0AEBV?$stream_output_adapter@_W@__crt_stdio_output@@AEB_KAEBQEB_WAEBQEAU__crt_locale_pointers@@AEBQEAD@?$standard_base@_WV?$stream_output_adapter@_W@__crt_stdio_output@@@__crt_stdio_output@@IEAA@AEBV?$stream_output_adapter@_W@1@AEB_KAEBQEB_WAEBQEAU__crt_locale_pointers@@AEBQEAD@Z 0000000180029770 f i libucrtd:output.obj
 0001:000287e0       ??$?0AEBV?$string_output_adapter@D@__crt_stdio_output@@AEB_KAEBQEBDAEBQEAU__crt_locale_pointers@@AEBQEAD@?$format_validation_base@DV?$string_output_adapter@D@__crt_stdio_output@@@__crt_stdio_output@@IEAA@AEBV?$string_output_adapter@D@1@AEB_KAEBQEBDAEBQEAU__crt_locale_pointers@@AEBQEAD@Z 00000001800297e0 f i libucrtd:output.obj
 0001:00028830       ??$?0AEBV?$string_output_adapter@D@__crt_stdio_output@@AEB_KAEBQEBDAEBQEAU__crt_locale_pointers@@AEBQEAD@?$positional_parameter_base@DV?$string_output_adapter@D@__crt_stdio_output@@@__crt_stdio_output@@IEAA@AEBV?$string_output_adapter@D@1@AEB_KAEBQEBDAEBQEAU__crt_locale_pointers@@AEBQEAD@Z 0000000180029830 f i libucrtd:output.obj
 0001:000288d0       ??$?0AEBV?$string_output_adapter@D@__crt_stdio_output@@AEB_KAEBQEBDAEBQEAU__crt_locale_pointers@@AEBQEAD@?$standard_base@DV?$string_output_adapter@D@__crt_stdio_output@@@__crt_stdio_output@@IEAA@AEBV?$string_output_adapter@D@1@AEB_KAEBQEBDAEBQEAU__crt_locale_pointers@@AEBQEAD@Z 00000001800298d0 f i libucrtd:output.obj
 0001:00028940       ??$?0AEBV?$string_output_adapter@_W@__crt_stdio_output@@AEB_KAEBQEB_WAEBQEAU__crt_locale_pointers@@AEBQEAD@?$format_validation_base@_WV?$string_output_adapter@_W@__crt_stdio_output@@@__crt_stdio_output@@IEAA@AEBV?$string_output_adapter@_W@1@AEB_KAEBQEB_WAEBQEAU__crt_locale_pointers@@AEBQEAD@Z 0000000180029940 f i libucrtd:output.obj
 0001:00028990       ??$?0AEBV?$string_output_adapter@_W@__crt_stdio_output@@AEB_KAEBQEB_WAEBQEAU__crt_locale_pointers@@AEBQEAD@?$positional_parameter_base@_WV?$string_output_adapter@_W@__crt_stdio_output@@@__crt_stdio_output@@IEAA@AEBV?$string_output_adapter@_W@1@AEB_KAEBQEB_WAEBQEAU__crt_locale_pointers@@AEBQEAD@Z 0000000180029990 f i libucrtd:output.obj
 0001:00028a30       ??$?0AEBV?$string_output_adapter@_W@__crt_stdio_output@@AEB_KAEBQEB_WAEBQEAU__crt_locale_pointers@@AEBQEAD@?$standard_base@_WV?$string_output_adapter@_W@__crt_stdio_output@@@__crt_stdio_output@@IEAA@AEBV?$string_output_adapter@_W@1@AEB_KAEBQEB_WAEBQEAU__crt_locale_pointers@@AEBQEAD@Z 0000000180029a30 f i libucrtd:output.obj
 0001:0002c920       ??$count@D@formatting_buffer@__crt_stdio_output@@QEBA_KXZ 000000018002d920 f i libucrtd:output.obj
 0001:0002c970       ??$count@_W@formatting_buffer@__crt_stdio_output@@QEBA_KXZ 000000018002d970 f i libucrtd:output.obj
 0001:0002c9c0       ??$data@D@formatting_buffer@__crt_stdio_output@@QEAAPEADXZ 000000018002d9c0 f i libucrtd:output.obj
 0001:0002ca10       ??$data@_W@formatting_buffer@__crt_stdio_output@@QEAAPEA_WXZ 000000018002da10 f i libucrtd:output.obj
 0001:0002ca60       ??$ensure_buffer_is_big_enough@D@formatting_buffer@__crt_stdio_output@@QEAA_N_K@Z 000000018002da60 f i libucrtd:output.obj
 0001:0002cb90       ??$ensure_buffer_is_big_enough@_W@formatting_buffer@__crt_stdio_output@@QEAA_N_K@Z 000000018002db90 f i libucrtd:output.obj
 0001:0002ccc0       ??$extract_argument_from_va_list@C_J@?$positional_parameter_base@DV?$stream_output_adapter@D@__crt_stdio_output@@@__crt_stdio_output@@IEAA_NAEA_J@Z 000000018002dcc0 f i libucrtd:output.obj
 0001:0002ce40       ??$extract_argument_from_va_list@C_J@?$positional_parameter_base@DV?$string_output_adapter@D@__crt_stdio_output@@@__crt_stdio_output@@IEAA_NAEA_J@Z 000000018002de40 f i libucrtd:output.obj
 0001:0002cfc0       ??$extract_argument_from_va_list@C_J@?$positional_parameter_base@_WV?$stream_output_adapter@_W@__crt_stdio_output@@@__crt_stdio_output@@IEAA_NAEA_J@Z 000000018002dfc0 f i libucrtd:output.obj
 0001:0002d140       ??$extract_argument_from_va_list@C_J@?$positional_parameter_base@_WV?$string_output_adapter@_W@__crt_stdio_output@@@__crt_stdio_output@@IEAA_NAEA_J@Z 000000018002e140 f i libucrtd:output.obj
 0001:0002d2c0       ??$extract_argument_from_va_list@C_J@?$standard_base@DV?$stream_output_adapter@D@__crt_stdio_output@@@__crt_stdio_output@@IEAA_NAEA_J@Z 000000018002e2c0 f i libucrtd:output.obj
 0001:0002d300       ??$extract_argument_from_va_list@C_J@?$standard_base@DV?$string_output_adapter@D@__crt_stdio_output@@@__crt_stdio_output@@IEAA_NAEA_J@Z 000000018002e300 f i libucrtd:output.obj
 0001:0002d340       ??$extract_argument_from_va_list@C_J@?$standard_base@_WV?$stream_output_adapter@_W@__crt_stdio_output@@@__crt_stdio_output@@IEAA_NAEA_J@Z 000000018002e340 f i libucrtd:output.obj
 0001:0002d380       ??$extract_argument_from_va_list@C_J@?$standard_base@_WV?$string_output_adapter@_W@__crt_stdio_output@@@__crt_stdio_output@@IEAA_NAEA_J@Z 000000018002e380 f i libucrtd:output.obj
 0001:0002d3c0       ??$extract_argument_from_va_list@E_J@?$positional_parameter_base@DV?$stream_output_adapter@D@__crt_stdio_output@@@__crt_stdio_output@@IEAA_NAEA_J@Z 000000018002e3c0 f i libucrtd:output.obj
 0001:0002d540       ??$extract_argument_from_va_list@E_J@?$positional_parameter_base@DV?$string_output_adapter@D@__crt_stdio_output@@@__crt_stdio_output@@IEAA_NAEA_J@Z 000000018002e540 f i libucrtd:output.obj
 0001:0002d6c0       ??$extract_argument_from_va_list@E_J@?$positional_parameter_base@_WV?$stream_output_adapter@_W@__crt_stdio_output@@@__crt_stdio_output@@IEAA_NAEA_J@Z 000000018002e6c0 f i libucrtd:output.obj
 0001:0002d840       ??$extract_argument_from_va_list@E_J@?$positional_parameter_base@_WV?$string_output_adapter@_W@__crt_stdio_output@@@__crt_stdio_output@@IEAA_NAEA_J@Z 000000018002e840 f i libucrtd:output.obj
 0001:0002d9c0       ??$extract_argument_from_va_list@E_J@?$standard_base@DV?$stream_output_adapter@D@__crt_stdio_output@@@__crt_stdio_output@@IEAA_NAEA_J@Z 000000018002e9c0 f i libucrtd:output.obj
 0001:0002da00       ??$extract_argument_from_va_list@E_J@?$standard_base@DV?$string_output_adapter@D@__crt_stdio_output@@@__crt_stdio_output@@IEAA_NAEA_J@Z 000000018002ea00 f i libucrtd:output.obj
 0001:0002da40       ??$extract_argument_from_va_list@E_J@?$standard_base@_WV?$stream_output_adapter@_W@__crt_stdio_output@@@__crt_stdio_output@@IEAA_NAEA_J@Z 000000018002ea40 f i libucrtd:output.obj
 0001:0002da80       ??$extract_argument_from_va_list@E_J@?$standard_base@_WV?$string_output_adapter@_W@__crt_stdio_output@@@__crt_stdio_output@@IEAA_NAEA_J@Z 000000018002ea80 f i libucrtd:output.obj
 0001:0002dac0       ??$extract_argument_from_va_list@F_J@?$positional_parameter_base@DV?$stream_output_adapter@D@__crt_stdio_output@@@__crt_stdio_output@@IEAA_NAEA_J@Z 000000018002eac0 f i libucrtd:output.obj
 0001:0002dc40       ??$extract_argument_from_va_list@F_J@?$positional_parameter_base@DV?$string_output_adapter@D@__crt_stdio_output@@@__crt_stdio_output@@IEAA_NAEA_J@Z 000000018002ec40 f i libucrtd:output.obj
 0001:0002ddc0       ??$extract_argument_from_va_list@F_J@?$positional_parameter_base@_WV?$stream_output_adapter@_W@__crt_stdio_output@@@__crt_stdio_output@@IEAA_NAEA_J@Z 000000018002edc0 f i libucrtd:output.obj
 0001:0002df40       ??$extract_argument_from_va_list@F_J@?$positional_parameter_base@_WV?$string_output_adapter@_W@__crt_stdio_output@@@__crt_stdio_output@@IEAA_NAEA_J@Z 000000018002ef40 f i libucrtd:output.obj
 0001:0002e0c0       ??$extract_argument_from_va_list@F_J@?$standard_base@DV?$stream_output_adapter@D@__crt_stdio_output@@@__crt_stdio_output@@IEAA_NAEA_J@Z 000000018002f0c0 f i libucrtd:output.obj
 0001:0002e100       ??$extract_argument_from_va_list@F_J@?$standard_base@DV?$string_output_adapter@D@__crt_stdio_output@@@__crt_stdio_output@@IEAA_NAEA_J@Z 000000018002f100 f i libucrtd:output.obj
 0001:0002e140       ??$extract_argument_from_va_list@F_J@?$standard_base@_WV?$stream_output_adapter@_W@__crt_stdio_output@@@__crt_stdio_output@@IEAA_NAEA_J@Z 000000018002f140 f i libucrtd:output.obj
 0001:0002e180       ??$extract_argument_from_va_list@F_J@?$standard_base@_WV?$string_output_adapter@_W@__crt_stdio_output@@@__crt_stdio_output@@IEAA_NAEA_J@Z 000000018002f180 f i libucrtd:output.obj
 0001:0002e1c0       ??$extract_argument_from_va_list@GD@?$positional_parameter_base@DV?$stream_output_adapter@D@__crt_stdio_output@@@__crt_stdio_output@@IEAA_NAEAD@Z 000000018002f1c0 f i libucrtd:output.obj
 0001:0002e340       ??$extract_argument_from_va_list@GD@?$positional_parameter_base@DV?$string_output_adapter@D@__crt_stdio_output@@@__crt_stdio_output@@IEAA_NAEAD@Z 000000018002f340 f i libucrtd:output.obj
 0001:0002e4c0       ??$extract_argument_from_va_list@GD@?$standard_base@DV?$stream_output_adapter@D@__crt_stdio_output@@@__crt_stdio_output@@IEAA_NAEAD@Z 000000018002f4c0 f i libucrtd:output.obj
 0001:0002e4f0       ??$extract_argument_from_va_list@GD@?$standard_base@DV?$string_output_adapter@D@__crt_stdio_output@@@__crt_stdio_output@@IEAA_NAEAD@Z 000000018002f4f0 f i libucrtd:output.obj
 0001:0002e520       ??$extract_argument_from_va_list@G_J@?$positional_parameter_base@DV?$stream_output_adapter@D@__crt_stdio_output@@@__crt_stdio_output@@IEAA_NAEA_J@Z 000000018002f520 f i libucrtd:output.obj
 0001:0002e6a0       ??$extract_argument_from_va_list@G_J@?$positional_parameter_base@DV?$string_output_adapter@D@__crt_stdio_output@@@__crt_stdio_output@@IEAA_NAEA_J@Z 000000018002f6a0 f i libucrtd:output.obj
 0001:0002e820       ??$extract_argument_from_va_list@G_J@?$positional_parameter_base@_WV?$stream_output_adapter@_W@__crt_stdio_output@@@__crt_stdio_output@@IEAA_NAEA_J@Z 000000018002f820 f i libucrtd:output.obj
 0001:0002e9a0       ??$extract_argument_from_va_list@G_J@?$positional_parameter_base@_WV?$string_output_adapter@_W@__crt_stdio_output@@@__crt_stdio_output@@IEAA_NAEA_J@Z 000000018002f9a0 f i libucrtd:output.obj
 0001:0002eb20       ??$extract_argument_from_va_list@G_J@?$standard_base@DV?$stream_output_adapter@D@__crt_stdio_output@@@__crt_stdio_output@@IEAA_NAEA_J@Z 000000018002fb20 f i libucrtd:output.obj
 0001:0002eb60       ??$extract_argument_from_va_list@G_J@?$standard_base@DV?$string_output_adapter@D@__crt_stdio_output@@@__crt_stdio_output@@IEAA_NAEA_J@Z 000000018002fb60 f i libucrtd:output.obj
 0001:0002eba0       ??$extract_argument_from_va_list@G_J@?$standard_base@_WV?$stream_output_adapter@_W@__crt_stdio_output@@@__crt_stdio_output@@IEAA_NAEA_J@Z 000000018002fba0 f i libucrtd:output.obj
 0001:0002ebe0       ??$extract_argument_from_va_list@G_J@?$standard_base@_WV?$string_output_adapter@_W@__crt_stdio_output@@@__crt_stdio_output@@IEAA_NAEA_J@Z 000000018002fbe0 f i libucrtd:output.obj
 0001:0002ec20       ??$extract_argument_from_va_list@H_J@?$positional_parameter_base@DV?$stream_output_adapter@D@__crt_stdio_output@@@__crt_stdio_output@@IEAA_NAEA_J@Z 000000018002fc20 f i libucrtd:output.obj
 0001:0002eda0       ??$extract_argument_from_va_list@H_J@?$positional_parameter_base@DV?$string_output_adapter@D@__crt_stdio_output@@@__crt_stdio_output@@IEAA_NAEA_J@Z 000000018002fda0 f i libucrtd:output.obj
 0001:0002ef20       ??$extract_argument_from_va_list@H_J@?$positional_parameter_base@_WV?$stream_output_adapter@_W@__crt_stdio_output@@@__crt_stdio_output@@IEAA_NAEA_J@Z 000000018002ff20 f i libucrtd:output.obj
 0001:0002f0a0       ??$extract_argument_from_va_list@H_J@?$positional_parameter_base@_WV?$string_output_adapter@_W@__crt_stdio_output@@@__crt_stdio_output@@IEAA_NAEA_J@Z 00000001800300a0 f i libucrtd:output.obj
 0001:0002f220       ??$extract_argument_from_va_list@H_J@?$standard_base@DV?$stream_output_adapter@D@__crt_stdio_output@@@__crt_stdio_output@@IEAA_NAEA_J@Z 0000000180030220 f i libucrtd:output.obj
 0001:0002f250       ??$extract_argument_from_va_list@H_J@?$standard_base@DV?$string_output_adapter@D@__crt_stdio_output@@@__crt_stdio_output@@IEAA_NAEA_J@Z 0000000180030250 f i libucrtd:output.obj
 0001:0002f280       ??$extract_argument_from_va_list@H_J@?$standard_base@_WV?$stream_output_adapter@_W@__crt_stdio_output@@@__crt_stdio_output@@IEAA_NAEA_J@Z 0000000180030280 f i libucrtd:output.obj
 0001:0002f2b0       ??$extract_argument_from_va_list@H_J@?$standard_base@_WV?$string_output_adapter@_W@__crt_stdio_output@@@__crt_stdio_output@@IEAA_NAEA_J@Z 00000001800302b0 f i libucrtd:output.obj
 0001:0002f2e0       ??$extract_argument_from_va_list@I_J@?$positional_parameter_base@DV?$stream_output_adapter@D@__crt_stdio_output@@@__crt_stdio_output@@IEAA_NAEA_J@Z 00000001800302e0 f i libucrtd:output.obj
 0001:0002f460       ??$extract_argument_from_va_list@I_J@?$positional_parameter_base@DV?$string_output_adapter@D@__crt_stdio_output@@@__crt_stdio_output@@IEAA_NAEA_J@Z 0000000180030460 f i libucrtd:output.obj
 0001:0002f5e0       ??$extract_argument_from_va_list@I_J@?$positional_parameter_base@_WV?$stream_output_adapter@_W@__crt_stdio_output@@@__crt_stdio_output@@IEAA_NAEA_J@Z 00000001800305e0 f i libucrtd:output.obj
 0001:0002f760       ??$extract_argument_from_va_list@I_J@?$positional_parameter_base@_WV?$string_output_adapter@_W@__crt_stdio_output@@@__crt_stdio_output@@IEAA_NAEA_J@Z 0000000180030760 f i libucrtd:output.obj
 0001:0002f8e0       ??$extract_argument_from_va_list@I_J@?$standard_base@DV?$stream_output_adapter@D@__crt_stdio_output@@@__crt_stdio_output@@IEAA_NAEA_J@Z 00000001800308e0 f i libucrtd:output.obj
 0001:0002f910       ??$extract_argument_from_va_list@I_J@?$standard_base@DV?$string_output_adapter@D@__crt_stdio_output@@@__crt_stdio_output@@IEAA_NAEA_J@Z 0000000180030910 f i libucrtd:output.obj
 0001:0002f940       ??$extract_argument_from_va_list@I_J@?$standard_base@_WV?$stream_output_adapter@_W@__crt_stdio_output@@@__crt_stdio_output@@IEAA_NAEA_J@Z 0000000180030940 f i libucrtd:output.obj
 0001:0002f970       ??$extract_argument_from_va_list@I_J@?$standard_base@_WV?$string_output_adapter@_W@__crt_stdio_output@@@__crt_stdio_output@@IEAA_NAEA_J@Z 0000000180030970 f i libucrtd:output.obj
 0001:0002f9a0       ??$extract_argument_from_va_list@PEADPEAD@?$positional_parameter_base@DV?$stream_output_adapter@D@__crt_stdio_output@@@__crt_stdio_output@@IEAA_NAEAPEAD@Z 00000001800309a0 f i libucrtd:output.obj
 0001:0002fb20       ??$extract_argument_from_va_list@PEADPEAD@?$positional_parameter_base@DV?$string_output_adapter@D@__crt_stdio_output@@@__crt_stdio_output@@IEAA_NAEAPEAD@Z 0000000180030b20 f i libucrtd:output.obj
 0001:0002fca0       ??$extract_argument_from_va_list@PEADPEAD@?$positional_parameter_base@_WV?$stream_output_adapter@_W@__crt_stdio_output@@@__crt_stdio_output@@IEAA_NAEAPEAD@Z 0000000180030ca0 f i libucrtd:output.obj
 0001:0002fe20       ??$extract_argument_from_va_list@PEADPEAD@?$positional_parameter_base@_WV?$string_output_adapter@_W@__crt_stdio_output@@@__crt_stdio_output@@IEAA_NAEAPEAD@Z 0000000180030e20 f i libucrtd:output.obj
 0001:0002ffa0       ??$extract_argument_from_va_list@PEADPEAD@?$standard_base@DV?$stream_output_adapter@D@__crt_stdio_output@@@__crt_stdio_output@@IEAA_NAEAPEAD@Z 0000000180030fa0 f i libucrtd:output.obj
 0001:0002ffd0       ??$extract_argument_from_va_list@PEADPEAD@?$standard_base@DV?$string_output_adapter@D@__crt_stdio_output@@@__crt_stdio_output@@IEAA_NAEAPEAD@Z 0000000180030fd0 f i libucrtd:output.obj
 0001:00030000       ??$extract_argument_from_va_list@PEADPEAD@?$standard_base@_WV?$stream_output_adapter@_W@__crt_stdio_output@@@__crt_stdio_output@@IEAA_NAEAPEAD@Z 0000000180031000 f i libucrtd:output.obj
 0001:00030030       ??$extract_argument_from_va_list@PEADPEAD@?$standard_base@_WV?$string_output_adapter@_W@__crt_stdio_output@@@__crt_stdio_output@@IEAA_NAEAPEAD@Z 0000000180031030 f i libucrtd:output.obj
 0001:00030060       ??$extract_argument_from_va_list@PEAUansi_string@?1??type_case_Z@?$output_processor@DV?$stream_output_adapter@D@__crt_stdio_output@@V?$format_validation_base@DV?$stream_output_adapter@D@__crt_stdio_output@@@2@@__crt_stdio_output@@AEAA_NXZ@PEAU1?1??234@AEAA_NXZ@@?$standard_base@DV?$stream_output_adapter@D@__crt_stdio_output@@@__crt_stdio_output@@IEAA_NAEAPEAUansi_string@?1??type_case_Z@?$output_processor@DV?$stream_output_adapter@D@__crt_stdio_output@@V?$format_validation_base@DV?$stream_output_adapter@D@__crt_stdio_output@@@2@@1@AEAA_NXZ@@Z 0000000180031060 f i libucrtd:output.obj
 0001:00030090       ??$extract_argument_from_va_list@PEAUansi_string@?1??type_case_Z@?$output_processor@DV?$stream_output_adapter@D@__crt_stdio_output@@V?$positional_parameter_base@DV?$stream_output_adapter@D@__crt_stdio_output@@@2@@__crt_stdio_output@@AEAA_NXZ@PEAU1?1??234@AEAA_NXZ@@?$positional_parameter_base@DV?$stream_output_adapter@D@__crt_stdio_output@@@__crt_stdio_output@@IEAA_NAEAPEAUansi_string@?1??type_case_Z@?$output_processor@DV?$stream_output_adapter@D@__crt_stdio_output@@V?$positional_parameter_base@DV?$stream_output_adapter@D@__crt_stdio_output@@@2@@1@AEAA_NXZ@@Z 0000000180031090 f i libucrtd:output.obj
 0001:00030210       ??$extract_argument_from_va_list@PEAUansi_string@?1??type_case_Z@?$output_processor@DV?$stream_output_adapter@D@__crt_stdio_output@@V?$positional_parameter_base@DV?$stream_output_adapter@D@__crt_stdio_output@@@2@@__crt_stdio_output@@AEAA_NXZ@PEAU1?1??234@AEAA_NXZ@@?$standard_base@DV?$stream_output_adapter@D@__crt_stdio_output@@@__crt_stdio_output@@IEAA_NAEAPEAUansi_string@?1??type_case_Z@?$output_processor@DV?$stream_output_adapter@D@__crt_stdio_output@@V?$positional_parameter_base@DV?$stream_output_adapter@D@__crt_stdio_output@@@2@@1@AEAA_NXZ@@Z 0000000180031210 f i libucrtd:output.obj
 0001:00030240       ??$extract_argument_from_va_list@PEAUansi_string@?1??type_case_Z@?$output_processor@DV?$stream_output_adapter@D@__crt_stdio_output@@V?$standard_base@DV?$stream_output_adapter@D@__crt_stdio_output@@@2@@__crt_stdio_output@@AEAA_NXZ@PEAU1?1??234@AEAA_NXZ@@?$standard_base@DV?$stream_output_adapter@D@__crt_stdio_output@@@__crt_stdio_output@@IEAA_NAEAPEAUansi_string@?1??type_case_Z@?$output_processor@DV?$stream_output_adapter@D@__crt_stdio_output@@V?$standard_base@DV?$stream_output_adapter@D@__crt_stdio_output@@@2@@1@AEAA_NXZ@@Z 0000000180031240 f i libucrtd:output.obj
 0001:00030270       ??$extract_argument_from_va_list@PEAUansi_string@?1??type_case_Z@?$output_processor@DV?$string_output_adapter@D@__crt_stdio_output@@V?$format_validation_base@DV?$string_output_adapter@D@__crt_stdio_output@@@2@@__crt_stdio_output@@AEAA_NXZ@PEAU1?1??234@AEAA_NXZ@@?$standard_base@DV?$string_output_adapter@D@__crt_stdio_output@@@__crt_stdio_output@@IEAA_NAEAPEAUansi_string@?1??type_case_Z@?$output_processor@DV?$string_output_adapter@D@__crt_stdio_output@@V?$format_validation_base@DV?$string_output_adapter@D@__crt_stdio_output@@@2@@1@AEAA_NXZ@@Z 0000000180031270 f i libucrtd:output.obj
 0001:000302a0       ??$extract_argument_from_va_list@PEAUansi_string@?1??type_case_Z@?$output_processor@DV?$string_output_adapter@D@__crt_stdio_output@@V?$positional_parameter_base@DV?$string_output_adapter@D@__crt_stdio_output@@@2@@__crt_stdio_output@@AEAA_NXZ@PEAU1?1??234@AEAA_NXZ@@?$positional_parameter_base@DV?$string_output_adapter@D@__crt_stdio_output@@@__crt_stdio_output@@IEAA_NAEAPEAUansi_string@?1??type_case_Z@?$output_processor@DV?$string_output_adapter@D@__crt_stdio_output@@V?$positional_parameter_base@DV?$string_output_adapter@D@__crt_stdio_output@@@2@@1@AEAA_NXZ@@Z 00000001800312a0 f i libucrtd:output.obj
 0001:00030420       ??$extract_argument_from_va_list@PEAUansi_string@?1??type_case_Z@?$output_processor@DV?$string_output_adapter@D@__crt_stdio_output@@V?$positional_parameter_base@DV?$string_output_adapter@D@__crt_stdio_output@@@2@@__crt_stdio_output@@AEAA_NXZ@PEAU1?1??234@AEAA_NXZ@@?$standard_base@DV?$string_output_adapter@D@__crt_stdio_output@@@__crt_stdio_output@@IEAA_NAEAPEAUansi_string@?1??type_case_Z@?$output_processor@DV?$string_output_adapter@D@__crt_stdio_output@@V?$positional_parameter_base@DV?$string_output_adapter@D@__crt_stdio_output@@@2@@1@AEAA_NXZ@@Z 0000000180031420 f i libucrtd:output.obj
 0001:00030450       ??$extract_argument_from_va_list@PEAUansi_string@?1??type_case_Z@?$output_processor@DV?$string_output_adapter@D@__crt_stdio_output@@V?$standard_base@DV?$string_output_adapter@D@__crt_stdio_output@@@2@@__crt_stdio_output@@AEAA_NXZ@PEAU1?1??234@AEAA_NXZ@@?$standard_base@DV?$string_output_adapter@D@__crt_stdio_output@@@__crt_stdio_output@@IEAA_NAEAPEAUansi_string@?1??type_case_Z@?$output_processor@DV?$string_output_adapter@D@__crt_stdio_output@@V?$standard_base@DV?$string_output_adapter@D@__crt_stdio_output@@@2@@1@AEAA_NXZ@@Z 0000000180031450 f i libucrtd:output.obj
 0001:00030480       ??$extract_argument_from_va_list@PEAUansi_string@?1??type_case_Z@?$output_processor@_WV?$stream_output_adapter@_W@__crt_stdio_output@@V?$format_validation_base@_WV?$stream_output_adapter@_W@__crt_stdio_output@@@2@@__crt_stdio_output@@AEAA_NXZ@PEAU1?1??234@AEAA_NXZ@@?$standard_base@_WV?$stream_output_adapter@_W@__crt_stdio_output@@@__crt_stdio_output@@IEAA_NAEAPEAUansi_string@?1??type_case_Z@?$output_processor@_WV?$stream_output_adapter@_W@__crt_stdio_output@@V?$format_validation_base@_WV?$stream_output_adapter@_W@__crt_stdio_output@@@2@@1@AEAA_NXZ@@Z 0000000180031480 f i libucrtd:output.obj
 0001:000304b0       ??$extract_argument_from_va_list@PEAUansi_string@?1??type_case_Z@?$output_processor@_WV?$stream_output_adapter@_W@__crt_stdio_output@@V?$positional_parameter_base@_WV?$stream_output_adapter@_W@__crt_stdio_output@@@2@@__crt_stdio_output@@AEAA_NXZ@PEAU1?1??234@AEAA_NXZ@@?$positional_parameter_base@_WV?$stream_output_adapter@_W@__crt_stdio_output@@@__crt_stdio_output@@IEAA_NAEAPEAUansi_string@?1??type_case_Z@?$output_processor@_WV?$stream_output_adapter@_W@__crt_stdio_output@@V?$positional_parameter_base@_WV?$stream_output_adapter@_W@__crt_stdio_output@@@2@@1@AEAA_NXZ@@Z 00000001800314b0 f i libucrtd:output.obj
 0001:00030630       ??$extract_argument_from_va_list@PEAUansi_string@?1??type_case_Z@?$output_processor@_WV?$stream_output_adapter@_W@__crt_stdio_output@@V?$positional_parameter_base@_WV?$stream_output_adapter@_W@__crt_stdio_output@@@2@@__crt_stdio_output@@AEAA_NXZ@PEAU1?1??234@AEAA_NXZ@@?$standard_base@_WV?$stream_output_adapter@_W@__crt_stdio_output@@@__crt_stdio_output@@IEAA_NAEAPEAUansi_string@?1??type_case_Z@?$output_processor@_WV?$stream_output_adapter@_W@__crt_stdio_output@@V?$positional_parameter_base@_WV?$stream_output_adapter@_W@__crt_stdio_output@@@2@@1@AEAA_NXZ@@Z 0000000180031630 f i libucrtd:output.obj
 0001:00030660       ??$extract_argument_from_va_list@PEAUansi_string@?1??type_case_Z@?$output_processor@_WV?$stream_output_adapter@_W@__crt_stdio_output@@V?$standard_base@_WV?$stream_output_adapter@_W@__crt_stdio_output@@@2@@__crt_stdio_output@@AEAA_NXZ@PEAU1?1??234@AEAA_NXZ@@?$standard_base@_WV?$stream_output_adapter@_W@__crt_stdio_output@@@__crt_stdio_output@@IEAA_NAEAPEAUansi_string@?1??type_case_Z@?$output_processor@_WV?$stream_output_adapter@_W@__crt_stdio_output@@V?$standard_base@_WV?$stream_output_adapter@_W@__crt_stdio_output@@@2@@1@AEAA_NXZ@@Z 0000000180031660 f i libucrtd:output.obj
 0001:00030690       ??$extract_argument_from_va_list@PEAUansi_string@?1??type_case_Z@?$output_processor@_WV?$string_output_adapter@_W@__crt_stdio_output@@V?$format_validation_base@_WV?$string_output_adapter@_W@__crt_stdio_output@@@2@@__crt_stdio_output@@AEAA_NXZ@PEAU1?1??234@AEAA_NXZ@@?$standard_base@_WV?$string_output_adapter@_W@__crt_stdio_output@@@__crt_stdio_output@@IEAA_NAEAPEAUansi_string@?1??type_case_Z@?$output_processor@_WV?$string_output_adapter@_W@__crt_stdio_output@@V?$format_validation_base@_WV?$string_output_adapter@_W@__crt_stdio_output@@@2@@1@AEAA_NXZ@@Z 0000000180031690 f i libucrtd:output.obj
 0001:000306c0       ??$extract_argument_from_va_list@PEAUansi_string@?1??type_case_Z@?$output_processor@_WV?$string_output_adapter@_W@__crt_stdio_output@@V?$positional_parameter_base@_WV?$string_output_adapter@_W@__crt_stdio_output@@@2@@__crt_stdio_output@@AEAA_NXZ@PEAU1?1??234@AEAA_NXZ@@?$positional_parameter_base@_WV?$string_output_adapter@_W@__crt_stdio_output@@@__crt_stdio_output@@IEAA_NAEAPEAUansi_string@?1??type_case_Z@?$output_processor@_WV?$string_output_adapter@_W@__crt_stdio_output@@V?$positional_parameter_base@_WV?$string_output_adapter@_W@__crt_stdio_output@@@2@@1@AEAA_NXZ@@Z 00000001800316c0 f i libucrtd:output.obj
 0001:00030840       ??$extract_argument_from_va_list@PEAUansi_string@?1??type_case_Z@?$output_processor@_WV?$string_output_adapter@_W@__crt_stdio_output@@V?$positional_parameter_base@_WV?$string_output_adapter@_W@__crt_stdio_output@@@2@@__crt_stdio_output@@AEAA_NXZ@PEAU1?1??234@AEAA_NXZ@@?$standard_base@_WV?$string_output_adapter@_W@__crt_stdio_output@@@__crt_stdio_output@@IEAA_NAEAPEAUansi_string@?1??type_case_Z@?$output_processor@_WV?$string_output_adapter@_W@__crt_stdio_output@@V?$positional_parameter_base@_WV?$string_output_adapter@_W@__crt_stdio_output@@@2@@1@AEAA_NXZ@@Z 0000000180031840 f i libucrtd:output.obj
 0001:00030870       ??$extract_argument_from_va_list@PEAUansi_string@?1??type_case_Z@?$output_processor@_WV?$string_output_adapter@_W@__crt_stdio_output@@V?$standard_base@_WV?$string_output_adapter@_W@__crt_stdio_output@@@2@@__crt_stdio_output@@AEAA_NXZ@PEAU1?1??234@AEAA_NXZ@@?$standard_base@_WV?$string_output_adapter@_W@__crt_stdio_output@@@__crt_stdio_output@@IEAA_NAEAPEAUansi_string@?1??type_case_Z@?$output_processor@_WV?$string_output_adapter@_W@__crt_stdio_output@@V?$standard_base@_WV?$string_output_adapter@_W@__crt_stdio_output@@@2@@1@AEAA_NXZ@@Z 0000000180031870 f i libucrtd:output.obj
 0001:000308a0       ??$extract_argument_from_va_list@PEAXPEAX@?$positional_parameter_base@DV?$stream_output_adapter@D@__crt_stdio_output@@@__crt_stdio_output@@IEAA_NAEAPEAX@Z 00000001800318a0 f i libucrtd:output.obj
 0001:00030a20       ??$extract_argument_from_va_list@PEAXPEAX@?$positional_parameter_base@DV?$string_output_adapter@D@__crt_stdio_output@@@__crt_stdio_output@@IEAA_NAEAPEAX@Z 0000000180031a20 f i libucrtd:output.obj
 0001:00030ba0       ??$extract_argument_from_va_list@PEAXPEAX@?$positional_parameter_base@_WV?$stream_output_adapter@_W@__crt_stdio_output@@@__crt_stdio_output@@IEAA_NAEAPEAX@Z 0000000180031ba0 f i libucrtd:output.obj
 0001:00030d20       ??$extract_argument_from_va_list@PEAXPEAX@?$positional_parameter_base@_WV?$string_output_adapter@_W@__crt_stdio_output@@@__crt_stdio_output@@IEAA_NAEAPEAX@Z 0000000180031d20 f i libucrtd:output.obj
 0001:00030ea0       ??$extract_argument_from_va_list@PEAXPEAX@?$standard_base@DV?$stream_output_adapter@D@__crt_stdio_output@@@__crt_stdio_output@@IEAA_NAEAPEAX@Z 0000000180031ea0 f i libucrtd:output.obj
 0001:00030ed0       ??$extract_argument_from_va_list@PEAXPEAX@?$standard_base@DV?$string_output_adapter@D@__crt_stdio_output@@@__crt_stdio_output@@IEAA_NAEAPEAX@Z 0000000180031ed0 f i libucrtd:output.obj
 0001:00030f00       ??$extract_argument_from_va_list@PEAXPEAX@?$standard_base@_WV?$stream_output_adapter@_W@__crt_stdio_output@@@__crt_stdio_output@@IEAA_NAEAPEAX@Z 0000000180031f00 f i libucrtd:output.obj
 0001:00030f30       ??$extract_argument_from_va_list@PEAXPEAX@?$standard_base@_WV?$string_output_adapter@_W@__crt_stdio_output@@@__crt_stdio_output@@IEAA_NAEAPEAX@Z 0000000180031f30 f i libucrtd:output.obj
 0001:00030f60       ??$extract_argument_from_va_list@U_CRT_DOUBLE@@U1@@?$positional_parameter_base@DV?$stream_output_adapter@D@__crt_stdio_output@@@__crt_stdio_output@@IEAA_NAEAU_CRT_DOUBLE@@@Z 0000000180031f60 f i libucrtd:output.obj
 0001:00031100       ??$extract_argument_from_va_list@U_CRT_DOUBLE@@U1@@?$positional_parameter_base@DV?$string_output_adapter@D@__crt_stdio_output@@@__crt_stdio_output@@IEAA_NAEAU_CRT_DOUBLE@@@Z 0000000180032100 f i libucrtd:output.obj
 0001:000312a0       ??$extract_argument_from_va_list@U_CRT_DOUBLE@@U1@@?$positional_parameter_base@_WV?$stream_output_adapter@_W@__crt_stdio_output@@@__crt_stdio_output@@IEAA_NAEAU_CRT_DOUBLE@@@Z 00000001800322a0 f i libucrtd:output.obj
 0001:00031440       ??$extract_argument_from_va_list@U_CRT_DOUBLE@@U1@@?$positional_parameter_base@_WV?$string_output_adapter@_W@__crt_stdio_output@@@__crt_stdio_output@@IEAA_NAEAU_CRT_DOUBLE@@@Z 0000000180032440 f i libucrtd:output.obj
 0001:000315e0       ??$extract_argument_from_va_list@U_CRT_DOUBLE@@U1@@?$standard_base@DV?$stream_output_adapter@D@__crt_stdio_output@@@__crt_stdio_output@@IEAA_NAEAU_CRT_DOUBLE@@@Z 00000001800325e0 f i libucrtd:output.obj
 0001:00031630       ??$extract_argument_from_va_list@U_CRT_DOUBLE@@U1@@?$standard_base@DV?$string_output_adapter@D@__crt_stdio_output@@@__crt_stdio_output@@IEAA_NAEAU_CRT_DOUBLE@@@Z 0000000180032630 f i libucrtd:output.obj
 0001:00031680       ??$extract_argument_from_va_list@U_CRT_DOUBLE@@U1@@?$standard_base@_WV?$stream_output_adapter@_W@__crt_stdio_output@@@__crt_stdio_output@@IEAA_NAEAU_CRT_DOUBLE@@@Z 0000000180032680 f i libucrtd:output.obj
 0001:000316d0       ??$extract_argument_from_va_list@U_CRT_DOUBLE@@U1@@?$standard_base@_WV?$string_output_adapter@_W@__crt_stdio_output@@@__crt_stdio_output@@IEAA_NAEAU_CRT_DOUBLE@@@Z 00000001800326d0 f i libucrtd:output.obj
 0001:00031720       ??$extract_argument_from_va_list@_J_J@?$positional_parameter_base@DV?$stream_output_adapter@D@__crt_stdio_output@@@__crt_stdio_output@@IEAA_NAEA_J@Z 0000000180032720 f i libucrtd:output.obj
 0001:000318a0       ??$extract_argument_from_va_list@_J_J@?$positional_parameter_base@DV?$string_output_adapter@D@__crt_stdio_output@@@__crt_stdio_output@@IEAA_NAEA_J@Z 00000001800328a0 f i libucrtd:output.obj
 0001:00031a20       ??$extract_argument_from_va_list@_J_J@?$positional_parameter_base@_WV?$stream_output_adapter@_W@__crt_stdio_output@@@__crt_stdio_output@@IEAA_NAEA_J@Z 0000000180032a20 f i libucrtd:output.obj
 0001:00031ba0       ??$extract_argument_from_va_list@_J_J@?$positional_parameter_base@_WV?$string_output_adapter@_W@__crt_stdio_output@@@__crt_stdio_output@@IEAA_NAEA_J@Z 0000000180032ba0 f i libucrtd:output.obj
 0001:00031d20       ??$extract_argument_from_va_list@_J_J@?$standard_base@DV?$stream_output_adapter@D@__crt_stdio_output@@@__crt_stdio_output@@IEAA_NAEA_J@Z 0000000180032d20 f i libucrtd:output.obj
 0001:00031d50       ??$extract_argument_from_va_list@_J_J@?$standard_base@DV?$string_output_adapter@D@__crt_stdio_output@@@__crt_stdio_output@@IEAA_NAEA_J@Z 0000000180032d50 f i libucrtd:output.obj
 0001:00031d80       ??$extract_argument_from_va_list@_J_J@?$standard_base@_WV?$stream_output_adapter@_W@__crt_stdio_output@@@__crt_stdio_output@@IEAA_NAEA_J@Z 0000000180032d80 f i libucrtd:output.obj
 0001:00031db0       ??$extract_argument_from_va_list@_J_J@?$standard_base@_WV?$string_output_adapter@_W@__crt_stdio_output@@@__crt_stdio_output@@IEAA_NAEA_J@Z 0000000180032db0 f i libucrtd:output.obj
 0001:00031de0       ??$extract_argument_from_va_list@_K_J@?$positional_parameter_base@DV?$stream_output_adapter@D@__crt_stdio_output@@@__crt_stdio_output@@IEAA_NAEA_J@Z 0000000180032de0 f i libucrtd:output.obj
 0001:00031f60       ??$extract_argument_from_va_list@_K_J@?$positional_parameter_base@DV?$string_output_adapter@D@__crt_stdio_output@@@__crt_stdio_output@@IEAA_NAEA_J@Z 0000000180032f60 f i libucrtd:output.obj
 0001:000320e0       ??$extract_argument_from_va_list@_K_J@?$positional_parameter_base@_WV?$stream_output_adapter@_W@__crt_stdio_output@@@__crt_stdio_output@@IEAA_NAEA_J@Z 00000001800330e0 f i libucrtd:output.obj
 0001:00032260       ??$extract_argument_from_va_list@_K_J@?$positional_parameter_base@_WV?$string_output_adapter@_W@__crt_stdio_output@@@__crt_stdio_output@@IEAA_NAEA_J@Z 0000000180033260 f i libucrtd:output.obj
 0001:000323e0       ??$extract_argument_from_va_list@_K_J@?$standard_base@DV?$stream_output_adapter@D@__crt_stdio_output@@@__crt_stdio_output@@IEAA_NAEA_J@Z 00000001800333e0 f i libucrtd:output.obj
 0001:00032410       ??$extract_argument_from_va_list@_K_J@?$standard_base@DV?$string_output_adapter@D@__crt_stdio_output@@@__crt_stdio_output@@IEAA_NAEA_J@Z 0000000180033410 f i libucrtd:output.obj
 0001:00032440       ??$extract_argument_from_va_list@_K_J@?$standard_base@_WV?$stream_output_adapter@_W@__crt_stdio_output@@@__crt_stdio_output@@IEAA_NAEA_J@Z 0000000180033440 f i libucrtd:output.obj
 0001:00032470       ??$extract_argument_from_va_list@_K_J@?$standard_base@_WV?$string_output_adapter@_W@__crt_stdio_output@@@__crt_stdio_output@@IEAA_NAEA_J@Z 0000000180033470 f i libucrtd:output.obj
 0001:000324a0       ??$extract_argument_from_va_list@_W_W@?$positional_parameter_base@DV?$stream_output_adapter@D@__crt_stdio_output@@@__crt_stdio_output@@IEAA_NAEA_W@Z 00000001800334a0 f i libucrtd:output.obj
 0001:00032620       ??$extract_argument_from_va_list@_W_W@?$positional_parameter_base@DV?$string_output_adapter@D@__crt_stdio_output@@@__crt_stdio_output@@IEAA_NAEA_W@Z 0000000180033620 f i libucrtd:output.obj
 0001:000327a0       ??$extract_argument_from_va_list@_W_W@?$positional_parameter_base@_WV?$stream_output_adapter@_W@__crt_stdio_output@@@__crt_stdio_output@@IEAA_NAEA_W@Z 00000001800337a0 f i libucrtd:output.obj
 0001:00032920       ??$extract_argument_from_va_list@_W_W@?$positional_parameter_base@_WV?$string_output_adapter@_W@__crt_stdio_output@@@__crt_stdio_output@@IEAA_NAEA_W@Z 0000000180033920 f i libucrtd:output.obj
 0001:00032aa0       ??$extract_argument_from_va_list@_W_W@?$standard_base@DV?$stream_output_adapter@D@__crt_stdio_output@@@__crt_stdio_output@@IEAA_NAEA_W@Z 0000000180033aa0 f i libucrtd:output.obj
 0001:00032ad0       ??$extract_argument_from_va_list@_W_W@?$standard_base@DV?$string_output_adapter@D@__crt_stdio_output@@@__crt_stdio_output@@IEAA_NAEA_W@Z 0000000180033ad0 f i libucrtd:output.obj
 0001:00032b00       ??$extract_argument_from_va_list@_W_W@?$standard_base@_WV?$stream_output_adapter@_W@__crt_stdio_output@@@__crt_stdio_output@@IEAA_NAEA_W@Z 0000000180033b00 f i libucrtd:output.obj
 0001:00032b30       ??$extract_argument_from_va_list@_W_W@?$standard_base@_WV?$string_output_adapter@_W@__crt_stdio_output@@@__crt_stdio_output@@IEAA_NAEA_W@Z 0000000180033b30 f i libucrtd:output.obj
 0001:00032b60       ??$get_parameter_type@D@?$positional_parameter_base@DV?$stream_output_adapter@D@__crt_stdio_output@@@__crt_stdio_output@@CA?AW4parameter_type@01@PEAD@Z 0000000180033b60 f i libucrtd:output.obj
 0001:00032b70       ??$get_parameter_type@D@?$positional_parameter_base@DV?$string_output_adapter@D@__crt_stdio_output@@@__crt_stdio_output@@CA?AW4parameter_type@01@PEAD@Z 0000000180033b70 f i libucrtd:output.obj
 0001:00032b80       ??$get_parameter_type@D@?$positional_parameter_base@_WV?$stream_output_adapter@_W@__crt_stdio_output@@@__crt_stdio_output@@CA?AW4parameter_type@01@PEAD@Z 0000000180033b80 f i libucrtd:output.obj
 0001:00032b90       ??$get_parameter_type@D@?$positional_parameter_base@_WV?$string_output_adapter@_W@__crt_stdio_output@@@__crt_stdio_output@@CA?AW4parameter_type@01@PEAD@Z 0000000180033b90 f i libucrtd:output.obj
 0001:00032ba0       ??$get_parameter_type@Uansi_string@?1??type_case_Z@?$output_processor@DV?$stream_output_adapter@D@__crt_stdio_output@@V?$positional_parameter_base@DV?$stream_output_adapter@D@__crt_stdio_output@@@2@@__crt_stdio_output@@AEAA_NXZ@@?$positional_parameter_base@DV?$stream_output_adapter@D@__crt_stdio_output@@@__crt_stdio_output@@CA?AW4parameter_type@01@PEAUansi_string@?1??type_case_Z@?$output_processor@DV?$stream_output_adapter@D@__crt_stdio_output@@V?$positional_parameter_base@DV?$stream_output_adapter@D@__crt_stdio_output@@@2@@1@AEAA_NXZ@@Z 0000000180033ba0 f i libucrtd:output.obj
 0001:00032bb0       ??$get_parameter_type@Uansi_string@?1??type_case_Z@?$output_processor@DV?$string_output_adapter@D@__crt_stdio_output@@V?$positional_parameter_base@DV?$string_output_adapter@D@__crt_stdio_output@@@2@@__crt_stdio_output@@AEAA_NXZ@@?$positional_parameter_base@DV?$string_output_adapter@D@__crt_stdio_output@@@__crt_stdio_output@@CA?AW4parameter_type@01@PEAUansi_string@?1??type_case_Z@?$output_processor@DV?$string_output_adapter@D@__crt_stdio_output@@V?$positional_parameter_base@DV?$string_output_adapter@D@__crt_stdio_output@@@2@@1@AEAA_NXZ@@Z 0000000180033bb0 f i libucrtd:output.obj
 0001:00032bc0       ??$get_parameter_type@Uansi_string@?1??type_case_Z@?$output_processor@_WV?$stream_output_adapter@_W@__crt_stdio_output@@V?$positional_parameter_base@_WV?$stream_output_adapter@_W@__crt_stdio_output@@@2@@__crt_stdio_output@@AEAA_NXZ@@?$positional_parameter_base@_WV?$stream_output_adapter@_W@__crt_stdio_output@@@__crt_stdio_output@@CA?AW4parameter_type@01@PEAUansi_string@?1??type_case_Z@?$output_processor@_WV?$stream_output_adapter@_W@__crt_stdio_output@@V?$positional_parameter_base@_WV?$stream_output_adapter@_W@__crt_stdio_output@@@2@@1@AEAA_NXZ@@Z 0000000180033bc0 f i libucrtd:output.obj
 0001:00032bd0       ??$get_parameter_type@Uansi_string@?1??type_case_Z@?$output_processor@_WV?$string_output_adapter@_W@__crt_stdio_output@@V?$positional_parameter_base@_WV?$string_output_adapter@_W@__crt_stdio_output@@@2@@__crt_stdio_output@@AEAA_NXZ@@?$positional_parameter_base@_WV?$string_output_adapter@_W@__crt_stdio_output@@@__crt_stdio_output@@CA?AW4parameter_type@01@PEAUansi_string@?1??type_case_Z@?$output_processor@_WV?$string_output_adapter@_W@__crt_stdio_output@@V?$positional_parameter_base@_WV?$string_output_adapter@_W@__crt_stdio_output@@@2@@1@AEAA_NXZ@@Z 0000000180033bd0 f i libucrtd:output.obj
 0001:00032be0       ??$get_parameter_type@X@?$positional_parameter_base@DV?$stream_output_adapter@D@__crt_stdio_output@@@__crt_stdio_output@@CA?AW4parameter_type@01@PEAX@Z 0000000180033be0 f i libucrtd:output.obj
 0001:00032bf0       ??$get_parameter_type@X@?$positional_parameter_base@DV?$string_output_adapter@D@__crt_stdio_output@@@__crt_stdio_output@@CA?AW4parameter_type@01@PEAX@Z 0000000180033bf0 f i libucrtd:output.obj
 0001:00032c00       ??$get_parameter_type@X@?$positional_parameter_base@_WV?$stream_output_adapter@_W@__crt_stdio_output@@@__crt_stdio_output@@CA?AW4parameter_type@01@PEAX@Z 0000000180033c00 f i libucrtd:output.obj
 0001:00032c10       ??$get_parameter_type@X@?$positional_parameter_base@_WV?$string_output_adapter@_W@__crt_stdio_output@@@__crt_stdio_output@@CA?AW4parameter_type@01@PEAX@Z 0000000180033c10 f i libucrtd:output.obj
 0001:00032c20       ??$is_character_specifier@D@?$positional_parameter_base@DV?$stream_output_adapter@D@__crt_stdio_output@@@__crt_stdio_output@@CA_ND@Z 0000000180033c20 f i libucrtd:output.obj
 0001:00032c60       ??$is_character_specifier@D@?$positional_parameter_base@DV?$string_output_adapter@D@__crt_stdio_output@@@__crt_stdio_output@@CA_ND@Z 0000000180033c60 f i libucrtd:output.obj
 0001:00032ca0       ??$is_character_specifier@_W@?$positional_parameter_base@_WV?$stream_output_adapter@_W@__crt_stdio_output@@@__crt_stdio_output@@CA_N_W@Z 0000000180033ca0 f i libucrtd:output.obj
 0001:00032ce0       ??$is_character_specifier@_W@?$positional_parameter_base@_WV?$string_output_adapter@_W@__crt_stdio_output@@@__crt_stdio_output@@CA_N_W@Z 0000000180033ce0 f i libucrtd:output.obj
 0001:00032d20       ??$is_integral_specifier@D@?$positional_parameter_base@DV?$stream_output_adapter@D@__crt_stdio_output@@@__crt_stdio_output@@CA_ND@Z 0000000180033d20 f i libucrtd:output.obj
 0001:00032d90       ??$is_integral_specifier@D@?$positional_parameter_base@DV?$string_output_adapter@D@__crt_stdio_output@@@__crt_stdio_output@@CA_ND@Z 0000000180033d90 f i libucrtd:output.obj
 0001:00032e00       ??$is_integral_specifier@_W@?$positional_parameter_base@_WV?$stream_output_adapter@_W@__crt_stdio_output@@@__crt_stdio_output@@CA_N_W@Z 0000000180033e00 f i libucrtd:output.obj
 0001:00032e70       ??$is_integral_specifier@_W@?$positional_parameter_base@_WV?$string_output_adapter@_W@__crt_stdio_output@@@__crt_stdio_output@@CA_N_W@Z 0000000180033e70 f i libucrtd:output.obj
 0001:00032ee0       ??$is_pointer_specifier@D@?$positional_parameter_base@DV?$stream_output_adapter@D@__crt_stdio_output@@@__crt_stdio_output@@CA_ND@Z 0000000180033ee0 f i libucrtd:output.obj
 0001:00032f10       ??$is_pointer_specifier@D@?$positional_parameter_base@DV?$string_output_adapter@D@__crt_stdio_output@@@__crt_stdio_output@@CA_ND@Z 0000000180033f10 f i libucrtd:output.obj
 0001:00032f40       ??$is_pointer_specifier@_W@?$positional_parameter_base@_WV?$stream_output_adapter@_W@__crt_stdio_output@@@__crt_stdio_output@@CA_N_W@Z 0000000180033f40 f i libucrtd:output.obj
 0001:00032f70       ??$is_pointer_specifier@_W@?$positional_parameter_base@_WV?$string_output_adapter@_W@__crt_stdio_output@@@__crt_stdio_output@@CA_N_W@Z 0000000180033f70 f i libucrtd:output.obj
 0001:00032fa0       ??$is_string_specifier@D@?$positional_parameter_base@DV?$stream_output_adapter@D@__crt_stdio_output@@@__crt_stdio_output@@CA_ND@Z 0000000180033fa0 f i libucrtd:output.obj
 0001:00032fe0       ??$is_string_specifier@D@?$positional_parameter_base@DV?$string_output_adapter@D@__crt_stdio_output@@@__crt_stdio_output@@CA_ND@Z 0000000180033fe0 f i libucrtd:output.obj
 0001:00033020       ??$is_string_specifier@_W@?$positional_parameter_base@_WV?$stream_output_adapter@_W@__crt_stdio_output@@@__crt_stdio_output@@CA_N_W@Z 0000000180034020 f i libucrtd:output.obj
 0001:00033060       ??$is_string_specifier@_W@?$positional_parameter_base@_WV?$string_output_adapter@_W@__crt_stdio_output@@@__crt_stdio_output@@CA_N_W@Z 0000000180034060 f i libucrtd:output.obj
 0001:000330a0       ??$is_wide_character_specifier@D@__crt_stdio_output@@YA_N_KDW4length_modifier@0@@Z 00000001800340a0 f i libucrtd:output.obj
 0001:00033140       ??$is_wide_character_specifier@_W@__crt_stdio_output@@YA_N_K_WW4length_modifier@0@@Z 0000000180034140 f i libucrtd:output.obj
 0001:00033210       ??$peek_va_arg@C@__crt_stdio_output@@YACPEAD@Z 0000000180034210 f i libucrtd:output.obj
 0001:00033270       ??$peek_va_arg@E@__crt_stdio_output@@YAEPEAD@Z 0000000180034270 f i libucrtd:output.obj
 0001:000332d0       ??$peek_va_arg@F@__crt_stdio_output@@YAFPEAD@Z 00000001800342d0 f i libucrtd:output.obj
 0001:00033330       ??$peek_va_arg@G@__crt_stdio_output@@YAGPEAD@Z 0000000180034330 f i libucrtd:output.obj
 0001:00033390       ??$peek_va_arg@H@__crt_stdio_output@@YAHPEAD@Z 0000000180034390 f i libucrtd:output.obj
 0001:000333e0       ??$peek_va_arg@I@__crt_stdio_output@@YAIPEAD@Z 00000001800343e0 f i libucrtd:output.obj
 0001:00033430       ??$peek_va_arg@PEAD@__crt_stdio_output@@YAPEADPEAD@Z 0000000180034430 f i libucrtd:output.obj
 0001:00033490       ??$peek_va_arg@PEAUansi_string@?1??type_case_Z@?$output_processor@DV?$stream_output_adapter@D@__crt_stdio_output@@V?$positional_parameter_base@DV?$stream_output_adapter@D@__crt_stdio_output@@@2@@__crt_stdio_output@@AEAA_NXZ@@__crt_stdio_output@@YAPEAUansi_string@?1??type_case_Z@?$output_processor@DV?$stream_output_adapter@D@__crt_stdio_output@@V?$positional_parameter_base@DV?$stream_output_adapter@D@__crt_stdio_output@@@2@@0@AEAA_NXZ@PEAD@Z 0000000180034490 f i libucrtd:output.obj
 0001:000334f0       ??$peek_va_arg@PEAUansi_string@?1??type_case_Z@?$output_processor@DV?$string_output_adapter@D@__crt_stdio_output@@V?$positional_parameter_base@DV?$string_output_adapter@D@__crt_stdio_output@@@2@@__crt_stdio_output@@AEAA_NXZ@@__crt_stdio_output@@YAPEAUansi_string@?1??type_case_Z@?$output_processor@DV?$string_output_adapter@D@__crt_stdio_output@@V?$positional_parameter_base@DV?$string_output_adapter@D@__crt_stdio_output@@@2@@0@AEAA_NXZ@PEAD@Z 00000001800344f0 f i libucrtd:output.obj
 0001:00033550       ??$peek_va_arg@PEAUansi_string@?1??type_case_Z@?$output_processor@_WV?$stream_output_adapter@_W@__crt_stdio_output@@V?$positional_parameter_base@_WV?$stream_output_adapter@_W@__crt_stdio_output@@@2@@__crt_stdio_output@@AEAA_NXZ@@__crt_stdio_output@@YAPEAUansi_string@?1??type_case_Z@?$output_processor@_WV?$stream_output_adapter@_W@__crt_stdio_output@@V?$positional_parameter_base@_WV?$stream_output_adapter@_W@__crt_stdio_output@@@2@@0@AEAA_NXZ@PEAD@Z 0000000180034550 f i libucrtd:output.obj
 0001:000335b0       ??$peek_va_arg@PEAUansi_string@?1??type_case_Z@?$output_processor@_WV?$string_output_adapter@_W@__crt_stdio_output@@V?$positional_parameter_base@_WV?$string_output_adapter@_W@__crt_stdio_output@@@2@@__crt_stdio_output@@AEAA_NXZ@@__crt_stdio_output@@YAPEAUansi_string@?1??type_case_Z@?$output_processor@_WV?$string_output_adapter@_W@__crt_stdio_output@@V?$positional_parameter_base@_WV?$string_output_adapter@_W@__crt_stdio_output@@@2@@0@AEAA_NXZ@PEAD@Z 00000001800345b0 f i libucrtd:output.obj
 0001:00033610       ??$peek_va_arg@PEAX@__crt_stdio_output@@YAPEAXPEAD@Z 0000000180034610 f i libucrtd:output.obj
 0001:00033670       ??$peek_va_arg@U_CRT_DOUBLE@@@__crt_stdio_output@@YA?AU_CRT_DOUBLE@@PEAD@Z 0000000180034670 f i libucrtd:output.obj
 0001:000336d0       ??$peek_va_arg@_J@__crt_stdio_output@@YA_JPEAD@Z 00000001800346d0 f i libucrtd:output.obj
 0001:00033730       ??$peek_va_arg@_K@__crt_stdio_output@@YA_KPEAD@Z 0000000180034730 f i libucrtd:output.obj
 0001:00033790       ??$peek_va_arg@_W@__crt_stdio_output@@YA_WPEAD@Z 0000000180034790 f i libucrtd:output.obj
 0001:000337f0       ??$puttc_nolock@AEBDPEAU_iobuf@@@?$__crt_char_traits@D@@SAHAEBD$$QEAPEAU_iobuf@@@Z 00000001800347f0 f i libucrtd:output.obj
 0001:00033820       ??$puttc_nolock@AEB_WPEAU_iobuf@@@?$__crt_char_traits@_W@@SAGAEB_W$$QEAPEAU_iobuf@@@Z 0000000180034820 f i libucrtd:output.obj
 0001:00033850       ??$read_va_arg@C@__crt_stdio_output@@YACAEAPEAD@Z 0000000180034850 f i libucrtd:output.obj
 0001:000338c0       ??$read_va_arg@E@__crt_stdio_output@@YAEAEAPEAD@Z 00000001800348c0 f i libucrtd:output.obj
 0001:00033930       ??$read_va_arg@F@__crt_stdio_output@@YAFAEAPEAD@Z 0000000180034930 f i libucrtd:output.obj
 0001:000339a0       ??$read_va_arg@G@__crt_stdio_output@@YAGAEAPEAD@Z 00000001800349a0 f i libucrtd:output.obj
 0001:00033a10       ??$read_va_arg@H@__crt_stdio_output@@YAHAEAPEAD@Z 0000000180034a10 f i libucrtd:output.obj
 0001:00033a70       ??$read_va_arg@I@__crt_stdio_output@@YAIAEAPEAD@Z 0000000180034a70 f i libucrtd:output.obj
 0001:00033ad0       ??$read_va_arg@PEAD@__crt_stdio_output@@YAPEADAEAPEAD@Z 0000000180034ad0 f i libucrtd:output.obj
 0001:00033b40       ??$read_va_arg@PEAUansi_string@?1??type_case_Z@?$output_processor@DV?$stream_output_adapter@D@__crt_stdio_output@@V?$format_validation_base@DV?$stream_output_adapter@D@__crt_stdio_output@@@2@@__crt_stdio_output@@AEAA_NXZ@@__crt_stdio_output@@YAPEAUansi_string@?1??type_case_Z@?$output_processor@DV?$stream_output_adapter@D@__crt_stdio_output@@V?$format_validation_base@DV?$stream_output_adapter@D@__crt_stdio_output@@@2@@0@AEAA_NXZ@AEAPEAD@Z 0000000180034b40 f i libucrtd:output.obj
 0001:00033bb0       ??$read_va_arg@PEAUansi_string@?1??type_case_Z@?$output_processor@DV?$stream_output_adapter@D@__crt_stdio_output@@V?$positional_parameter_base@DV?$stream_output_adapter@D@__crt_stdio_output@@@2@@__crt_stdio_output@@AEAA_NXZ@@__crt_stdio_output@@YAPEAUansi_string@?1??type_case_Z@?$output_processor@DV?$stream_output_adapter@D@__crt_stdio_output@@V?$positional_parameter_base@DV?$stream_output_adapter@D@__crt_stdio_output@@@2@@0@AEAA_NXZ@AEAPEAD@Z 0000000180034bb0 f i libucrtd:output.obj
 0001:00033c20       ??$read_va_arg@PEAUansi_string@?1??type_case_Z@?$output_processor@DV?$stream_output_adapter@D@__crt_stdio_output@@V?$standard_base@DV?$stream_output_adapter@D@__crt_stdio_output@@@2@@__crt_stdio_output@@AEAA_NXZ@@__crt_stdio_output@@YAPEAUansi_string@?1??type_case_Z@?$output_processor@DV?$stream_output_adapter@D@__crt_stdio_output@@V?$standard_base@DV?$stream_output_adapter@D@__crt_stdio_output@@@2@@0@AEAA_NXZ@AEAPEAD@Z 0000000180034c20 f i libucrtd:output.obj
 0001:00033c90       ??$read_va_arg@PEAUansi_string@?1??type_case_Z@?$output_processor@DV?$string_output_adapter@D@__crt_stdio_output@@V?$format_validation_base@DV?$string_output_adapter@D@__crt_stdio_output@@@2@@__crt_stdio_output@@AEAA_NXZ@@__crt_stdio_output@@YAPEAUansi_string@?1??type_case_Z@?$output_processor@DV?$string_output_adapter@D@__crt_stdio_output@@V?$format_validation_base@DV?$string_output_adapter@D@__crt_stdio_output@@@2@@0@AEAA_NXZ@AEAPEAD@Z 0000000180034c90 f i libucrtd:output.obj
 0001:00033d00       ??$read_va_arg@PEAUansi_string@?1??type_case_Z@?$output_processor@DV?$string_output_adapter@D@__crt_stdio_output@@V?$positional_parameter_base@DV?$string_output_adapter@D@__crt_stdio_output@@@2@@__crt_stdio_output@@AEAA_NXZ@@__crt_stdio_output@@YAPEAUansi_string@?1??type_case_Z@?$output_processor@DV?$string_output_adapter@D@__crt_stdio_output@@V?$positional_parameter_base@DV?$string_output_adapter@D@__crt_stdio_output@@@2@@0@AEAA_NXZ@AEAPEAD@Z 0000000180034d00 f i libucrtd:output.obj
 0001:00033d70       ??$read_va_arg@PEAUansi_string@?1??type_case_Z@?$output_processor@DV?$string_output_adapter@D@__crt_stdio_output@@V?$standard_base@DV?$string_output_adapter@D@__crt_stdio_output@@@2@@__crt_stdio_output@@AEAA_NXZ@@__crt_stdio_output@@YAPEAUansi_string@?1??type_case_Z@?$output_processor@DV?$string_output_adapter@D@__crt_stdio_output@@V?$standard_base@DV?$string_output_adapter@D@__crt_stdio_output@@@2@@0@AEAA_NXZ@AEAPEAD@Z 0000000180034d70 f i libucrtd:output.obj
 0001:00033de0       ??$read_va_arg@PEAUansi_string@?1??type_case_Z@?$output_processor@_WV?$stream_output_adapter@_W@__crt_stdio_output@@V?$format_validation_base@_WV?$stream_output_adapter@_W@__crt_stdio_output@@@2@@__crt_stdio_output@@AEAA_NXZ@@__crt_stdio_output@@YAPEAUansi_string@?1??type_case_Z@?$output_processor@_WV?$stream_output_adapter@_W@__crt_stdio_output@@V?$format_validation_base@_WV?$stream_output_adapter@_W@__crt_stdio_output@@@2@@0@AEAA_NXZ@AEAPEAD@Z 0000000180034de0 f i libucrtd:output.obj
 0001:00033e50       ??$read_va_arg@PEAUansi_string@?1??type_case_Z@?$output_processor@_WV?$stream_output_adapter@_W@__crt_stdio_output@@V?$positional_parameter_base@_WV?$stream_output_adapter@_W@__crt_stdio_output@@@2@@__crt_stdio_output@@AEAA_NXZ@@__crt_stdio_output@@YAPEAUansi_string@?1??type_case_Z@?$output_processor@_WV?$stream_output_adapter@_W@__crt_stdio_output@@V?$positional_parameter_base@_WV?$stream_output_adapter@_W@__crt_stdio_output@@@2@@0@AEAA_NXZ@AEAPEAD@Z 0000000180034e50 f i libucrtd:output.obj
 0001:00033ec0       ??$read_va_arg@PEAUansi_string@?1??type_case_Z@?$output_processor@_WV?$stream_output_adapter@_W@__crt_stdio_output@@V?$standard_base@_WV?$stream_output_adapter@_W@__crt_stdio_output@@@2@@__crt_stdio_output@@AEAA_NXZ@@__crt_stdio_output@@YAPEAUansi_string@?1??type_case_Z@?$output_processor@_WV?$stream_output_adapter@_W@__crt_stdio_output@@V?$standard_base@_WV?$stream_output_adapter@_W@__crt_stdio_output@@@2@@0@AEAA_NXZ@AEAPEAD@Z 0000000180034ec0 f i libucrtd:output.obj
 0001:00033f30       ??$read_va_arg@PEAUansi_string@?1??type_case_Z@?$output_processor@_WV?$string_output_adapter@_W@__crt_stdio_output@@V?$format_validation_base@_WV?$string_output_adapter@_W@__crt_stdio_output@@@2@@__crt_stdio_output@@AEAA_NXZ@@__crt_stdio_output@@YAPEAUansi_string@?1??type_case_Z@?$output_processor@_WV?$string_output_adapter@_W@__crt_stdio_output@@V?$format_validation_base@_WV?$string_output_adapter@_W@__crt_stdio_output@@@2@@0@AEAA_NXZ@AEAPEAD@Z 0000000180034f30 f i libucrtd:output.obj
 0001:00033fa0       ??$read_va_arg@PEAUansi_string@?1??type_case_Z@?$output_processor@_WV?$string_output_adapter@_W@__crt_stdio_output@@V?$positional_parameter_base@_WV?$string_output_adapter@_W@__crt_stdio_output@@@2@@__crt_stdio_output@@AEAA_NXZ@@__crt_stdio_output@@YAPEAUansi_string@?1??type_case_Z@?$output_processor@_WV?$string_output_adapter@_W@__crt_stdio_output@@V?$positional_parameter_base@_WV?$string_output_adapter@_W@__crt_stdio_output@@@2@@0@AEAA_NXZ@AEAPEAD@Z 0000000180034fa0 f i libucrtd:output.obj
 0001:00034010       ??$read_va_arg@PEAUansi_string@?1??type_case_Z@?$output_processor@_WV?$string_output_adapter@_W@__crt_stdio_output@@V?$standard_base@_WV?$string_output_adapter@_W@__crt_stdio_output@@@2@@__crt_stdio_output@@AEAA_NXZ@@__crt_stdio_output@@YAPEAUansi_string@?1??type_case_Z@?$output_processor@_WV?$string_output_adapter@_W@__crt_stdio_output@@V?$standard_base@_WV?$string_output_adapter@_W@__crt_stdio_output@@@2@@0@AEAA_NXZ@AEAPEAD@Z 0000000180035010 f i libucrtd:output.obj
 0001:00034080       ??$read_va_arg@PEAX@__crt_stdio_output@@YAPEAXAEAPEAD@Z 0000000180035080 f i libucrtd:output.obj
 0001:000340f0       ??$read_va_arg@U_CRT_DOUBLE@@@__crt_stdio_output@@YA?AU_CRT_DOUBLE@@AEAPEAD@Z 00000001800350f0 f i libucrtd:output.obj
 0001:00034160       ??$read_va_arg@_J@__crt_stdio_output@@YA_JAEAPEAD@Z 0000000180035160 f i libucrtd:output.obj
 0001:000341d0       ??$read_va_arg@_K@__crt_stdio_output@@YA_KAEAPEAD@Z 00000001800351d0 f i libucrtd:output.obj
 0001:00034240       ??$read_va_arg@_W@__crt_stdio_output@@YA_WAEAPEAD@Z 0000000180035240 f i libucrtd:output.obj
 0001:000342b0       ??$scratch_count@D@formatting_buffer@__crt_stdio_output@@QEBA_KXZ 00000001800352b0 f i libucrtd:output.obj
 0001:000342d0       ??$scratch_data@D@formatting_buffer@__crt_stdio_output@@QEAAPEADXZ 00000001800352d0 f i libucrtd:output.obj
 0001:00034340       ??$tcstol@AEAPEBDPEAPEADH@?$__crt_char_traits@D@@SAJAEAPEBD$$QEAPEAPEAD$$QEAH@Z 0000000180035340 f i libucrtd:output.obj
 0001:00034380       ??$tcstol@AEAPEB_WPEAPEA_WH@?$__crt_char_traits@_W@@SAJAEAPEB_W$$QEAPEAPEA_W$$QEAH@Z 0000000180035380 f i libucrtd:output.obj
 0001:000343c0       ??$tcstol@PEBDPEAPEADH@?$__crt_char_traits@D@@SAJ$$QEAPEBD$$QEAPEAPEAD$$QEAH@Z 00000001800353c0 f i libucrtd:output.obj
 0001:00034400       ??$tcstol@PEB_WPEAPEA_WH@?$__crt_char_traits@_W@@SAJ$$QEAPEB_W$$QEAPEAPEA_W$$QEAH@Z 0000000180035400 f i libucrtd:output.obj
 0001:00034440       ??$type_case_integer_parse_into_buffer@I@?$output_processor@DV?$stream_output_adapter@D@__crt_stdio_output@@V?$format_validation_base@DV?$stream_output_adapter@D@__crt_stdio_output@@@2@@__crt_stdio_output@@AEAAXII_N@Z 0000000180035440 f i libucrtd:output.obj
 0001:00034570       ??$type_case_integer_parse_into_buffer@I@?$output_processor@DV?$stream_output_adapter@D@__crt_stdio_output@@V?$positional_parameter_base@DV?$stream_output_adapter@D@__crt_stdio_output@@@2@@__crt_stdio_output@@AEAAXII_N@Z 0000000180035570 f i libucrtd:output.obj
 0001:000346a0       ??$type_case_integer_parse_into_buffer@I@?$output_processor@DV?$stream_output_adapter@D@__crt_stdio_output@@V?$standard_base@DV?$stream_output_adapter@D@__crt_stdio_output@@@2@@__crt_stdio_output@@AEAAXII_N@Z 00000001800356a0 f i libucrtd:output.obj
 0001:000347d0       ??$type_case_integer_parse_into_buffer@I@?$output_processor@DV?$string_output_adapter@D@__crt_stdio_output@@V?$format_validation_base@DV?$string_output_adapter@D@__crt_stdio_output@@@2@@__crt_stdio_output@@AEAAXII_N@Z 00000001800357d0 f i libucrtd:output.obj
 0001:00034900       ??$type_case_integer_parse_into_buffer@I@?$output_processor@DV?$string_output_adapter@D@__crt_stdio_output@@V?$positional_parameter_base@DV?$string_output_adapter@D@__crt_stdio_output@@@2@@__crt_stdio_output@@AEAAXII_N@Z 0000000180035900 f i libucrtd:output.obj
 0001:00034a30       ??$type_case_integer_parse_into_buffer@I@?$output_processor@DV?$string_output_adapter@D@__crt_stdio_output@@V?$standard_base@DV?$string_output_adapter@D@__crt_stdio_output@@@2@@__crt_stdio_output@@AEAAXII_N@Z 0000000180035a30 f i libucrtd:output.obj
 0001:00034b60       ??$type_case_integer_parse_into_buffer@I@?$output_processor@_WV?$stream_output_adapter@_W@__crt_stdio_output@@V?$format_validation_base@_WV?$stream_output_adapter@_W@__crt_stdio_output@@@2@@__crt_stdio_output@@AEAAXII_N@Z 0000000180035b60 f i libucrtd:output.obj
 0001:00034ca0       ??$type_case_integer_parse_into_buffer@I@?$output_processor@_WV?$stream_output_adapter@_W@__crt_stdio_output@@V?$positional_parameter_base@_WV?$stream_output_adapter@_W@__crt_stdio_output@@@2@@__crt_stdio_output@@AEAAXII_N@Z 0000000180035ca0 f i libucrtd:output.obj
 0001:00034de0       ??$type_case_integer_parse_into_buffer@I@?$output_processor@_WV?$stream_output_adapter@_W@__crt_stdio_output@@V?$standard_base@_WV?$stream_output_adapter@_W@__crt_stdio_output@@@2@@__crt_stdio_output@@AEAAXII_N@Z 0000000180035de0 f i libucrtd:output.obj
 0001:00034f20       ??$type_case_integer_parse_into_buffer@I@?$output_processor@_WV?$string_output_adapter@_W@__crt_stdio_output@@V?$format_validation_base@_WV?$string_output_adapter@_W@__crt_stdio_output@@@2@@__crt_stdio_output@@AEAAXII_N@Z 0000000180035f20 f i libucrtd:output.obj
 0001:00035060       ??$type_case_integer_parse_into_buffer@I@?$output_processor@_WV?$string_output_adapter@_W@__crt_stdio_output@@V?$positional_parameter_base@_WV?$string_output_adapter@_W@__crt_stdio_output@@@2@@__crt_stdio_output@@AEAAXII_N@Z 0000000180036060 f i libucrtd:output.obj
 0001:000351a0       ??$type_case_integer_parse_into_buffer@I@?$output_processor@_WV?$string_output_adapter@_W@__crt_stdio_output@@V?$standard_base@_WV?$string_output_adapter@_W@__crt_stdio_output@@@2@@__crt_stdio_output@@AEAAXII_N@Z 00000001800361a0 f i libucrtd:output.obj
 0001:000352e0       ??$type_case_integer_parse_into_buffer@_K@?$output_processor@DV?$stream_output_adapter@D@__crt_stdio_output@@V?$format_validation_base@DV?$stream_output_adapter@D@__crt_stdio_output@@@2@@__crt_stdio_output@@AEAAX_KI_N@Z 00000001800362e0 f i libucrtd:output.obj
 0001:00035430       ??$type_case_integer_parse_into_buffer@_K@?$output_processor@DV?$stream_output_adapter@D@__crt_stdio_output@@V?$positional_parameter_base@DV?$stream_output_adapter@D@__crt_stdio_output@@@2@@__crt_stdio_output@@AEAAX_KI_N@Z 0000000180036430 f i libucrtd:output.obj
 0001:00035580       ??$type_case_integer_parse_into_buffer@_K@?$output_processor@DV?$stream_output_adapter@D@__crt_stdio_output@@V?$standard_base@DV?$stream_output_adapter@D@__crt_stdio_output@@@2@@__crt_stdio_output@@AEAAX_KI_N@Z 0000000180036580 f i libucrtd:output.obj
 0001:000356d0       ??$type_case_integer_parse_into_buffer@_K@?$output_processor@DV?$string_output_adapter@D@__crt_stdio_output@@V?$format_validation_base@DV?$string_output_adapter@D@__crt_stdio_output@@@2@@__crt_stdio_output@@AEAAX_KI_N@Z 00000001800366d0 f i libucrtd:output.obj
 0001:00035820       ??$type_case_integer_parse_into_buffer@_K@?$output_processor@DV?$string_output_adapter@D@__crt_stdio_output@@V?$positional_parameter_base@DV?$string_output_adapter@D@__crt_stdio_output@@@2@@__crt_stdio_output@@AEAAX_KI_N@Z 0000000180036820 f i libucrtd:output.obj
 0001:00035970       ??$type_case_integer_parse_into_buffer@_K@?$output_processor@DV?$string_output_adapter@D@__crt_stdio_output@@V?$standard_base@DV?$string_output_adapter@D@__crt_stdio_output@@@2@@__crt_stdio_output@@AEAAX_KI_N@Z 0000000180036970 f i libucrtd:output.obj
 0001:00035ac0       ??$type_case_integer_parse_into_buffer@_K@?$output_processor@_WV?$stream_output_adapter@_W@__crt_stdio_output@@V?$format_validation_base@_WV?$stream_output_adapter@_W@__crt_stdio_output@@@2@@__crt_stdio_output@@AEAAX_KI_N@Z 0000000180036ac0 f i libucrtd:output.obj
 0001:00035c20       ??$type_case_integer_parse_into_buffer@_K@?$output_processor@_WV?$stream_output_adapter@_W@__crt_stdio_output@@V?$positional_parameter_base@_WV?$stream_output_adapter@_W@__crt_stdio_output@@@2@@__crt_stdio_output@@AEAAX_KI_N@Z 0000000180036c20 f i libucrtd:output.obj
 0001:00035d80       ??$type_case_integer_parse_into_buffer@_K@?$output_processor@_WV?$stream_output_adapter@_W@__crt_stdio_output@@V?$standard_base@_WV?$stream_output_adapter@_W@__crt_stdio_output@@@2@@__crt_stdio_output@@AEAAX_KI_N@Z 0000000180036d80 f i libucrtd:output.obj
 0001:00035ee0       ??$type_case_integer_parse_into_buffer@_K@?$output_processor@_WV?$string_output_adapter@_W@__crt_stdio_output@@V?$format_validation_base@_WV?$string_output_adapter@_W@__crt_stdio_output@@@2@@__crt_stdio_output@@AEAAX_KI_N@Z 0000000180036ee0 f i libucrtd:output.obj
 0001:00036040       ??$type_case_integer_parse_into_buffer@_K@?$output_processor@_WV?$string_output_adapter@_W@__crt_stdio_output@@V?$positional_parameter_base@_WV?$string_output_adapter@_W@__crt_stdio_output@@@2@@__crt_stdio_output@@AEAAX_KI_N@Z 0000000180037040 f i libucrtd:output.obj
 0001:000361a0       ??$type_case_integer_parse_into_buffer@_K@?$output_processor@_WV?$string_output_adapter@_W@__crt_stdio_output@@V?$standard_base@_WV?$string_output_adapter@_W@__crt_stdio_output@@@2@@__crt_stdio_output@@AEAAX_KI_N@Z 00000001800371a0 f i libucrtd:output.obj
 0001:00036300       ??$write_multiple_characters@V?$stream_output_adapter@D@__crt_stdio_output@@D@__crt_stdio_output@@YAXAEBV?$stream_output_adapter@D@0@DHQEAH@Z 0000000180037300 f i libucrtd:output.obj
 0001:00036360       ??$write_multiple_characters@V?$stream_output_adapter@_W@__crt_stdio_output@@D@__crt_stdio_output@@YAXAEBV?$stream_output_adapter@_W@0@DHQEAH@Z 0000000180037360 f i libucrtd:output.obj
 0001:000363c0       ??$write_multiple_characters@V?$string_output_adapter@D@__crt_stdio_output@@D@__crt_stdio_output@@YAXAEBV?$string_output_adapter@D@0@DHQEAH@Z 00000001800373c0 f i libucrtd:output.obj
 0001:00036420       ??$write_multiple_characters@V?$string_output_adapter@_W@__crt_stdio_output@@D@__crt_stdio_output@@YAXAEBV?$string_output_adapter@_W@0@DHQEAH@Z 0000000180037420 f i libucrtd:output.obj
 0001:00036840       ??0?$common_data@D@__crt_stdio_output@@IEAA@XZ 0000000180037840 f i libucrtd:output.obj
 0001:00036910       ??0?$common_data@_W@__crt_stdio_output@@IEAA@XZ 0000000180037910 f i libucrtd:output.obj
 0001:000369e0       ??0?$output_adapter_data@DV?$stream_output_adapter@D@__crt_stdio_output@@@__crt_stdio_output@@IEAA@AEBV?$stream_output_adapter@D@1@_KQEBDQEAU__crt_locale_pointers@@QEAD@Z 00000001800379e0 f i libucrtd:output.obj
 0001:00036a60       ??0?$output_adapter_data@DV?$string_output_adapter@D@__crt_stdio_output@@@__crt_stdio_output@@IEAA@AEBV?$string_output_adapter@D@1@_KQEBDQEAU__crt_locale_pointers@@QEAD@Z 0000000180037a60 f i libucrtd:output.obj
 0001:00036ae0       ??0?$output_adapter_data@_WV?$stream_output_adapter@_W@__crt_stdio_output@@@__crt_stdio_output@@IEAA@AEBV?$stream_output_adapter@_W@1@_KQEB_WQEAU__crt_locale_pointers@@QEAD@Z 0000000180037ae0 f i libucrtd:output.obj
 0001:00036b60       ??0?$output_adapter_data@_WV?$string_output_adapter@_W@__crt_stdio_output@@@__crt_stdio_output@@IEAA@AEBV?$string_output_adapter@_W@1@_KQEB_WQEAU__crt_locale_pointers@@QEAD@Z 0000000180037b60 f i libucrtd:output.obj
 0001:00036be0       ??0?$output_processor@DV?$stream_output_adapter@D@__crt_stdio_output@@V?$format_validation_base@DV?$stream_output_adapter@D@__crt_stdio_output@@@2@@__crt_stdio_output@@QEAA@AEBV?$stream_output_adapter@D@1@_KQEBDQEAU__crt_locale_pointers@@QEAD@Z 0000000180037be0 f i libucrtd:output.obj
 0001:00036c30       ??0?$output_processor@DV?$stream_output_adapter@D@__crt_stdio_output@@V?$positional_parameter_base@DV?$stream_output_adapter@D@__crt_stdio_output@@@2@@__crt_stdio_output@@QEAA@AEBV?$stream_output_adapter@D@1@_KQEBDQEAU__crt_locale_pointers@@QEAD@Z 0000000180037c30 f i libucrtd:output.obj
 0001:00036c80       ??0?$output_processor@DV?$stream_output_adapter@D@__crt_stdio_output@@V?$standard_base@DV?$stream_output_adapter@D@__crt_stdio_output@@@2@@__crt_stdio_output@@QEAA@AEBV?$stream_output_adapter@D@1@_KQEBDQEAU__crt_locale_pointers@@QEAD@Z 0000000180037c80 f i libucrtd:output.obj
 0001:00036cd0       ??0?$output_processor@DV?$string_output_adapter@D@__crt_stdio_output@@V?$format_validation_base@DV?$string_output_adapter@D@__crt_stdio_output@@@2@@__crt_stdio_output@@QEAA@AEBV?$string_output_adapter@D@1@_KQEBDQEAU__crt_locale_pointers@@QEAD@Z 0000000180037cd0 f i libucrtd:output.obj
 0001:00036d20       ??0?$output_processor@DV?$string_output_adapter@D@__crt_stdio_output@@V?$positional_parameter_base@DV?$string_output_adapter@D@__crt_stdio_output@@@2@@__crt_stdio_output@@QEAA@AEBV?$string_output_adapter@D@1@_KQEBDQEAU__crt_locale_pointers@@QEAD@Z 0000000180037d20 f i libucrtd:output.obj
 0001:00036d70       ??0?$output_processor@DV?$string_output_adapter@D@__crt_stdio_output@@V?$standard_base@DV?$string_output_adapter@D@__crt_stdio_output@@@2@@__crt_stdio_output@@QEAA@AEBV?$string_output_adapter@D@1@_KQEBDQEAU__crt_locale_pointers@@QEAD@Z 0000000180037d70 f i libucrtd:output.obj
 0001:00036dc0       ??0?$output_processor@_WV?$stream_output_adapter@_W@__crt_stdio_output@@V?$format_validation_base@_WV?$stream_output_adapter@_W@__crt_stdio_output@@@2@@__crt_stdio_output@@QEAA@AEBV?$stream_output_adapter@_W@1@_KQEB_WQEAU__crt_locale_pointers@@QEAD@Z 0000000180037dc0 f i libucrtd:output.obj
 0001:00036e10       ??0?$output_processor@_WV?$stream_output_adapter@_W@__crt_stdio_output@@V?$positional_parameter_base@_WV?$stream_output_adapter@_W@__crt_stdio_output@@@2@@__crt_stdio_output@@QEAA@AEBV?$stream_output_adapter@_W@1@_KQEB_WQEAU__crt_locale_pointers@@QEAD@Z 0000000180037e10 f i libucrtd:output.obj
 0001:00036e60       ??0?$output_processor@_WV?$stream_output_adapter@_W@__crt_stdio_output@@V?$standard_base@_WV?$stream_output_adapter@_W@__crt_stdio_output@@@2@@__crt_stdio_output@@QEAA@AEBV?$stream_output_adapter@_W@1@_KQEB_WQEAU__crt_locale_pointers@@QEAD@Z 0000000180037e60 f i libucrtd:output.obj
 0001:00036eb0       ??0?$output_processor@_WV?$string_output_adapter@_W@__crt_stdio_output@@V?$format_validation_base@_WV?$string_output_adapter@_W@__crt_stdio_output@@@2@@__crt_stdio_output@@QEAA@AEBV?$string_output_adapter@_W@1@_KQEB_WQEAU__crt_locale_pointers@@QEAD@Z 0000000180037eb0 f i libucrtd:output.obj
 0001:00036f00       ??0?$output_processor@_WV?$string_output_adapter@_W@__crt_stdio_output@@V?$positional_parameter_base@_WV?$string_output_adapter@_W@__crt_stdio_output@@@2@@__crt_stdio_output@@QEAA@AEBV?$string_output_adapter@_W@1@_KQEB_WQEAU__crt_locale_pointers@@QEAD@Z 0000000180037f00 f i libucrtd:output.obj
 0001:00036f50       ??0?$output_processor@_WV?$string_output_adapter@_W@__crt_stdio_output@@V?$standard_base@_WV?$string_output_adapter@_W@__crt_stdio_output@@@2@@__crt_stdio_output@@QEAA@AEBV?$string_output_adapter@_W@1@_KQEB_WQEAU__crt_locale_pointers@@QEAD@Z 0000000180037f50 f i libucrtd:output.obj
 0001:00036fa0       ??0?$stream_output_adapter@D@__crt_stdio_output@@QEAA@QEAU_iobuf@@@Z 0000000180037fa0 f i libucrtd:output.obj
 0001:00036fd0       ??0?$stream_output_adapter@_W@__crt_stdio_output@@QEAA@QEAU_iobuf@@@Z 0000000180037fd0 f i libucrtd:output.obj
 0001:00037000       ??0?$string_output_adapter@D@__crt_stdio_output@@QEAA@QEAU?$string_output_adapter_context@D@1@@Z 0000000180038000 f i libucrtd:output.obj
 0001:00037020       ??0?$string_output_adapter@_W@__crt_stdio_output@@QEAA@QEAU?$string_output_adapter_context@_W@1@@Z 0000000180038020 f i libucrtd:output.obj
 0001:00037040       ??0__acrt_stdio_temporary_buffering_guard@@QEAA@QEAU_iobuf@@@Z 0000000180038040 f i libucrtd:output.obj
 0001:00037080       ??0__crt_deferred_errno_cache@@QEAA@XZ 0000000180038080 f i libucrtd:output.obj
 0001:000370a0       ??0__crt_errno_guard@@QEAA@QEAH@Z 00000001800380a0 f i libucrtd:output.obj
 0001:000370e0       ??0__crt_stdio_stream@@QEAA@QEAU_iobuf@@@Z 00000001800380e0 f i libucrtd:output.obj
 0001:00037100       ??0formatting_buffer@__crt_stdio_output@@QEAA@XZ 0000000180038100 f i libucrtd:output.obj
 0001:00037140       ??1?$common_data@D@__crt_stdio_output@@QEAA@XZ 0000000180038140 f i libucrtd:output.obj
 0001:00037160       ??1?$common_data@_W@__crt_stdio_output@@QEAA@XZ 0000000180038160 f i libucrtd:output.obj
 0001:00037180       ??1?$format_validation_base@DV?$stream_output_adapter@D@__crt_stdio_output@@@__crt_stdio_output@@QEAA@XZ 0000000180038180 f i libucrtd:output.obj
 0001:000371a0       ??1?$format_validation_base@DV?$string_output_adapter@D@__crt_stdio_output@@@__crt_stdio_output@@QEAA@XZ 00000001800381a0 f i libucrtd:output.obj
 0001:000371c0       ??1?$format_validation_base@_WV?$stream_output_adapter@_W@__crt_stdio_output@@@__crt_stdio_output@@QEAA@XZ 00000001800381c0 f i libucrtd:output.obj
 0001:000371e0       ??1?$format_validation_base@_WV?$string_output_adapter@_W@__crt_stdio_output@@@__crt_stdio_output@@QEAA@XZ 00000001800381e0 f i libucrtd:output.obj
 0001:00037200       ??1?$output_adapter_data@DV?$stream_output_adapter@D@__crt_stdio_output@@@__crt_stdio_output@@QEAA@XZ 0000000180038200 f i libucrtd:output.obj
 0001:00037220       ??1?$output_adapter_data@DV?$string_output_adapter@D@__crt_stdio_output@@@__crt_stdio_output@@QEAA@XZ 0000000180038220 f i libucrtd:output.obj
 0001:00037240       ??1?$output_adapter_data@_WV?$stream_output_adapter@_W@__crt_stdio_output@@@__crt_stdio_output@@QEAA@XZ 0000000180038240 f i libucrtd:output.obj
 0001:00037260       ??1?$output_adapter_data@_WV?$string_output_adapter@_W@__crt_stdio_output@@@__crt_stdio_output@@QEAA@XZ 0000000180038260 f i libucrtd:output.obj
 0001:00037280       ??1?$output_processor@DV?$stream_output_adapter@D@__crt_stdio_output@@V?$format_validation_base@DV?$stream_output_adapter@D@__crt_stdio_output@@@2@@__crt_stdio_output@@QEAA@XZ 0000000180038280 f i libucrtd:output.obj
 0001:000372a0       ??1?$output_processor@DV?$stream_output_adapter@D@__crt_stdio_output@@V?$positional_parameter_base@DV?$stream_output_adapter@D@__crt_stdio_output@@@2@@__crt_stdio_output@@QEAA@XZ 00000001800382a0 f i libucrtd:output.obj
 0001:000372c0       ??1?$output_processor@DV?$stream_output_adapter@D@__crt_stdio_output@@V?$standard_base@DV?$stream_output_adapter@D@__crt_stdio_output@@@2@@__crt_stdio_output@@QEAA@XZ 00000001800382c0 f i libucrtd:output.obj
 0001:000372e0       ??1?$output_processor@DV?$string_output_adapter@D@__crt_stdio_output@@V?$format_validation_base@DV?$string_output_adapter@D@__crt_stdio_output@@@2@@__crt_stdio_output@@QEAA@XZ 00000001800382e0 f i libucrtd:output.obj
 0001:00037300       ??1?$output_processor@DV?$string_output_adapter@D@__crt_stdio_output@@V?$positional_parameter_base@DV?$string_output_adapter@D@__crt_stdio_output@@@2@@__crt_stdio_output@@QEAA@XZ 0000000180038300 f i libucrtd:output.obj
 0001:00037320       ??1?$output_processor@DV?$string_output_adapter@D@__crt_stdio_output@@V?$standard_base@DV?$string_output_adapter@D@__crt_stdio_output@@@2@@__crt_stdio_output@@QEAA@XZ 0000000180038320 f i libucrtd:output.obj
 0001:00037340       ??1?$output_processor@_WV?$stream_output_adapter@_W@__crt_stdio_output@@V?$format_validation_base@_WV?$stream_output_adapter@_W@__crt_stdio_output@@@2@@__crt_stdio_output@@QEAA@XZ 0000000180038340 f i libucrtd:output.obj
 0001:00037360       ??1?$output_processor@_WV?$stream_output_adapter@_W@__crt_stdio_output@@V?$positional_parameter_base@_WV?$stream_output_adapter@_W@__crt_stdio_output@@@2@@__crt_stdio_output@@QEAA@XZ 0000000180038360 f i libucrtd:output.obj
 0001:00037380       ??1?$output_processor@_WV?$stream_output_adapter@_W@__crt_stdio_output@@V?$standard_base@_WV?$stream_output_adapter@_W@__crt_stdio_output@@@2@@__crt_stdio_output@@QEAA@XZ 0000000180038380 f i libucrtd:output.obj
 0001:000373a0       ??1?$output_processor@_WV?$string_output_adapter@_W@__crt_stdio_output@@V?$format_validation_base@_WV?$string_output_adapter@_W@__crt_stdio_output@@@2@@__crt_stdio_output@@QEAA@XZ 00000001800383a0 f i libucrtd:output.obj
 0001:000373c0       ??1?$output_processor@_WV?$string_output_adapter@_W@__crt_stdio_output@@V?$positional_parameter_base@_WV?$string_output_adapter@_W@__crt_stdio_output@@@2@@__crt_stdio_output@@QEAA@XZ 00000001800383c0 f i libucrtd:output.obj
 0001:000373e0       ??1?$output_processor@_WV?$string_output_adapter@_W@__crt_stdio_output@@V?$standard_base@_WV?$string_output_adapter@_W@__crt_stdio_output@@@2@@__crt_stdio_output@@QEAA@XZ 00000001800383e0 f i libucrtd:output.obj
 0001:00037400       ??1?$positional_parameter_base@DV?$stream_output_adapter@D@__crt_stdio_output@@@__crt_stdio_output@@QEAA@XZ 0000000180038400 f i libucrtd:output.obj
 0001:00037420       ??1?$positional_parameter_base@DV?$string_output_adapter@D@__crt_stdio_output@@@__crt_stdio_output@@QEAA@XZ 0000000180038420 f i libucrtd:output.obj
 0001:00037440       ??1?$positional_parameter_base@_WV?$stream_output_adapter@_W@__crt_stdio_output@@@__crt_stdio_output@@QEAA@XZ 0000000180038440 f i libucrtd:output.obj
 0001:00037460       ??1?$positional_parameter_base@_WV?$string_output_adapter@_W@__crt_stdio_output@@@__crt_stdio_output@@QEAA@XZ 0000000180038460 f i libucrtd:output.obj
 0001:00037480       ??1?$standard_base@DV?$stream_output_adapter@D@__crt_stdio_output@@@__crt_stdio_output@@QEAA@XZ 0000000180038480 f i libucrtd:output.obj
 0001:000374a0       ??1?$standard_base@DV?$string_output_adapter@D@__crt_stdio_output@@@__crt_stdio_output@@QEAA@XZ 00000001800384a0 f i libucrtd:output.obj
 0001:000374c0       ??1?$standard_base@_WV?$stream_output_adapter@_W@__crt_stdio_output@@@__crt_stdio_output@@QEAA@XZ 00000001800384c0 f i libucrtd:output.obj
 0001:000374e0       ??1?$standard_base@_WV?$string_output_adapter@_W@__crt_stdio_output@@@__crt_stdio_output@@QEAA@XZ 00000001800384e0 f i libucrtd:output.obj
 0001:00037500       ??1__acrt_stdio_temporary_buffering_guard@@QEAA@XZ 0000000180038500 f i libucrtd:output.obj
 0001:00037530       ??1__crt_errno_guard@@QEAA@XZ 0000000180038530 f i libucrtd:output.obj
 0001:00037560       ??1formatting_buffer@__crt_stdio_output@@QEAA@XZ 0000000180038560 f i libucrtd:output.obj
 0001:00037590       ??4?$__crt_unique_heap_ptr@DU__crt_internal_free_policy@@@@QEAAAEAV0@$$QEAV0@@Z 0000000180038590 f i libucrtd:output.obj
 0001:000375d0       ??A?$spectre_mitigated_lookup_table@Ustate_transition_pair@__crt_stdio_output@@$0IA@@__crt_stdio_output@@QEBAAEBUstate_transition_pair@1@_K@Z 00000001800385d0 f i libucrtd:output.obj
 0001:000375f0       ??C__crt_stdio_stream@@QEBAPEAU__crt_stdio_stream_data@@XZ 00000001800385f0 f i libucrtd:output.obj
 0001:00037ea0       ?adjust_hexit@?$output_processor@DV?$stream_output_adapter@D@__crt_stdio_output@@V?$format_validation_base@DV?$stream_output_adapter@D@__crt_stdio_output@@@2@@__crt_stdio_output@@CADH_N@Z 0000000180038ea0 f i libucrtd:output.obj
 0001:00037ef0       ?adjust_hexit@?$output_processor@DV?$stream_output_adapter@D@__crt_stdio_output@@V?$positional_parameter_base@DV?$stream_output_adapter@D@__crt_stdio_output@@@2@@__crt_stdio_output@@CADH_N@Z 0000000180038ef0 f i libucrtd:output.obj
 0001:00037f40       ?adjust_hexit@?$output_processor@DV?$stream_output_adapter@D@__crt_stdio_output@@V?$standard_base@DV?$stream_output_adapter@D@__crt_stdio_output@@@2@@__crt_stdio_output@@CADH_N@Z 0000000180038f40 f i libucrtd:output.obj
 0001:00037f90       ?adjust_hexit@?$output_processor@DV?$string_output_adapter@D@__crt_stdio_output@@V?$format_validation_base@DV?$string_output_adapter@D@__crt_stdio_output@@@2@@__crt_stdio_output@@CADH_N@Z 0000000180038f90 f i libucrtd:output.obj
 0001:00037fe0       ?adjust_hexit@?$output_processor@DV?$string_output_adapter@D@__crt_stdio_output@@V?$positional_parameter_base@DV?$string_output_adapter@D@__crt_stdio_output@@@2@@__crt_stdio_output@@CADH_N@Z 0000000180038fe0 f i libucrtd:output.obj
 0001:00038030       ?adjust_hexit@?$output_processor@DV?$string_output_adapter@D@__crt_stdio_output@@V?$standard_base@DV?$string_output_adapter@D@__crt_stdio_output@@@2@@__crt_stdio_output@@CADH_N@Z 0000000180039030 f i libucrtd:output.obj
 0001:00038080       ?adjust_hexit@?$output_processor@_WV?$stream_output_adapter@_W@__crt_stdio_output@@V?$format_validation_base@_WV?$stream_output_adapter@_W@__crt_stdio_output@@@2@@__crt_stdio_output@@CADH_N@Z 0000000180039080 f i libucrtd:output.obj
 0001:000380d0       ?adjust_hexit@?$output_processor@_WV?$stream_output_adapter@_W@__crt_stdio_output@@V?$positional_parameter_base@_WV?$stream_output_adapter@_W@__crt_stdio_output@@@2@@__crt_stdio_output@@CADH_N@Z 00000001800390d0 f i libucrtd:output.obj
 0001:00038120       ?adjust_hexit@?$output_processor@_WV?$stream_output_adapter@_W@__crt_stdio_output@@V?$standard_base@_WV?$stream_output_adapter@_W@__crt_stdio_output@@@2@@__crt_stdio_output@@CADH_N@Z 0000000180039120 f i libucrtd:output.obj
 0001:00038170       ?adjust_hexit@?$output_processor@_WV?$string_output_adapter@_W@__crt_stdio_output@@V?$format_validation_base@_WV?$string_output_adapter@_W@__crt_stdio_output@@@2@@__crt_stdio_output@@CADH_N@Z 0000000180039170 f i libucrtd:output.obj
 0001:000381c0       ?adjust_hexit@?$output_processor@_WV?$string_output_adapter@_W@__crt_stdio_output@@V?$positional_parameter_base@_WV?$string_output_adapter@_W@__crt_stdio_output@@@2@@__crt_stdio_output@@CADH_N@Z 00000001800391c0 f i libucrtd:output.obj
 0001:00038210       ?adjust_hexit@?$output_processor@_WV?$string_output_adapter@_W@__crt_stdio_output@@V?$standard_base@_WV?$string_output_adapter@_W@__crt_stdio_output@@@2@@__crt_stdio_output@@CADH_N@Z 0000000180039210 f i libucrtd:output.obj
 0001:00038260       ?advance_to_next_pass@?$positional_parameter_base@DV?$stream_output_adapter@D@__crt_stdio_output@@@__crt_stdio_output@@IEAA_NXZ 0000000180039260 f i libucrtd:output.obj
 0001:00038310       ?advance_to_next_pass@?$positional_parameter_base@DV?$string_output_adapter@D@__crt_stdio_output@@@__crt_stdio_output@@IEAA_NXZ 0000000180039310 f i libucrtd:output.obj
 0001:000383c0       ?advance_to_next_pass@?$positional_parameter_base@_WV?$stream_output_adapter@_W@__crt_stdio_output@@@__crt_stdio_output@@IEAA_NXZ 00000001800393c0 f i libucrtd:output.obj
 0001:00038470       ?advance_to_next_pass@?$positional_parameter_base@_WV?$string_output_adapter@_W@__crt_stdio_output@@@__crt_stdio_output@@IEAA_NXZ 0000000180039470 f i libucrtd:output.obj
 0001:00038520       ?advance_to_next_pass@?$standard_base@DV?$stream_output_adapter@D@__crt_stdio_output@@@__crt_stdio_output@@IEAA_NXZ 0000000180039520 f i libucrtd:output.obj
 0001:00038570       ?advance_to_next_pass@?$standard_base@DV?$string_output_adapter@D@__crt_stdio_output@@@__crt_stdio_output@@IEAA_NXZ 0000000180039570 f i libucrtd:output.obj
 0001:000385c0       ?advance_to_next_pass@?$standard_base@_WV?$stream_output_adapter@_W@__crt_stdio_output@@@__crt_stdio_output@@IEAA_NXZ 00000001800395c0 f i libucrtd:output.obj
 0001:00038610       ?advance_to_next_pass@?$standard_base@_WV?$string_output_adapter@_W@__crt_stdio_output@@@__crt_stdio_output@@IEAA_NXZ 0000000180039610 f i libucrtd:output.obj
 0001:00038660       ?crop_zeroes@__crt_stdio_output@@YAXPEADQEAU__crt_locale_pointers@@@Z 0000000180039660 f i libucrtd:output.obj
 0001:000387a0       ?find_next_state@?$output_processor@DV?$stream_output_adapter@D@__crt_stdio_output@@V?$format_validation_base@DV?$stream_output_adapter@D@__crt_stdio_output@@@2@@__crt_stdio_output@@AEBA?AW4state@2@DW432@@Z 00000001800397a0 f i libucrtd:output.obj
 0001:00038830       ?find_next_state@?$output_processor@DV?$stream_output_adapter@D@__crt_stdio_output@@V?$positional_parameter_base@DV?$stream_output_adapter@D@__crt_stdio_output@@@2@@__crt_stdio_output@@AEBA?AW4state@2@DW432@@Z 0000000180039830 f i libucrtd:output.obj
 0001:000388c0       ?find_next_state@?$output_processor@DV?$stream_output_adapter@D@__crt_stdio_output@@V?$standard_base@DV?$stream_output_adapter@D@__crt_stdio_output@@@2@@__crt_stdio_output@@AEBA?AW4state@2@DW432@@Z 00000001800398c0 f i libucrtd:output.obj
 0001:00038950       ?find_next_state@?$output_processor@DV?$string_output_adapter@D@__crt_stdio_output@@V?$format_validation_base@DV?$string_output_adapter@D@__crt_stdio_output@@@2@@__crt_stdio_output@@AEBA?AW4state@2@DW432@@Z 0000000180039950 f i libucrtd:output.obj
 0001:000389e0       ?find_next_state@?$output_processor@DV?$string_output_adapter@D@__crt_stdio_output@@V?$positional_parameter_base@DV?$string_output_adapter@D@__crt_stdio_output@@@2@@__crt_stdio_output@@AEBA?AW4state@2@DW432@@Z 00000001800399e0 f i libucrtd:output.obj
 0001:00038a70       ?find_next_state@?$output_processor@DV?$string_output_adapter@D@__crt_stdio_output@@V?$standard_base@DV?$string_output_adapter@D@__crt_stdio_output@@@2@@__crt_stdio_output@@AEBA?AW4state@2@DW432@@Z 0000000180039a70 f i libucrtd:output.obj
 0001:00038b00       ?find_next_state@?$output_processor@_WV?$stream_output_adapter@_W@__crt_stdio_output@@V?$format_validation_base@_WV?$stream_output_adapter@_W@__crt_stdio_output@@@2@@__crt_stdio_output@@AEBA?AW4state@2@_WW432@@Z 0000000180039b00 f i libucrtd:output.obj
 0001:00038b90       ?find_next_state@?$output_processor@_WV?$stream_output_adapter@_W@__crt_stdio_output@@V?$positional_parameter_base@_WV?$stream_output_adapter@_W@__crt_stdio_output@@@2@@__crt_stdio_output@@AEBA?AW4state@2@_WW432@@Z 0000000180039b90 f i libucrtd:output.obj
 0001:00038c20       ?find_next_state@?$output_processor@_WV?$stream_output_adapter@_W@__crt_stdio_output@@V?$standard_base@_WV?$stream_output_adapter@_W@__crt_stdio_output@@@2@@__crt_stdio_output@@AEBA?AW4state@2@_WW432@@Z 0000000180039c20 f i libucrtd:output.obj
 0001:00038cb0       ?find_next_state@?$output_processor@_WV?$string_output_adapter@_W@__crt_stdio_output@@V?$format_validation_base@_WV?$string_output_adapter@_W@__crt_stdio_output@@@2@@__crt_stdio_output@@AEBA?AW4state@2@_WW432@@Z 0000000180039cb0 f i libucrtd:output.obj
 0001:00038d40       ?find_next_state@?$output_processor@_WV?$string_output_adapter@_W@__crt_stdio_output@@V?$positional_parameter_base@_WV?$string_output_adapter@_W@__crt_stdio_output@@@2@@__crt_stdio_output@@AEBA?AW4state@2@_WW432@@Z 0000000180039d40 f i libucrtd:output.obj
 0001:00038dd0       ?find_next_state@?$output_processor@_WV?$string_output_adapter@_W@__crt_stdio_output@@V?$standard_base@_WV?$string_output_adapter@_W@__crt_stdio_output@@@2@@__crt_stdio_output@@AEBA?AW4state@2@_WW432@@Z 0000000180039dd0 f i libucrtd:output.obj
 0001:00038e60       ?force_decimal_point@__crt_stdio_output@@YAXPEADQEAU__crt_locale_pointers@@@Z 0000000180039e60 f i libucrtd:output.obj
 0001:00038f60       ?get@__crt_deferred_errno_cache@@QEAAAEAHXZ 0000000180039f60 f i libucrtd:output.obj
 0001:00038f90       ?get_flags@__crt_stdio_stream@@QEBAJXZ 0000000180039f90 f i libucrtd:output.obj
 0001:00038fc0       ?get_parameter_type@?$positional_parameter_base@DV?$stream_output_adapter@D@__crt_stdio_output@@@__crt_stdio_output@@CA?AW4parameter_type@12@F@Z 0000000180039fc0 f i libucrtd:output.obj
 0001:00038fd0       ?get_parameter_type@?$positional_parameter_base@DV?$stream_output_adapter@D@__crt_stdio_output@@@__crt_stdio_output@@CA?AW4parameter_type@12@G@Z 0000000180039fd0 f i libucrtd:output.obj
 0001:00038fe0       ?get_parameter_type@?$positional_parameter_base@DV?$stream_output_adapter@D@__crt_stdio_output@@@__crt_stdio_output@@CA?AW4parameter_type@12@H@Z 0000000180039fe0 f i libucrtd:output.obj
 0001:00038ff0       ?get_parameter_type@?$positional_parameter_base@DV?$stream_output_adapter@D@__crt_stdio_output@@@__crt_stdio_output@@CA?AW4parameter_type@12@I@Z 0000000180039ff0 f i libucrtd:output.obj
 0001:00039000       ?get_parameter_type@?$positional_parameter_base@DV?$stream_output_adapter@D@__crt_stdio_output@@@__crt_stdio_output@@CA?AW4parameter_type@12@U_CRT_DOUBLE@@@Z 000000018003a000 f i libucrtd:output.obj
 0001:00039010       ?get_parameter_type@?$positional_parameter_base@DV?$stream_output_adapter@D@__crt_stdio_output@@@__crt_stdio_output@@CA?AW4parameter_type@12@_J@Z 000000018003a010 f i libucrtd:output.obj
 0001:00039020       ?get_parameter_type@?$positional_parameter_base@DV?$stream_output_adapter@D@__crt_stdio_output@@@__crt_stdio_output@@CA?AW4parameter_type@12@_K@Z 000000018003a020 f i libucrtd:output.obj
 0001:00039030       ?get_parameter_type@?$positional_parameter_base@DV?$stream_output_adapter@D@__crt_stdio_output@@@__crt_stdio_output@@CA?AW4parameter_type@12@_W@Z 000000018003a030 f i libucrtd:output.obj
 0001:00039040       ?get_parameter_type@?$positional_parameter_base@DV?$string_output_adapter@D@__crt_stdio_output@@@__crt_stdio_output@@CA?AW4parameter_type@12@F@Z 000000018003a040 f i libucrtd:output.obj
 0001:00039050       ?get_parameter_type@?$positional_parameter_base@DV?$string_output_adapter@D@__crt_stdio_output@@@__crt_stdio_output@@CA?AW4parameter_type@12@G@Z 000000018003a050 f i libucrtd:output.obj
 0001:00039060       ?get_parameter_type@?$positional_parameter_base@DV?$string_output_adapter@D@__crt_stdio_output@@@__crt_stdio_output@@CA?AW4parameter_type@12@H@Z 000000018003a060 f i libucrtd:output.obj
 0001:00039070       ?get_parameter_type@?$positional_parameter_base@DV?$string_output_adapter@D@__crt_stdio_output@@@__crt_stdio_output@@CA?AW4parameter_type@12@I@Z 000000018003a070 f i libucrtd:output.obj
 0001:00039080       ?get_parameter_type@?$positional_parameter_base@DV?$string_output_adapter@D@__crt_stdio_output@@@__crt_stdio_output@@CA?AW4parameter_type@12@U_CRT_DOUBLE@@@Z 000000018003a080 f i libucrtd:output.obj
 0001:00039090       ?get_parameter_type@?$positional_parameter_base@DV?$string_output_adapter@D@__crt_stdio_output@@@__crt_stdio_output@@CA?AW4parameter_type@12@_J@Z 000000018003a090 f i libucrtd:output.obj
 0001:000390a0       ?get_parameter_type@?$positional_parameter_base@DV?$string_output_adapter@D@__crt_stdio_output@@@__crt_stdio_output@@CA?AW4parameter_type@12@_K@Z 000000018003a0a0 f i libucrtd:output.obj
 0001:000390b0       ?get_parameter_type@?$positional_parameter_base@DV?$string_output_adapter@D@__crt_stdio_output@@@__crt_stdio_output@@CA?AW4parameter_type@12@_W@Z 000000018003a0b0 f i libucrtd:output.obj
 0001:000390c0       ?get_parameter_type@?$positional_parameter_base@_WV?$stream_output_adapter@_W@__crt_stdio_output@@@__crt_stdio_output@@CA?AW4parameter_type@12@F@Z 000000018003a0c0 f i libucrtd:output.obj
 0001:000390d0       ?get_parameter_type@?$positional_parameter_base@_WV?$stream_output_adapter@_W@__crt_stdio_output@@@__crt_stdio_output@@CA?AW4parameter_type@12@G@Z 000000018003a0d0 f i libucrtd:output.obj
 0001:000390e0       ?get_parameter_type@?$positional_parameter_base@_WV?$stream_output_adapter@_W@__crt_stdio_output@@@__crt_stdio_output@@CA?AW4parameter_type@12@H@Z 000000018003a0e0 f i libucrtd:output.obj
 0001:000390f0       ?get_parameter_type@?$positional_parameter_base@_WV?$stream_output_adapter@_W@__crt_stdio_output@@@__crt_stdio_output@@CA?AW4parameter_type@12@I@Z 000000018003a0f0 f i libucrtd:output.obj
 0001:00039100       ?get_parameter_type@?$positional_parameter_base@_WV?$stream_output_adapter@_W@__crt_stdio_output@@@__crt_stdio_output@@CA?AW4parameter_type@12@U_CRT_DOUBLE@@@Z 000000018003a100 f i libucrtd:output.obj
 0001:00039110       ?get_parameter_type@?$positional_parameter_base@_WV?$stream_output_adapter@_W@__crt_stdio_output@@@__crt_stdio_output@@CA?AW4parameter_type@12@_J@Z 000000018003a110 f i libucrtd:output.obj
 0001:00039120       ?get_parameter_type@?$positional_parameter_base@_WV?$stream_output_adapter@_W@__crt_stdio_output@@@__crt_stdio_output@@CA?AW4parameter_type@12@_K@Z 000000018003a120 f i libucrtd:output.obj
 0001:00039130       ?get_parameter_type@?$positional_parameter_base@_WV?$stream_output_adapter@_W@__crt_stdio_output@@@__crt_stdio_output@@CA?AW4parameter_type@12@_W@Z 000000018003a130 f i libucrtd:output.obj
 0001:00039140       ?get_parameter_type@?$positional_parameter_base@_WV?$string_output_adapter@_W@__crt_stdio_output@@@__crt_stdio_output@@CA?AW4parameter_type@12@F@Z 000000018003a140 f i libucrtd:output.obj
 0001:00039150       ?get_parameter_type@?$positional_parameter_base@_WV?$string_output_adapter@_W@__crt_stdio_output@@@__crt_stdio_output@@CA?AW4parameter_type@12@G@Z 000000018003a150 f i libucrtd:output.obj
 0001:00039160       ?get_parameter_type@?$positional_parameter_base@_WV?$string_output_adapter@_W@__crt_stdio_output@@@__crt_stdio_output@@CA?AW4parameter_type@12@H@Z 000000018003a160 f i libucrtd:output.obj
 0001:00039170       ?get_parameter_type@?$positional_parameter_base@_WV?$string_output_adapter@_W@__crt_stdio_output@@@__crt_stdio_output@@CA?AW4parameter_type@12@I@Z 000000018003a170 f i libucrtd:output.obj
 0001:00039180       ?get_parameter_type@?$positional_parameter_base@_WV?$string_output_adapter@_W@__crt_stdio_output@@@__crt_stdio_output@@CA?AW4parameter_type@12@U_CRT_DOUBLE@@@Z 000000018003a180 f i libucrtd:output.obj
 0001:00039190       ?get_parameter_type@?$positional_parameter_base@_WV?$string_output_adapter@_W@__crt_stdio_output@@@__crt_stdio_output@@CA?AW4parameter_type@12@_J@Z 000000018003a190 f i libucrtd:output.obj
 0001:000391a0       ?get_parameter_type@?$positional_parameter_base@_WV?$string_output_adapter@_W@__crt_stdio_output@@@__crt_stdio_output@@CA?AW4parameter_type@12@_K@Z 000000018003a1a0 f i libucrtd:output.obj
 0001:000391b0       ?get_parameter_type@?$positional_parameter_base@_WV?$string_output_adapter@_W@__crt_stdio_output@@@__crt_stdio_output@@CA?AW4parameter_type@12@_W@Z 000000018003a1b0 f i libucrtd:output.obj
 0001:000391c0       ?has_flag@?$output_processor@DV?$stream_output_adapter@D@__crt_stdio_output@@V?$format_validation_base@DV?$stream_output_adapter@D@__crt_stdio_output@@@2@@__crt_stdio_output@@AEBA_NI@Z 000000018003a1c0 f i libucrtd:output.obj
 0001:00039200       ?has_flag@?$output_processor@DV?$stream_output_adapter@D@__crt_stdio_output@@V?$positional_parameter_base@DV?$stream_output_adapter@D@__crt_stdio_output@@@2@@__crt_stdio_output@@AEBA_NI@Z 000000018003a200 f i libucrtd:output.obj
 0001:00039240       ?has_flag@?$output_processor@DV?$stream_output_adapter@D@__crt_stdio_output@@V?$standard_base@DV?$stream_output_adapter@D@__crt_stdio_output@@@2@@__crt_stdio_output@@AEBA_NI@Z 000000018003a240 f i libucrtd:output.obj
 0001:00039280       ?has_flag@?$output_processor@DV?$string_output_adapter@D@__crt_stdio_output@@V?$format_validation_base@DV?$string_output_adapter@D@__crt_stdio_output@@@2@@__crt_stdio_output@@AEBA_NI@Z 000000018003a280 f i libucrtd:output.obj
 0001:000392c0       ?has_flag@?$output_processor@DV?$string_output_adapter@D@__crt_stdio_output@@V?$positional_parameter_base@DV?$string_output_adapter@D@__crt_stdio_output@@@2@@__crt_stdio_output@@AEBA_NI@Z 000000018003a2c0 f i libucrtd:output.obj
 0001:00039300       ?has_flag@?$output_processor@DV?$string_output_adapter@D@__crt_stdio_output@@V?$standard_base@DV?$string_output_adapter@D@__crt_stdio_output@@@2@@__crt_stdio_output@@AEBA_NI@Z 000000018003a300 f i libucrtd:output.obj
 0001:00039340       ?has_flag@?$output_processor@_WV?$stream_output_adapter@_W@__crt_stdio_output@@V?$format_validation_base@_WV?$stream_output_adapter@_W@__crt_stdio_output@@@2@@__crt_stdio_output@@AEBA_NI@Z 000000018003a340 f i libucrtd:output.obj
 0001:00039380       ?has_flag@?$output_processor@_WV?$stream_output_adapter@_W@__crt_stdio_output@@V?$positional_parameter_base@_WV?$stream_output_adapter@_W@__crt_stdio_output@@@2@@__crt_stdio_output@@AEBA_NI@Z 000000018003a380 f i libucrtd:output.obj
 0001:000393c0       ?has_flag@?$output_processor@_WV?$stream_output_adapter@_W@__crt_stdio_output@@V?$standard_base@_WV?$stream_output_adapter@_W@__crt_stdio_output@@@2@@__crt_stdio_output@@AEBA_NI@Z 000000018003a3c0 f i libucrtd:output.obj
 0001:00039400       ?has_flag@?$output_processor@_WV?$string_output_adapter@_W@__crt_stdio_output@@V?$format_validation_base@_WV?$string_output_adapter@_W@__crt_stdio_output@@@2@@__crt_stdio_output@@AEBA_NI@Z 000000018003a400 f i libucrtd:output.obj
 0001:00039440       ?has_flag@?$output_processor@_WV?$string_output_adapter@_W@__crt_stdio_output@@V?$positional_parameter_base@_WV?$string_output_adapter@_W@__crt_stdio_output@@@2@@__crt_stdio_output@@AEBA_NI@Z 000000018003a440 f i libucrtd:output.obj
 0001:00039480       ?has_flag@?$output_processor@_WV?$string_output_adapter@_W@__crt_stdio_output@@V?$standard_base@_WV?$string_output_adapter@_W@__crt_stdio_output@@@2@@__crt_stdio_output@@AEBA_NI@Z 000000018003a480 f i libucrtd:output.obj
 0001:000394c0       ?is_positional_parameter_reappearance_consistent@?$positional_parameter_base@DV?$stream_output_adapter@D@__crt_stdio_output@@@__crt_stdio_output@@AEAA_NAEBUparameter_data@12@W4parameter_type@12@DW4length_modifier@2@@Z 000000018003a4c0 f i libucrtd:output.obj
 0001:00039720       ?is_positional_parameter_reappearance_consistent@?$positional_parameter_base@DV?$string_output_adapter@D@__crt_stdio_output@@@__crt_stdio_output@@AEAA_NAEBUparameter_data@12@W4parameter_type@12@DW4length_modifier@2@@Z 000000018003a720 f i libucrtd:output.obj
 0001:00039980       ?is_positional_parameter_reappearance_consistent@?$positional_parameter_base@_WV?$stream_output_adapter@_W@__crt_stdio_output@@@__crt_stdio_output@@AEAA_NAEBUparameter_data@12@W4parameter_type@12@_WW4length_modifier@2@@Z 000000018003a980 f i libucrtd:output.obj
 0001:00039be0       ?is_positional_parameter_reappearance_consistent@?$positional_parameter_base@_WV?$string_output_adapter@_W@__crt_stdio_output@@@__crt_stdio_output@@AEAA_NAEBUparameter_data@12@W4parameter_type@12@_WW4length_modifier@2@@Z 000000018003abe0 f i libucrtd:output.obj
 0001:00039e40       ?is_string_backed@__crt_stdio_stream@@QEBA_NXZ 000000018003ae40 f i libucrtd:output.obj
 0001:00039e80       ?narrow_null_string@?$output_processor@DV?$stream_output_adapter@D@__crt_stdio_output@@V?$format_validation_base@DV?$stream_output_adapter@D@__crt_stdio_output@@@2@@__crt_stdio_output@@CAPEADXZ 000000018003ae80 f i libucrtd:output.obj
 0001:00039e90       ?narrow_null_string@?$output_processor@DV?$stream_output_adapter@D@__crt_stdio_output@@V?$positional_parameter_base@DV?$stream_output_adapter@D@__crt_stdio_output@@@2@@__crt_stdio_output@@CAPEADXZ 000000018003ae90 f i libucrtd:output.obj
 0001:00039ea0       ?narrow_null_string@?$output_processor@DV?$stream_output_adapter@D@__crt_stdio_output@@V?$standard_base@DV?$stream_output_adapter@D@__crt_stdio_output@@@2@@__crt_stdio_output@@CAPEADXZ 000000018003aea0 f i libucrtd:output.obj
 0001:00039eb0       ?narrow_null_string@?$output_processor@DV?$string_output_adapter@D@__crt_stdio_output@@V?$format_validation_base@DV?$string_output_adapter@D@__crt_stdio_output@@@2@@__crt_stdio_output@@CAPEADXZ 000000018003aeb0 f i libucrtd:output.obj
 0001:00039ec0       ?narrow_null_string@?$output_processor@DV?$string_output_adapter@D@__crt_stdio_output@@V?$positional_parameter_base@DV?$string_output_adapter@D@__crt_stdio_output@@@2@@__crt_stdio_output@@CAPEADXZ 000000018003aec0 f i libucrtd:output.obj
 0001:00039ed0       ?narrow_null_string@?$output_processor@DV?$string_output_adapter@D@__crt_stdio_output@@V?$standard_base@DV?$string_output_adapter@D@__crt_stdio_output@@@2@@__crt_stdio_output@@CAPEADXZ 000000018003aed0 f i libucrtd:output.obj
 0001:00039ee0       ?narrow_null_string@?$output_processor@_WV?$stream_output_adapter@_W@__crt_stdio_output@@V?$format_validation_base@_WV?$stream_output_adapter@_W@__crt_stdio_output@@@2@@__crt_stdio_output@@CAPEADXZ 000000018003aee0 f i libucrtd:output.obj
 0001:00039ef0       ?narrow_null_string@?$output_processor@_WV?$stream_output_adapter@_W@__crt_stdio_output@@V?$positional_parameter_base@_WV?$stream_output_adapter@_W@__crt_stdio_output@@@2@@__crt_stdio_output@@CAPEADXZ 000000018003aef0 f i libucrtd:output.obj
 0001:00039f00       ?narrow_null_string@?$output_processor@_WV?$stream_output_adapter@_W@__crt_stdio_output@@V?$standard_base@_WV?$stream_output_adapter@_W@__crt_stdio_output@@@2@@__crt_stdio_output@@CAPEADXZ 000000018003af00 f i libucrtd:output.obj
 0001:00039f10       ?narrow_null_string@?$output_processor@_WV?$string_output_adapter@_W@__crt_stdio_output@@V?$format_validation_base@_WV?$string_output_adapter@_W@__crt_stdio_output@@@2@@__crt_stdio_output@@CAPEADXZ 000000018003af10 f i libucrtd:output.obj
 0001:00039f20       ?narrow_null_string@?$output_processor@_WV?$string_output_adapter@_W@__crt_stdio_output@@V?$positional_parameter_base@_WV?$string_output_adapter@_W@__crt_stdio_output@@@2@@__crt_stdio_output@@CAPEADXZ 000000018003af20 f i libucrtd:output.obj
 0001:00039f30       ?narrow_null_string@?$output_processor@_WV?$string_output_adapter@_W@__crt_stdio_output@@V?$standard_base@_WV?$string_output_adapter@_W@__crt_stdio_output@@@2@@__crt_stdio_output@@CAPEADXZ 000000018003af30 f i libucrtd:output.obj
 0001:00039f40       ?parse_int_from_format_string@?$output_processor@DV?$stream_output_adapter@D@__crt_stdio_output@@V?$format_validation_base@DV?$stream_output_adapter@D@__crt_stdio_output@@@2@@__crt_stdio_output@@AEAA_NQEAH@Z 000000018003af40 f i libucrtd:output.obj
 0001:0003a030       ?parse_int_from_format_string@?$output_processor@DV?$stream_output_adapter@D@__crt_stdio_output@@V?$positional_parameter_base@DV?$stream_output_adapter@D@__crt_stdio_output@@@2@@__crt_stdio_output@@AEAA_NQEAH@Z 000000018003b030 f i libucrtd:output.obj
 0001:0003a120       ?parse_int_from_format_string@?$output_processor@DV?$stream_output_adapter@D@__crt_stdio_output@@V?$standard_base@DV?$stream_output_adapter@D@__crt_stdio_output@@@2@@__crt_stdio_output@@AEAA_NQEAH@Z 000000018003b120 f i libucrtd:output.obj
 0001:0003a210       ?parse_int_from_format_string@?$output_processor@DV?$string_output_adapter@D@__crt_stdio_output@@V?$format_validation_base@DV?$string_output_adapter@D@__crt_stdio_output@@@2@@__crt_stdio_output@@AEAA_NQEAH@Z 000000018003b210 f i libucrtd:output.obj
 0001:0003a300       ?parse_int_from_format_string@?$output_processor@DV?$string_output_adapter@D@__crt_stdio_output@@V?$positional_parameter_base@DV?$string_output_adapter@D@__crt_stdio_output@@@2@@__crt_stdio_output@@AEAA_NQEAH@Z 000000018003b300 f i libucrtd:output.obj
 0001:0003a3f0       ?parse_int_from_format_string@?$output_processor@DV?$string_output_adapter@D@__crt_stdio_output@@V?$standard_base@DV?$string_output_adapter@D@__crt_stdio_output@@@2@@__crt_stdio_output@@AEAA_NQEAH@Z 000000018003b3f0 f i libucrtd:output.obj
 0001:0003a4e0       ?parse_int_from_format_string@?$output_processor@_WV?$stream_output_adapter@_W@__crt_stdio_output@@V?$format_validation_base@_WV?$stream_output_adapter@_W@__crt_stdio_output@@@2@@__crt_stdio_output@@AEAA_NQEAH@Z 000000018003b4e0 f i libucrtd:output.obj
 0001:0003a5d0       ?parse_int_from_format_string@?$output_processor@_WV?$stream_output_adapter@_W@__crt_stdio_output@@V?$positional_parameter_base@_WV?$stream_output_adapter@_W@__crt_stdio_output@@@2@@__crt_stdio_output@@AEAA_NQEAH@Z 000000018003b5d0 f i libucrtd:output.obj
 0001:0003a6c0       ?parse_int_from_format_string@?$output_processor@_WV?$stream_output_adapter@_W@__crt_stdio_output@@V?$standard_base@_WV?$stream_output_adapter@_W@__crt_stdio_output@@@2@@__crt_stdio_output@@AEAA_NQEAH@Z 000000018003b6c0 f i libucrtd:output.obj
 0001:0003a7b0       ?parse_int_from_format_string@?$output_processor@_WV?$string_output_adapter@_W@__crt_stdio_output@@V?$format_validation_base@_WV?$string_output_adapter@_W@__crt_stdio_output@@@2@@__crt_stdio_output@@AEAA_NQEAH@Z 000000018003b7b0 f i libucrtd:output.obj
 0001:0003a8a0       ?parse_int_from_format_string@?$output_processor@_WV?$string_output_adapter@_W@__crt_stdio_output@@V?$positional_parameter_base@_WV?$string_output_adapter@_W@__crt_stdio_output@@@2@@__crt_stdio_output@@AEAA_NQEAH@Z 000000018003b8a0 f i libucrtd:output.obj
 0001:0003a990       ?parse_int_from_format_string@?$output_processor@_WV?$string_output_adapter@_W@__crt_stdio_output@@V?$standard_base@_WV?$string_output_adapter@_W@__crt_stdio_output@@@2@@__crt_stdio_output@@AEAA_NQEAH@Z 000000018003b990 f i libucrtd:output.obj
 0001:0003aa80       ?process@?$output_processor@DV?$stream_output_adapter@D@__crt_stdio_output@@V?$format_validation_base@DV?$stream_output_adapter@D@__crt_stdio_output@@@2@@__crt_stdio_output@@QEAAHXZ 000000018003ba80 f i libucrtd:output.obj
 0001:0003ade0       ?process@?$output_processor@DV?$stream_output_adapter@D@__crt_stdio_output@@V?$positional_parameter_base@DV?$stream_output_adapter@D@__crt_stdio_output@@@2@@__crt_stdio_output@@QEAAHXZ 000000018003bde0 f i libucrtd:output.obj
 0001:0003b140       ?process@?$output_processor@DV?$stream_output_adapter@D@__crt_stdio_output@@V?$standard_base@DV?$stream_output_adapter@D@__crt_stdio_output@@@2@@__crt_stdio_output@@QEAAHXZ 000000018003c140 f i libucrtd:output.obj
 0001:0003b4a0       ?process@?$output_processor@DV?$string_output_adapter@D@__crt_stdio_output@@V?$format_validation_base@DV?$string_output_adapter@D@__crt_stdio_output@@@2@@__crt_stdio_output@@QEAAHXZ 000000018003c4a0 f i libucrtd:output.obj
 0001:0003b800       ?process@?$output_processor@DV?$string_output_adapter@D@__crt_stdio_output@@V?$positional_parameter_base@DV?$string_output_adapter@D@__crt_stdio_output@@@2@@__crt_stdio_output@@QEAAHXZ 000000018003c800 f i libucrtd:output.obj
 0001:0003bb60       ?process@?$output_processor@DV?$string_output_adapter@D@__crt_stdio_output@@V?$standard_base@DV?$string_output_adapter@D@__crt_stdio_output@@@2@@__crt_stdio_output@@QEAAHXZ 000000018003cb60 f i libucrtd:output.obj
 0001:0003bec0       ?process@?$output_processor@_WV?$stream_output_adapter@_W@__crt_stdio_output@@V?$format_validation_base@_WV?$stream_output_adapter@_W@__crt_stdio_output@@@2@@__crt_stdio_output@@QEAAHXZ 000000018003cec0 f i libucrtd:output.obj
 0001:0003c220       ?process@?$output_processor@_WV?$stream_output_adapter@_W@__crt_stdio_output@@V?$positional_parameter_base@_WV?$stream_output_adapter@_W@__crt_stdio_output@@@2@@__crt_stdio_output@@QEAAHXZ 000000018003d220 f i libucrtd:output.obj
 0001:0003c580       ?process@?$output_processor@_WV?$stream_output_adapter@_W@__crt_stdio_output@@V?$standard_base@_WV?$stream_output_adapter@_W@__crt_stdio_output@@@2@@__crt_stdio_output@@QEAAHXZ 000000018003d580 f i libucrtd:output.obj
 0001:0003c8e0       ?process@?$output_processor@_WV?$string_output_adapter@_W@__crt_stdio_output@@V?$format_validation_base@_WV?$string_output_adapter@_W@__crt_stdio_output@@@2@@__crt_stdio_output@@QEAAHXZ 000000018003d8e0 f i libucrtd:output.obj
 0001:0003cc40       ?process@?$output_processor@_WV?$string_output_adapter@_W@__crt_stdio_output@@V?$positional_parameter_base@_WV?$string_output_adapter@_W@__crt_stdio_output@@@2@@__crt_stdio_output@@QEAAHXZ 000000018003dc40 f i libucrtd:output.obj
 0001:0003cfa0       ?process@?$output_processor@_WV?$string_output_adapter@_W@__crt_stdio_output@@V?$standard_base@_WV?$string_output_adapter@_W@__crt_stdio_output@@@2@@__crt_stdio_output@@QEAAHXZ 000000018003dfa0 f i libucrtd:output.obj
 0001:0003d300       ?public_stream@__crt_stdio_stream@@QEBAPEAU_iobuf@@XZ 000000018003e300 f i libucrtd:output.obj
 0001:0003d310       ?set_flag@?$output_processor@DV?$stream_output_adapter@D@__crt_stdio_output@@V?$format_validation_base@DV?$stream_output_adapter@D@__crt_stdio_output@@@2@@__crt_stdio_output@@AEAAXI@Z 000000018003e310 f i libucrtd:output.obj
 0001:0003d330       ?set_flag@?$output_processor@DV?$stream_output_adapter@D@__crt_stdio_output@@V?$positional_parameter_base@DV?$stream_output_adapter@D@__crt_stdio_output@@@2@@__crt_stdio_output@@AEAAXI@Z 000000018003e330 f i libucrtd:output.obj
 0001:0003d350       ?set_flag@?$output_processor@DV?$stream_output_adapter@D@__crt_stdio_output@@V?$standard_base@DV?$stream_output_adapter@D@__crt_stdio_output@@@2@@__crt_stdio_output@@AEAAXI@Z 000000018003e350 f i libucrtd:output.obj
 0001:0003d370       ?set_flag@?$output_processor@DV?$string_output_adapter@D@__crt_stdio_output@@V?$format_validation_base@DV?$string_output_adapter@D@__crt_stdio_output@@@2@@__crt_stdio_output@@AEAAXI@Z 000000018003e370 f i libucrtd:output.obj
 0001:0003d390       ?set_flag@?$output_processor@DV?$string_output_adapter@D@__crt_stdio_output@@V?$positional_parameter_base@DV?$string_output_adapter@D@__crt_stdio_output@@@2@@__crt_stdio_output@@AEAAXI@Z 000000018003e390 f i libucrtd:output.obj
 0001:0003d3b0       ?set_flag@?$output_processor@DV?$string_output_adapter@D@__crt_stdio_output@@V?$standard_base@DV?$string_output_adapter@D@__crt_stdio_output@@@2@@__crt_stdio_output@@AEAAXI@Z 000000018003e3b0 f i libucrtd:output.obj
 0001:0003d3d0       ?set_flag@?$output_processor@_WV?$stream_output_adapter@_W@__crt_stdio_output@@V?$format_validation_base@_WV?$stream_output_adapter@_W@__crt_stdio_output@@@2@@__crt_stdio_output@@AEAAXI@Z 000000018003e3d0 f i libucrtd:output.obj
 0001:0003d3f0       ?set_flag@?$output_processor@_WV?$stream_output_adapter@_W@__crt_stdio_output@@V?$positional_parameter_base@_WV?$stream_output_adapter@_W@__crt_stdio_output@@@2@@__crt_stdio_output@@AEAAXI@Z 000000018003e3f0 f i libucrtd:output.obj
 0001:0003d410       ?set_flag@?$output_processor@_WV?$stream_output_adapter@_W@__crt_stdio_output@@V?$standard_base@_WV?$stream_output_adapter@_W@__crt_stdio_output@@@2@@__crt_stdio_output@@AEAAXI@Z 000000018003e410 f i libucrtd:output.obj
 0001:0003d430       ?set_flag@?$output_processor@_WV?$string_output_adapter@_W@__crt_stdio_output@@V?$format_validation_base@_WV?$string_output_adapter@_W@__crt_stdio_output@@@2@@__crt_stdio_output@@AEAAXI@Z 000000018003e430 f i libucrtd:output.obj
 0001:0003d450       ?set_flag@?$output_processor@_WV?$string_output_adapter@_W@__crt_stdio_output@@V?$positional_parameter_base@_WV?$string_output_adapter@_W@__crt_stdio_output@@@2@@__crt_stdio_output@@AEAAXI@Z 000000018003e450 f i libucrtd:output.obj
 0001:0003d470       ?set_flag@?$output_processor@_WV?$string_output_adapter@_W@__crt_stdio_output@@V?$standard_base@_WV?$string_output_adapter@_W@__crt_stdio_output@@@2@@__crt_stdio_output@@AEAAXI@Z 000000018003e470 f i libucrtd:output.obj
 0001:0003d490       ?should_format@?$positional_parameter_base@DV?$stream_output_adapter@D@__crt_stdio_output@@@__crt_stdio_output@@IEAA_NXZ 000000018003e490 f i libucrtd:output.obj
 0001:0003d4d0       ?should_format@?$positional_parameter_base@DV?$string_output_adapter@D@__crt_stdio_output@@@__crt_stdio_output@@IEAA_NXZ 000000018003e4d0 f i libucrtd:output.obj
 0001:0003d510       ?should_format@?$positional_parameter_base@_WV?$stream_output_adapter@_W@__crt_stdio_output@@@__crt_stdio_output@@IEAA_NXZ 000000018003e510 f i libucrtd:output.obj
 0001:0003d550       ?should_format@?$positional_parameter_base@_WV?$string_output_adapter@_W@__crt_stdio_output@@@__crt_stdio_output@@IEAA_NXZ 000000018003e550 f i libucrtd:output.obj
 0001:0003d590       ?should_format@?$standard_base@DV?$stream_output_adapter@D@__crt_stdio_output@@@__crt_stdio_output@@IEAA_NXZ 000000018003e590 f i libucrtd:output.obj
 0001:0003d5a0       ?should_format@?$standard_base@DV?$string_output_adapter@D@__crt_stdio_output@@@__crt_stdio_output@@IEAA_NXZ 000000018003e5a0 f i libucrtd:output.obj
 0001:0003d5b0       ?should_format@?$standard_base@_WV?$stream_output_adapter@_W@__crt_stdio_output@@@__crt_stdio_output@@IEAA_NXZ 000000018003e5b0 f i libucrtd:output.obj
 0001:0003d5c0       ?should_format@?$standard_base@_WV?$string_output_adapter@_W@__crt_stdio_output@@@__crt_stdio_output@@IEAA_NXZ 000000018003e5c0 f i libucrtd:output.obj
 0001:0003d5d0       ?should_skip_normal_state_processing@?$positional_parameter_base@DV?$stream_output_adapter@D@__crt_stdio_output@@@__crt_stdio_output@@IEAA_NXZ 000000018003e5d0 f i libucrtd:output.obj
 0001:0003d620       ?should_skip_normal_state_processing@?$positional_parameter_base@DV?$string_output_adapter@D@__crt_stdio_output@@@__crt_stdio_output@@IEAA_NXZ 000000018003e620 f i libucrtd:output.obj
 0001:0003d670       ?should_skip_normal_state_processing@?$positional_parameter_base@_WV?$stream_output_adapter@_W@__crt_stdio_output@@@__crt_stdio_output@@IEAA_NXZ 000000018003e670 f i libucrtd:output.obj
 0001:0003d6c0       ?should_skip_normal_state_processing@?$positional_parameter_base@_WV?$string_output_adapter@_W@__crt_stdio_output@@@__crt_stdio_output@@IEAA_NXZ 000000018003e6c0 f i libucrtd:output.obj
 0001:0003d710       ?should_skip_normal_state_processing@?$standard_base@DV?$stream_output_adapter@D@__crt_stdio_output@@@__crt_stdio_output@@IEAA_NXZ 000000018003e710 f i libucrtd:output.obj
 0001:0003d720       ?should_skip_normal_state_processing@?$standard_base@DV?$string_output_adapter@D@__crt_stdio_output@@@__crt_stdio_output@@IEAA_NXZ 000000018003e720 f i libucrtd:output.obj
 0001:0003d730       ?should_skip_normal_state_processing@?$standard_base@_WV?$stream_output_adapter@_W@__crt_stdio_output@@@__crt_stdio_output@@IEAA_NXZ 000000018003e730 f i libucrtd:output.obj
 0001:0003d740       ?should_skip_normal_state_processing@?$standard_base@_WV?$string_output_adapter@_W@__crt_stdio_output@@@__crt_stdio_output@@IEAA_NXZ 000000018003e740 f i libucrtd:output.obj
 0001:0003d750       ?should_skip_type_state_output@?$positional_parameter_base@DV?$stream_output_adapter@D@__crt_stdio_output@@@__crt_stdio_output@@IEBA_NXZ 000000018003e750 f i libucrtd:output.obj
 0001:0003d790       ?should_skip_type_state_output@?$positional_parameter_base@DV?$string_output_adapter@D@__crt_stdio_output@@@__crt_stdio_output@@IEBA_NXZ 000000018003e790 f i libucrtd:output.obj
 0001:0003d7d0       ?should_skip_type_state_output@?$positional_parameter_base@_WV?$stream_output_adapter@_W@__crt_stdio_output@@@__crt_stdio_output@@IEBA_NXZ 000000018003e7d0 f i libucrtd:output.obj
 0001:0003d810       ?should_skip_type_state_output@?$positional_parameter_base@_WV?$string_output_adapter@_W@__crt_stdio_output@@@__crt_stdio_output@@IEBA_NXZ 000000018003e810 f i libucrtd:output.obj
 0001:0003d850       ?should_skip_type_state_output@?$standard_base@DV?$stream_output_adapter@D@__crt_stdio_output@@@__crt_stdio_output@@IEBA_NXZ 000000018003e850 f i libucrtd:output.obj
 0001:0003d860       ?should_skip_type_state_output@?$standard_base@DV?$string_output_adapter@D@__crt_stdio_output@@@__crt_stdio_output@@IEBA_NXZ 000000018003e860 f i libucrtd:output.obj
 0001:0003d870       ?should_skip_type_state_output@?$standard_base@_WV?$stream_output_adapter@_W@__crt_stdio_output@@@__crt_stdio_output@@IEBA_NXZ 000000018003e870 f i libucrtd:output.obj
 0001:0003d880       ?should_skip_type_state_output@?$standard_base@_WV?$string_output_adapter@_W@__crt_stdio_output@@@__crt_stdio_output@@IEBA_NXZ 000000018003e880 f i libucrtd:output.obj
 0001:0003d890       ?state_case_dot@?$output_processor@DV?$stream_output_adapter@D@__crt_stdio_output@@V?$format_validation_base@DV?$stream_output_adapter@D@__crt_stdio_output@@@2@@__crt_stdio_output@@AEAA_NXZ 000000018003e890 f i libucrtd:output.obj
 0001:0003d8b0       ?state_case_dot@?$output_processor@DV?$stream_output_adapter@D@__crt_stdio_output@@V?$positional_parameter_base@DV?$stream_output_adapter@D@__crt_stdio_output@@@2@@__crt_stdio_output@@AEAA_NXZ 000000018003e8b0 f i libucrtd:output.obj
 0001:0003d8d0       ?state_case_dot@?$output_processor@DV?$stream_output_adapter@D@__crt_stdio_output@@V?$standard_base@DV?$stream_output_adapter@D@__crt_stdio_output@@@2@@__crt_stdio_output@@AEAA_NXZ 000000018003e8d0 f i libucrtd:output.obj
 0001:0003d8f0       ?state_case_dot@?$output_processor@DV?$string_output_adapter@D@__crt_stdio_output@@V?$format_validation_base@DV?$string_output_adapter@D@__crt_stdio_output@@@2@@__crt_stdio_output@@AEAA_NXZ 000000018003e8f0 f i libucrtd:output.obj
 0001:0003d910       ?state_case_dot@?$output_processor@DV?$string_output_adapter@D@__crt_stdio_output@@V?$positional_parameter_base@DV?$string_output_adapter@D@__crt_stdio_output@@@2@@__crt_stdio_output@@AEAA_NXZ 000000018003e910 f i libucrtd:output.obj
 0001:0003d930       ?state_case_dot@?$output_processor@DV?$string_output_adapter@D@__crt_stdio_output@@V?$standard_base@DV?$string_output_adapter@D@__crt_stdio_output@@@2@@__crt_stdio_output@@AEAA_NXZ 000000018003e930 f i libucrtd:output.obj
 0001:0003d950       ?state_case_dot@?$output_processor@_WV?$stream_output_adapter@_W@__crt_stdio_output@@V?$format_validation_base@_WV?$stream_output_adapter@_W@__crt_stdio_output@@@2@@__crt_stdio_output@@AEAA_NXZ 000000018003e950 f i libucrtd:output.obj
 0001:0003d970       ?state_case_dot@?$output_processor@_WV?$stream_output_adapter@_W@__crt_stdio_output@@V?$positional_parameter_base@_WV?$stream_output_adapter@_W@__crt_stdio_output@@@2@@__crt_stdio_output@@AEAA_NXZ 000000018003e970 f i libucrtd:output.obj
 0001:0003d990       ?state_case_dot@?$output_processor@_WV?$stream_output_adapter@_W@__crt_stdio_output@@V?$standard_base@_WV?$stream_output_adapter@_W@__crt_stdio_output@@@2@@__crt_stdio_output@@AEAA_NXZ 000000018003e990 f i libucrtd:output.obj
 0001:0003d9b0       ?state_case_dot@?$output_processor@_WV?$string_output_adapter@_W@__crt_stdio_output@@V?$format_validation_base@_WV?$string_output_adapter@_W@__crt_stdio_output@@@2@@__crt_stdio_output@@AEAA_NXZ 000000018003e9b0 f i libucrtd:output.obj
 0001:0003d9d0       ?state_case_dot@?$output_processor@_WV?$string_output_adapter@_W@__crt_stdio_output@@V?$positional_parameter_base@_WV?$string_output_adapter@_W@__crt_stdio_output@@@2@@__crt_stdio_output@@AEAA_NXZ 000000018003e9d0 f i libucrtd:output.obj
 0001:0003d9f0       ?state_case_dot@?$output_processor@_WV?$string_output_adapter@_W@__crt_stdio_output@@V?$standard_base@_WV?$string_output_adapter@_W@__crt_stdio_output@@@2@@__crt_stdio_output@@AEAA_NXZ 000000018003e9f0 f i libucrtd:output.obj
 0001:0003da10       ?state_case_flag@?$output_processor@DV?$stream_output_adapter@D@__crt_stdio_output@@V?$format_validation_base@DV?$stream_output_adapter@D@__crt_stdio_output@@@2@@__crt_stdio_output@@AEAA_NXZ 000000018003ea10 f i libucrtd:output.obj
 0001:0003dab0       ?state_case_flag@?$output_processor@DV?$stream_output_adapter@D@__crt_stdio_output@@V?$positional_parameter_base@DV?$stream_output_adapter@D@__crt_stdio_output@@@2@@__crt_stdio_output@@AEAA_NXZ 000000018003eab0 f i libucrtd:output.obj
 0001:0003db50       ?state_case_flag@?$output_processor@DV?$stream_output_adapter@D@__crt_stdio_output@@V?$standard_base@DV?$stream_output_adapter@D@__crt_stdio_output@@@2@@__crt_stdio_output@@AEAA_NXZ 000000018003eb50 f i libucrtd:output.obj
 0001:0003dbf0       ?state_case_flag@?$output_processor@DV?$string_output_adapter@D@__crt_stdio_output@@V?$format_validation_base@DV?$string_output_adapter@D@__crt_stdio_output@@@2@@__crt_stdio_output@@AEAA_NXZ 000000018003ebf0 f i libucrtd:output.obj
 0001:0003dc90       ?state_case_flag@?$output_processor@DV?$string_output_adapter@D@__crt_stdio_output@@V?$positional_parameter_base@DV?$string_output_adapter@D@__crt_stdio_output@@@2@@__crt_stdio_output@@AEAA_NXZ 000000018003ec90 f i libucrtd:output.obj
 0001:0003dd30       ?state_case_flag@?$output_processor@DV?$string_output_adapter@D@__crt_stdio_output@@V?$standard_base@DV?$string_output_adapter@D@__crt_stdio_output@@@2@@__crt_stdio_output@@AEAA_NXZ 000000018003ed30 f i libucrtd:output.obj
 0001:0003ddd0       ?state_case_flag@?$output_processor@_WV?$stream_output_adapter@_W@__crt_stdio_output@@V?$format_validation_base@_WV?$stream_output_adapter@_W@__crt_stdio_output@@@2@@__crt_stdio_output@@AEAA_NXZ 000000018003edd0 f i libucrtd:output.obj
 0001:0003de70       ?state_case_flag@?$output_processor@_WV?$stream_output_adapter@_W@__crt_stdio_output@@V?$positional_parameter_base@_WV?$stream_output_adapter@_W@__crt_stdio_output@@@2@@__crt_stdio_output@@AEAA_NXZ 000000018003ee70 f i libucrtd:output.obj
 0001:0003df10       ?state_case_flag@?$output_processor@_WV?$stream_output_adapter@_W@__crt_stdio_output@@V?$standard_base@_WV?$stream_output_adapter@_W@__crt_stdio_output@@@2@@__crt_stdio_output@@AEAA_NXZ 000000018003ef10 f i libucrtd:output.obj
 0001:0003dfb0       ?state_case_flag@?$output_processor@_WV?$string_output_adapter@_W@__crt_stdio_output@@V?$format_validation_base@_WV?$string_output_adapter@_W@__crt_stdio_output@@@2@@__crt_stdio_output@@AEAA_NXZ 000000018003efb0 f i libucrtd:output.obj
 0001:0003e050       ?state_case_flag@?$output_processor@_WV?$string_output_adapter@_W@__crt_stdio_output@@V?$positional_parameter_base@_WV?$string_output_adapter@_W@__crt_stdio_output@@@2@@__crt_stdio_output@@AEAA_NXZ 000000018003f050 f i libucrtd:output.obj
 0001:0003e0f0       ?state_case_flag@?$output_processor@_WV?$string_output_adapter@_W@__crt_stdio_output@@V?$standard_base@_WV?$string_output_adapter@_W@__crt_stdio_output@@@2@@__crt_stdio_output@@AEAA_NXZ 000000018003f0f0 f i libucrtd:output.obj
 0001:0003e190       ?state_case_normal@?$output_processor@DV?$stream_output_adapter@D@__crt_stdio_output@@V?$format_validation_base@DV?$stream_output_adapter@D@__crt_stdio_output@@@2@@__crt_stdio_output@@AEAA_NXZ 000000018003f190 f i libucrtd:output.obj
 0001:0003e270       ?state_case_normal@?$output_processor@DV?$stream_output_adapter@D@__crt_stdio_output@@V?$positional_parameter_base@DV?$stream_output_adapter@D@__crt_stdio_output@@@2@@__crt_stdio_output@@AEAA_NXZ 000000018003f270 f i libucrtd:output.obj
 0001:0003e350       ?state_case_normal@?$output_processor@DV?$stream_output_adapter@D@__crt_stdio_output@@V?$standard_base@DV?$stream_output_adapter@D@__crt_stdio_output@@@2@@__crt_stdio_output@@AEAA_NXZ 000000018003f350 f i libucrtd:output.obj
 0001:0003e430       ?state_case_normal@?$output_processor@DV?$string_output_adapter@D@__crt_stdio_output@@V?$format_validation_base@DV?$string_output_adapter@D@__crt_stdio_output@@@2@@__crt_stdio_output@@AEAA_NXZ 000000018003f430 f i libucrtd:output.obj
 0001:0003e510       ?state_case_normal@?$output_processor@DV?$string_output_adapter@D@__crt_stdio_output@@V?$positional_parameter_base@DV?$string_output_adapter@D@__crt_stdio_output@@@2@@__crt_stdio_output@@AEAA_NXZ 000000018003f510 f i libucrtd:output.obj
 0001:0003e5f0       ?state_case_normal@?$output_processor@DV?$string_output_adapter@D@__crt_stdio_output@@V?$standard_base@DV?$string_output_adapter@D@__crt_stdio_output@@@2@@__crt_stdio_output@@AEAA_NXZ 000000018003f5f0 f i libucrtd:output.obj
 0001:0003e6d0       ?state_case_normal@?$output_processor@_WV?$stream_output_adapter@_W@__crt_stdio_output@@V?$format_validation_base@_WV?$stream_output_adapter@_W@__crt_stdio_output@@@2@@__crt_stdio_output@@AEAA_NXZ 000000018003f6d0 f i libucrtd:output.obj
 0001:0003e7b0       ?state_case_normal@?$output_processor@_WV?$stream_output_adapter@_W@__crt_stdio_output@@V?$positional_parameter_base@_WV?$stream_output_adapter@_W@__crt_stdio_output@@@2@@__crt_stdio_output@@AEAA_NXZ 000000018003f7b0 f i libucrtd:output.obj
 0001:0003e890       ?state_case_normal@?$output_processor@_WV?$stream_output_adapter@_W@__crt_stdio_output@@V?$standard_base@_WV?$stream_output_adapter@_W@__crt_stdio_output@@@2@@__crt_stdio_output@@AEAA_NXZ 000000018003f890 f i libucrtd:output.obj
 0001:0003e970       ?state_case_normal@?$output_processor@_WV?$string_output_adapter@_W@__crt_stdio_output@@V?$format_validation_base@_WV?$string_output_adapter@_W@__crt_stdio_output@@@2@@__crt_stdio_output@@AEAA_NXZ 000000018003f970 f i libucrtd:output.obj
 0001:0003ea50       ?state_case_normal@?$output_processor@_WV?$string_output_adapter@_W@__crt_stdio_output@@V?$positional_parameter_base@_WV?$string_output_adapter@_W@__crt_stdio_output@@@2@@__crt_stdio_output@@AEAA_NXZ 000000018003fa50 f i libucrtd:output.obj
 0001:0003eb30       ?state_case_normal@?$output_processor@_WV?$string_output_adapter@_W@__crt_stdio_output@@V?$standard_base@_WV?$string_output_adapter@_W@__crt_stdio_output@@@2@@__crt_stdio_output@@AEAA_NXZ 000000018003fb30 f i libucrtd:output.obj
 0001:0003ec10       ?state_case_normal_common@?$output_processor@DV?$stream_output_adapter@D@__crt_stdio_output@@V?$format_validation_base@DV?$stream_output_adapter@D@__crt_stdio_output@@@2@@__crt_stdio_output@@AEAA_NXZ 000000018003fc10 f i libucrtd:output.obj
 0001:0003ec60       ?state_case_normal_common@?$output_processor@DV?$stream_output_adapter@D@__crt_stdio_output@@V?$positional_parameter_base@DV?$stream_output_adapter@D@__crt_stdio_output@@@2@@__crt_stdio_output@@AEAA_NXZ 000000018003fc60 f i libucrtd:output.obj
 0001:0003ecb0       ?state_case_normal_common@?$output_processor@DV?$stream_output_adapter@D@__crt_stdio_output@@V?$standard_base@DV?$stream_output_adapter@D@__crt_stdio_output@@@2@@__crt_stdio_output@@AEAA_NXZ 000000018003fcb0 f i libucrtd:output.obj
 0001:0003ed00       ?state_case_normal_common@?$output_processor@DV?$string_output_adapter@D@__crt_stdio_output@@V?$format_validation_base@DV?$string_output_adapter@D@__crt_stdio_output@@@2@@__crt_stdio_output@@AEAA_NXZ 000000018003fd00 f i libucrtd:output.obj
 0001:0003ed50       ?state_case_normal_common@?$output_processor@DV?$string_output_adapter@D@__crt_stdio_output@@V?$positional_parameter_base@DV?$string_output_adapter@D@__crt_stdio_output@@@2@@__crt_stdio_output@@AEAA_NXZ 000000018003fd50 f i libucrtd:output.obj
 0001:0003eda0       ?state_case_normal_common@?$output_processor@DV?$string_output_adapter@D@__crt_stdio_output@@V?$standard_base@DV?$string_output_adapter@D@__crt_stdio_output@@@2@@__crt_stdio_output@@AEAA_NXZ 000000018003fda0 f i libucrtd:output.obj
 0001:0003edf0       ?state_case_normal_common@?$output_processor@_WV?$stream_output_adapter@_W@__crt_stdio_output@@V?$format_validation_base@_WV?$stream_output_adapter@_W@__crt_stdio_output@@@2@@__crt_stdio_output@@AEAA_NXZ 000000018003fdf0 f i libucrtd:output.obj
 0001:0003ee40       ?state_case_normal_common@?$output_processor@_WV?$stream_output_adapter@_W@__crt_stdio_output@@V?$positional_parameter_base@_WV?$stream_output_adapter@_W@__crt_stdio_output@@@2@@__crt_stdio_output@@AEAA_NXZ 000000018003fe40 f i libucrtd:output.obj
 0001:0003ee90       ?state_case_normal_common@?$output_processor@_WV?$stream_output_adapter@_W@__crt_stdio_output@@V?$standard_base@_WV?$stream_output_adapter@_W@__crt_stdio_output@@@2@@__crt_stdio_output@@AEAA_NXZ 000000018003fe90 f i libucrtd:output.obj
 0001:0003eee0       ?state_case_normal_common@?$output_processor@_WV?$string_output_adapter@_W@__crt_stdio_output@@V?$format_validation_base@_WV?$string_output_adapter@_W@__crt_stdio_output@@@2@@__crt_stdio_output@@AEAA_NXZ 000000018003fee0 f i libucrtd:output.obj
 0001:0003ef30       ?state_case_normal_common@?$output_processor@_WV?$string_output_adapter@_W@__crt_stdio_output@@V?$positional_parameter_base@_WV?$string_output_adapter@_W@__crt_stdio_output@@@2@@__crt_stdio_output@@AEAA_NXZ 000000018003ff30 f i libucrtd:output.obj
 0001:0003ef80       ?state_case_normal_common@?$output_processor@_WV?$string_output_adapter@_W@__crt_stdio_output@@V?$standard_base@_WV?$string_output_adapter@_W@__crt_stdio_output@@@2@@__crt_stdio_output@@AEAA_NXZ 000000018003ff80 f i libucrtd:output.obj
 0001:0003efd0       ?state_case_normal_tchar@?$output_processor@DV?$stream_output_adapter@D@__crt_stdio_output@@V?$format_validation_base@DV?$stream_output_adapter@D@__crt_stdio_output@@@2@@__crt_stdio_output@@AEAA_ND@Z 000000018003ffd0 f i libucrtd:output.obj
 0001:0003f110       ?state_case_normal_tchar@?$output_processor@DV?$stream_output_adapter@D@__crt_stdio_output@@V?$positional_parameter_base@DV?$stream_output_adapter@D@__crt_stdio_output@@@2@@__crt_stdio_output@@AEAA_ND@Z 0000000180040110 f i libucrtd:output.obj
 0001:0003f250       ?state_case_normal_tchar@?$output_processor@DV?$stream_output_adapter@D@__crt_stdio_output@@V?$standard_base@DV?$stream_output_adapter@D@__crt_stdio_output@@@2@@__crt_stdio_output@@AEAA_ND@Z 0000000180040250 f i libucrtd:output.obj
 0001:0003f390       ?state_case_normal_tchar@?$output_processor@DV?$string_output_adapter@D@__crt_stdio_output@@V?$format_validation_base@DV?$string_output_adapter@D@__crt_stdio_output@@@2@@__crt_stdio_output@@AEAA_ND@Z 0000000180040390 f i libucrtd:output.obj
 0001:0003f4d0       ?state_case_normal_tchar@?$output_processor@DV?$string_output_adapter@D@__crt_stdio_output@@V?$positional_parameter_base@DV?$string_output_adapter@D@__crt_stdio_output@@@2@@__crt_stdio_output@@AEAA_ND@Z 00000001800404d0 f i libucrtd:output.obj
 0001:0003f610       ?state_case_normal_tchar@?$output_processor@DV?$string_output_adapter@D@__crt_stdio_output@@V?$standard_base@DV?$string_output_adapter@D@__crt_stdio_output@@@2@@__crt_stdio_output@@AEAA_ND@Z 0000000180040610 f i libucrtd:output.obj
 0001:0003f750       ?state_case_normal_tchar@?$output_processor@_WV?$stream_output_adapter@_W@__crt_stdio_output@@V?$format_validation_base@_WV?$stream_output_adapter@_W@__crt_stdio_output@@@2@@__crt_stdio_output@@AEAA_N_W@Z 0000000180040750 f i libucrtd:output.obj
 0001:0003f770       ?state_case_normal_tchar@?$output_processor@_WV?$stream_output_adapter@_W@__crt_stdio_output@@V?$positional_parameter_base@_WV?$stream_output_adapter@_W@__crt_stdio_output@@@2@@__crt_stdio_output@@AEAA_N_W@Z 0000000180040770 f i libucrtd:output.obj
 0001:0003f790       ?state_case_normal_tchar@?$output_processor@_WV?$stream_output_adapter@_W@__crt_stdio_output@@V?$standard_base@_WV?$stream_output_adapter@_W@__crt_stdio_output@@@2@@__crt_stdio_output@@AEAA_N_W@Z 0000000180040790 f i libucrtd:output.obj
 0001:0003f7b0       ?state_case_normal_tchar@?$output_processor@_WV?$string_output_adapter@_W@__crt_stdio_output@@V?$format_validation_base@_WV?$string_output_adapter@_W@__crt_stdio_output@@@2@@__crt_stdio_output@@AEAA_N_W@Z 00000001800407b0 f i libucrtd:output.obj
 0001:0003f7d0       ?state_case_normal_tchar@?$output_processor@_WV?$string_output_adapter@_W@__crt_stdio_output@@V?$positional_parameter_base@_WV?$string_output_adapter@_W@__crt_stdio_output@@@2@@__crt_stdio_output@@AEAA_N_W@Z 00000001800407d0 f i libucrtd:output.obj
 0001:0003f7f0       ?state_case_normal_tchar@?$output_processor@_WV?$string_output_adapter@_W@__crt_stdio_output@@V?$standard_base@_WV?$string_output_adapter@_W@__crt_stdio_output@@@2@@__crt_stdio_output@@AEAA_N_W@Z 00000001800407f0 f i libucrtd:output.obj
 0001:0003f810       ?state_case_percent@?$output_processor@DV?$stream_output_adapter@D@__crt_stdio_output@@V?$format_validation_base@DV?$stream_output_adapter@D@__crt_stdio_output@@@2@@__crt_stdio_output@@AEAA_NXZ 0000000180040810 f i libucrtd:output.obj
 0001:0003f860       ?state_case_percent@?$output_processor@DV?$stream_output_adapter@D@__crt_stdio_output@@V?$positional_parameter_base@DV?$stream_output_adapter@D@__crt_stdio_output@@@2@@__crt_stdio_output@@AEAA_NXZ 0000000180040860 f i libucrtd:output.obj
 0001:0003f8b0       ?state_case_percent@?$output_processor@DV?$stream_output_adapter@D@__crt_stdio_output@@V?$standard_base@DV?$stream_output_adapter@D@__crt_stdio_output@@@2@@__crt_stdio_output@@AEAA_NXZ 00000001800408b0 f i libucrtd:output.obj
 0001:0003f900       ?state_case_percent@?$output_processor@DV?$string_output_adapter@D@__crt_stdio_output@@V?$format_validation_base@DV?$string_output_adapter@D@__crt_stdio_output@@@2@@__crt_stdio_output@@AEAA_NXZ 0000000180040900 f i libucrtd:output.obj
 0001:0003f950       ?state_case_percent@?$output_processor@DV?$string_output_adapter@D@__crt_stdio_output@@V?$positional_parameter_base@DV?$string_output_adapter@D@__crt_stdio_output@@@2@@__crt_stdio_output@@AEAA_NXZ 0000000180040950 f i libucrtd:output.obj
 0001:0003f9a0       ?state_case_percent@?$output_processor@DV?$string_output_adapter@D@__crt_stdio_output@@V?$standard_base@DV?$string_output_adapter@D@__crt_stdio_output@@@2@@__crt_stdio_output@@AEAA_NXZ 00000001800409a0 f i libucrtd:output.obj
 0001:0003f9f0       ?state_case_percent@?$output_processor@_WV?$stream_output_adapter@_W@__crt_stdio_output@@V?$format_validation_base@_WV?$stream_output_adapter@_W@__crt_stdio_output@@@2@@__crt_stdio_output@@AEAA_NXZ 00000001800409f0 f i libucrtd:output.obj
 0001:0003fa40       ?state_case_percent@?$output_processor@_WV?$stream_output_adapter@_W@__crt_stdio_output@@V?$positional_parameter_base@_WV?$stream_output_adapter@_W@__crt_stdio_output@@@2@@__crt_stdio_output@@AEAA_NXZ 0000000180040a40 f i libucrtd:output.obj
 0001:0003fa90       ?state_case_percent@?$output_processor@_WV?$stream_output_adapter@_W@__crt_stdio_output@@V?$standard_base@_WV?$stream_output_adapter@_W@__crt_stdio_output@@@2@@__crt_stdio_output@@AEAA_NXZ 0000000180040a90 f i libucrtd:output.obj
 0001:0003fae0       ?state_case_percent@?$output_processor@_WV?$string_output_adapter@_W@__crt_stdio_output@@V?$format_validation_base@_WV?$string_output_adapter@_W@__crt_stdio_output@@@2@@__crt_stdio_output@@AEAA_NXZ 0000000180040ae0 f i libucrtd:output.obj
 0001:0003fb30       ?state_case_percent@?$output_processor@_WV?$string_output_adapter@_W@__crt_stdio_output@@V?$positional_parameter_base@_WV?$string_output_adapter@_W@__crt_stdio_output@@@2@@__crt_stdio_output@@AEAA_NXZ 0000000180040b30 f i libucrtd:output.obj
 0001:0003fb80       ?state_case_percent@?$output_processor@_WV?$string_output_adapter@_W@__crt_stdio_output@@V?$standard_base@_WV?$string_output_adapter@_W@__crt_stdio_output@@@2@@__crt_stdio_output@@AEAA_NXZ 0000000180040b80 f i libucrtd:output.obj
 0001:0003fbd0       ?state_case_precision@?$output_processor@DV?$stream_output_adapter@D@__crt_stdio_output@@V?$format_validation_base@DV?$stream_output_adapter@D@__crt_stdio_output@@@2@@__crt_stdio_output@@AEAA_NXZ 0000000180040bd0 f i libucrtd:output.obj
 0001:0003fc50       ?state_case_precision@?$output_processor@DV?$stream_output_adapter@D@__crt_stdio_output@@V?$positional_parameter_base@DV?$stream_output_adapter@D@__crt_stdio_output@@@2@@__crt_stdio_output@@AEAA_NXZ 0000000180040c50 f i libucrtd:output.obj
 0001:0003fcd0       ?state_case_precision@?$output_processor@DV?$stream_output_adapter@D@__crt_stdio_output@@V?$standard_base@DV?$stream_output_adapter@D@__crt_stdio_output@@@2@@__crt_stdio_output@@AEAA_NXZ 0000000180040cd0 f i libucrtd:output.obj
 0001:0003fd50       ?state_case_precision@?$output_processor@DV?$string_output_adapter@D@__crt_stdio_output@@V?$format_validation_base@DV?$string_output_adapter@D@__crt_stdio_output@@@2@@__crt_stdio_output@@AEAA_NXZ 0000000180040d50 f i libucrtd:output.obj
 0001:0003fdd0       ?state_case_precision@?$output_processor@DV?$string_output_adapter@D@__crt_stdio_output@@V?$positional_parameter_base@DV?$string_output_adapter@D@__crt_stdio_output@@@2@@__crt_stdio_output@@AEAA_NXZ 0000000180040dd0 f i libucrtd:output.obj
 0001:0003fe50       ?state_case_precision@?$output_processor@DV?$string_output_adapter@D@__crt_stdio_output@@V?$standard_base@DV?$string_output_adapter@D@__crt_stdio_output@@@2@@__crt_stdio_output@@AEAA_NXZ 0000000180040e50 f i libucrtd:output.obj
 0001:0003fed0       ?state_case_precision@?$output_processor@_WV?$stream_output_adapter@_W@__crt_stdio_output@@V?$format_validation_base@_WV?$stream_output_adapter@_W@__crt_stdio_output@@@2@@__crt_stdio_output@@AEAA_NXZ 0000000180040ed0 f i libucrtd:output.obj
 0001:0003ff50       ?state_case_precision@?$output_processor@_WV?$stream_output_adapter@_W@__crt_stdio_output@@V?$positional_parameter_base@_WV?$stream_output_adapter@_W@__crt_stdio_output@@@2@@__crt_stdio_output@@AEAA_NXZ 0000000180040f50 f i libucrtd:output.obj
 0001:0003ffd0       ?state_case_precision@?$output_processor@_WV?$stream_output_adapter@_W@__crt_stdio_output@@V?$standard_base@_WV?$stream_output_adapter@_W@__crt_stdio_output@@@2@@__crt_stdio_output@@AEAA_NXZ 0000000180040fd0 f i libucrtd:output.obj
 0001:00040050       ?state_case_precision@?$output_processor@_WV?$string_output_adapter@_W@__crt_stdio_output@@V?$format_validation_base@_WV?$string_output_adapter@_W@__crt_stdio_output@@@2@@__crt_stdio_output@@AEAA_NXZ 0000000180041050 f i libucrtd:output.obj
 0001:000400d0       ?state_case_precision@?$output_processor@_WV?$string_output_adapter@_W@__crt_stdio_output@@V?$positional_parameter_base@_WV?$string_output_adapter@_W@__crt_stdio_output@@@2@@__crt_stdio_output@@AEAA_NXZ 00000001800410d0 f i libucrtd:output.obj
 0001:00040150       ?state_case_precision@?$output_processor@_WV?$string_output_adapter@_W@__crt_stdio_output@@V?$standard_base@_WV?$string_output_adapter@_W@__crt_stdio_output@@@2@@__crt_stdio_output@@AEAA_NXZ 0000000180041150 f i libucrtd:output.obj
 0001:000401d0       ?state_case_size@?$output_processor@DV?$stream_output_adapter@D@__crt_stdio_output@@V?$format_validation_base@DV?$stream_output_adapter@D@__crt_stdio_output@@@2@@__crt_stdio_output@@AEAA_NXZ 00000001800411d0 f i libucrtd:output.obj
 0001:00040650       ?state_case_size@?$output_processor@DV?$stream_output_adapter@D@__crt_stdio_output@@V?$positional_parameter_base@DV?$stream_output_adapter@D@__crt_stdio_output@@@2@@__crt_stdio_output@@AEAA_NXZ 0000000180041650 f i libucrtd:output.obj
 0001:00040ad0       ?state_case_size@?$output_processor@DV?$stream_output_adapter@D@__crt_stdio_output@@V?$standard_base@DV?$stream_output_adapter@D@__crt_stdio_output@@@2@@__crt_stdio_output@@AEAA_NXZ 0000000180041ad0 f i libucrtd:output.obj
 0001:00040f50       ?state_case_size@?$output_processor@DV?$string_output_adapter@D@__crt_stdio_output@@V?$format_validation_base@DV?$string_output_adapter@D@__crt_stdio_output@@@2@@__crt_stdio_output@@AEAA_NXZ 0000000180041f50 f i libucrtd:output.obj
 0001:000413d0       ?state_case_size@?$output_processor@DV?$string_output_adapter@D@__crt_stdio_output@@V?$positional_parameter_base@DV?$string_output_adapter@D@__crt_stdio_output@@@2@@__crt_stdio_output@@AEAA_NXZ 00000001800423d0 f i libucrtd:output.obj
 0001:00041850       ?state_case_size@?$output_processor@DV?$string_output_adapter@D@__crt_stdio_output@@V?$standard_base@DV?$string_output_adapter@D@__crt_stdio_output@@@2@@__crt_stdio_output@@AEAA_NXZ 0000000180042850 f i libucrtd:output.obj
 0001:00041cd0       ?state_case_size@?$output_processor@_WV?$stream_output_adapter@_W@__crt_stdio_output@@V?$format_validation_base@_WV?$stream_output_adapter@_W@__crt_stdio_output@@@2@@__crt_stdio_output@@AEAA_NXZ 0000000180042cd0 f i libucrtd:output.obj
 0001:00042150       ?state_case_size@?$output_processor@_WV?$stream_output_adapter@_W@__crt_stdio_output@@V?$positional_parameter_base@_WV?$stream_output_adapter@_W@__crt_stdio_output@@@2@@__crt_stdio_output@@AEAA_NXZ 0000000180043150 f i libucrtd:output.obj
 0001:000425d0       ?state_case_size@?$output_processor@_WV?$stream_output_adapter@_W@__crt_stdio_output@@V?$standard_base@_WV?$stream_output_adapter@_W@__crt_stdio_output@@@2@@__crt_stdio_output@@AEAA_NXZ 00000001800435d0 f i libucrtd:output.obj
 0001:00042a50       ?state_case_size@?$output_processor@_WV?$string_output_adapter@_W@__crt_stdio_output@@V?$format_validation_base@_WV?$string_output_adapter@_W@__crt_stdio_output@@@2@@__crt_stdio_output@@AEAA_NXZ 0000000180043a50 f i libucrtd:output.obj
 0001:00042ed0       ?state_case_size@?$output_processor@_WV?$string_output_adapter@_W@__crt_stdio_output@@V?$positional_parameter_base@_WV?$string_output_adapter@_W@__crt_stdio_output@@@2@@__crt_stdio_output@@AEAA_NXZ 0000000180043ed0 f i libucrtd:output.obj
 0001:00043350       ?state_case_size@?$output_processor@_WV?$string_output_adapter@_W@__crt_stdio_output@@V?$standard_base@_WV?$string_output_adapter@_W@__crt_stdio_output@@@2@@__crt_stdio_output@@AEAA_NXZ 0000000180044350 f i libucrtd:output.obj
 0001:000437d0       ?state_case_type@?$output_processor@DV?$stream_output_adapter@D@__crt_stdio_output@@V?$format_validation_base@DV?$stream_output_adapter@D@__crt_stdio_output@@@2@@__crt_stdio_output@@AEAA_NXZ 00000001800447d0 f i libucrtd:output.obj
 0001:00043c70       ?state_case_type@?$output_processor@DV?$stream_output_adapter@D@__crt_stdio_output@@V?$positional_parameter_base@DV?$stream_output_adapter@D@__crt_stdio_output@@@2@@__crt_stdio_output@@AEAA_NXZ 0000000180044c70 f i libucrtd:output.obj
 0001:00044110       ?state_case_type@?$output_processor@DV?$stream_output_adapter@D@__crt_stdio_output@@V?$standard_base@DV?$stream_output_adapter@D@__crt_stdio_output@@@2@@__crt_stdio_output@@AEAA_NXZ 0000000180045110 f i libucrtd:output.obj
 0001:000445b0       ?state_case_type@?$output_processor@DV?$string_output_adapter@D@__crt_stdio_output@@V?$format_validation_base@DV?$string_output_adapter@D@__crt_stdio_output@@@2@@__crt_stdio_output@@AEAA_NXZ 00000001800455b0 f i libucrtd:output.obj
 0001:00044a50       ?state_case_type@?$output_processor@DV?$string_output_adapter@D@__crt_stdio_output@@V?$positional_parameter_base@DV?$string_output_adapter@D@__crt_stdio_output@@@2@@__crt_stdio_output@@AEAA_NXZ 0000000180045a50 f i libucrtd:output.obj
 0001:00044ef0       ?state_case_type@?$output_processor@DV?$string_output_adapter@D@__crt_stdio_output@@V?$standard_base@DV?$string_output_adapter@D@__crt_stdio_output@@@2@@__crt_stdio_output@@AEAA_NXZ 0000000180045ef0 f i libucrtd:output.obj
 0001:00045390       ?state_case_type@?$output_processor@_WV?$stream_output_adapter@_W@__crt_stdio_output@@V?$format_validation_base@_WV?$stream_output_adapter@_W@__crt_stdio_output@@@2@@__crt_stdio_output@@AEAA_NXZ 0000000180046390 f i libucrtd:output.obj
 0001:000458f0       ?state_case_type@?$output_processor@_WV?$stream_output_adapter@_W@__crt_stdio_output@@V?$positional_parameter_base@_WV?$stream_output_adapter@_W@__crt_stdio_output@@@2@@__crt_stdio_output@@AEAA_NXZ 00000001800468f0 f i libucrtd:output.obj
 0001:00045e50       ?state_case_type@?$output_processor@_WV?$stream_output_adapter@_W@__crt_stdio_output@@V?$standard_base@_WV?$stream_output_adapter@_W@__crt_stdio_output@@@2@@__crt_stdio_output@@AEAA_NXZ 0000000180046e50 f i libucrtd:output.obj
 0001:000463b0       ?state_case_type@?$output_processor@_WV?$string_output_adapter@_W@__crt_stdio_output@@V?$format_validation_base@_WV?$string_output_adapter@_W@__crt_stdio_output@@@2@@__crt_stdio_output@@AEAA_NXZ 00000001800473b0 f i libucrtd:output.obj
 0001:00046910       ?state_case_type@?$output_processor@_WV?$string_output_adapter@_W@__crt_stdio_output@@V?$positional_parameter_base@_WV?$string_output_adapter@_W@__crt_stdio_output@@@2@@__crt_stdio_output@@AEAA_NXZ 0000000180047910 f i libucrtd:output.obj
 0001:00046e70       ?state_case_type@?$output_processor@_WV?$string_output_adapter@_W@__crt_stdio_output@@V?$standard_base@_WV?$string_output_adapter@_W@__crt_stdio_output@@@2@@__crt_stdio_output@@AEAA_NXZ 0000000180047e70 f i libucrtd:output.obj
 0001:000473d0       ?state_case_width@?$output_processor@DV?$stream_output_adapter@D@__crt_stdio_output@@V?$format_validation_base@DV?$stream_output_adapter@D@__crt_stdio_output@@@2@@__crt_stdio_output@@AEAA_NXZ 00000001800483d0 f i libucrtd:output.obj
 0001:00047460       ?state_case_width@?$output_processor@DV?$stream_output_adapter@D@__crt_stdio_output@@V?$positional_parameter_base@DV?$stream_output_adapter@D@__crt_stdio_output@@@2@@__crt_stdio_output@@AEAA_NXZ 0000000180048460 f i libucrtd:output.obj
 0001:000474f0       ?state_case_width@?$output_processor@DV?$stream_output_adapter@D@__crt_stdio_output@@V?$standard_base@DV?$stream_output_adapter@D@__crt_stdio_output@@@2@@__crt_stdio_output@@AEAA_NXZ 00000001800484f0 f i libucrtd:output.obj
 0001:00047580       ?state_case_width@?$output_processor@DV?$string_output_adapter@D@__crt_stdio_output@@V?$format_validation_base@DV?$string_output_adapter@D@__crt_stdio_output@@@2@@__crt_stdio_output@@AEAA_NXZ 0000000180048580 f i libucrtd:output.obj
 0001:00047610       ?state_case_width@?$output_processor@DV?$string_output_adapter@D@__crt_stdio_output@@V?$positional_parameter_base@DV?$string_output_adapter@D@__crt_stdio_output@@@2@@__crt_stdio_output@@AEAA_NXZ 0000000180048610 f i libucrtd:output.obj
 0001:000476a0       ?state_case_width@?$output_processor@DV?$string_output_adapter@D@__crt_stdio_output@@V?$standard_base@DV?$string_output_adapter@D@__crt_stdio_output@@@2@@__crt_stdio_output@@AEAA_NXZ 00000001800486a0 f i libucrtd:output.obj
 0001:00047730       ?state_case_width@?$output_processor@_WV?$stream_output_adapter@_W@__crt_stdio_output@@V?$format_validation_base@_WV?$stream_output_adapter@_W@__crt_stdio_output@@@2@@__crt_stdio_output@@AEAA_NXZ 0000000180048730 f i libucrtd:output.obj
 0001:000477c0       ?state_case_width@?$output_processor@_WV?$stream_output_adapter@_W@__crt_stdio_output@@V?$positional_parameter_base@_WV?$stream_output_adapter@_W@__crt_stdio_output@@@2@@__crt_stdio_output@@AEAA_NXZ 00000001800487c0 f i libucrtd:output.obj
 0001:00047850       ?state_case_width@?$output_processor@_WV?$stream_output_adapter@_W@__crt_stdio_output@@V?$standard_base@_WV?$stream_output_adapter@_W@__crt_stdio_output@@@2@@__crt_stdio_output@@AEAA_NXZ 0000000180048850 f i libucrtd:output.obj
 0001:000478e0       ?state_case_width@?$output_processor@_WV?$string_output_adapter@_W@__crt_stdio_output@@V?$format_validation_base@_WV?$string_output_adapter@_W@__crt_stdio_output@@@2@@__crt_stdio_output@@AEAA_NXZ 00000001800488e0 f i libucrtd:output.obj
 0001:00047970       ?state_case_width@?$output_processor@_WV?$string_output_adapter@_W@__crt_stdio_output@@V?$positional_parameter_base@_WV?$string_output_adapter@_W@__crt_stdio_output@@@2@@__crt_stdio_output@@AEAA_NXZ 0000000180048970 f i libucrtd:output.obj
 0001:00047a00       ?state_case_width@?$output_processor@_WV?$string_output_adapter@_W@__crt_stdio_output@@V?$standard_base@_WV?$string_output_adapter@_W@__crt_stdio_output@@@2@@__crt_stdio_output@@AEAA_NXZ 0000000180048a00 f i libucrtd:output.obj
 0001:00047a90       ?state_count@?$format_validation_base@DV?$stream_output_adapter@D@__crt_stdio_output@@@__crt_stdio_output@@KAIXZ 0000000180048a90 f i libucrtd:output.obj
 0001:00047aa0       ?state_count@?$format_validation_base@DV?$string_output_adapter@D@__crt_stdio_output@@@__crt_stdio_output@@KAIXZ 0000000180048aa0 f i libucrtd:output.obj
 0001:00047ab0       ?state_count@?$format_validation_base@_WV?$stream_output_adapter@_W@__crt_stdio_output@@@__crt_stdio_output@@KAIXZ 0000000180048ab0 f i libucrtd:output.obj
 0001:00047ac0       ?state_count@?$format_validation_base@_WV?$string_output_adapter@_W@__crt_stdio_output@@@__crt_stdio_output@@KAIXZ 0000000180048ac0 f i libucrtd:output.obj
 0001:00047ad0       ?state_count@?$standard_base@DV?$stream_output_adapter@D@__crt_stdio_output@@@__crt_stdio_output@@KAIXZ 0000000180048ad0 f i libucrtd:output.obj
 0001:00047ae0       ?state_count@?$standard_base@DV?$string_output_adapter@D@__crt_stdio_output@@@__crt_stdio_output@@KAIXZ 0000000180048ae0 f i libucrtd:output.obj
 0001:00047af0       ?state_count@?$standard_base@_WV?$stream_output_adapter@_W@__crt_stdio_output@@@__crt_stdio_output@@KAIXZ 0000000180048af0 f i libucrtd:output.obj
 0001:00047b00       ?state_count@?$standard_base@_WV?$string_output_adapter@_W@__crt_stdio_output@@@__crt_stdio_output@@KAIXZ 0000000180048b00 f i libucrtd:output.obj
 0001:00047b10       ?state_transition_table@?$format_validation_base@DV?$stream_output_adapter@D@__crt_stdio_output@@@__crt_stdio_output@@KAAEBV?$spectre_mitigated_lookup_table@Ustate_transition_pair@__crt_stdio_output@@$0IA@@2@XZ 0000000180048b10 f i libucrtd:output.obj
 0001:00047b20       ?state_transition_table@?$format_validation_base@DV?$string_output_adapter@D@__crt_stdio_output@@@__crt_stdio_output@@KAAEBV?$spectre_mitigated_lookup_table@Ustate_transition_pair@__crt_stdio_output@@$0IA@@2@XZ 0000000180048b20 f i libucrtd:output.obj
 0001:00047b30       ?state_transition_table@?$format_validation_base@_WV?$stream_output_adapter@_W@__crt_stdio_output@@@__crt_stdio_output@@KAAEBV?$spectre_mitigated_lookup_table@Ustate_transition_pair@__crt_stdio_output@@$0IA@@2@XZ 0000000180048b30 f i libucrtd:output.obj
 0001:00047b40       ?state_transition_table@?$format_validation_base@_WV?$string_output_adapter@_W@__crt_stdio_output@@@__crt_stdio_output@@KAAEBV?$spectre_mitigated_lookup_table@Ustate_transition_pair@__crt_stdio_output@@$0IA@@2@XZ 0000000180048b40 f i libucrtd:output.obj
 0001:00047b50       ?state_transition_table@?$standard_base@DV?$stream_output_adapter@D@__crt_stdio_output@@@__crt_stdio_output@@KAAEBV?$spectre_mitigated_lookup_table@Ustate_transition_pair@__crt_stdio_output@@$0IA@@2@XZ 0000000180048b50 f i libucrtd:output.obj
 0001:00047b60       ?state_transition_table@?$standard_base@DV?$string_output_adapter@D@__crt_stdio_output@@@__crt_stdio_output@@KAAEBV?$spectre_mitigated_lookup_table@Ustate_transition_pair@__crt_stdio_output@@$0IA@@2@XZ 0000000180048b60 f i libucrtd:output.obj
 0001:00047b70       ?state_transition_table@?$standard_base@_WV?$stream_output_adapter@_W@__crt_stdio_output@@@__crt_stdio_output@@KAAEBV?$spectre_mitigated_lookup_table@Ustate_transition_pair@__crt_stdio_output@@$0IA@@2@XZ 0000000180048b70 f i libucrtd:output.obj
 0001:00047b80       ?state_transition_table@?$standard_base@_WV?$string_output_adapter@_W@__crt_stdio_output@@@__crt_stdio_output@@KAAEBV?$spectre_mitigated_lookup_table@Ustate_transition_pair@__crt_stdio_output@@$0IA@@2@XZ 0000000180048b80 f i libucrtd:output.obj
 0001:00047b90       ?tchar_string@?$common_data@D@__crt_stdio_output@@IEAAAEAPEADD@Z 0000000180048b90 f i libucrtd:output.obj
 0001:00047bb0       ?tchar_string@?$common_data@D@__crt_stdio_output@@IEAAAEAPEADXZ 0000000180048bb0 f i libucrtd:output.obj
 0001:00047bd0       ?tchar_string@?$common_data@_W@__crt_stdio_output@@IEAAAEAPEA_WXZ 0000000180048bd0 f i libucrtd:output.obj
 0001:00047bf0       ?tchar_string@?$common_data@_W@__crt_stdio_output@@IEAAAEAPEA_W_W@Z 0000000180048bf0 f i libucrtd:output.obj
 0001:00047c10       ?to_integer_size@__crt_stdio_output@@YA_KW4length_modifier@1@@Z 0000000180048c10 f i libucrtd:output.obj
 0001:00047cc0       ?type_case_X@?$output_processor@DV?$stream_output_adapter@D@__crt_stdio_output@@V?$format_validation_base@DV?$stream_output_adapter@D@__crt_stdio_output@@@2@@__crt_stdio_output@@AEAA_NXZ 0000000180048cc0 f i libucrtd:output.obj
 0001:00047ce0       ?type_case_X@?$output_processor@DV?$stream_output_adapter@D@__crt_stdio_output@@V?$positional_parameter_base@DV?$stream_output_adapter@D@__crt_stdio_output@@@2@@__crt_stdio_output@@AEAA_NXZ 0000000180048ce0 f i libucrtd:output.obj
 0001:00047d00       ?type_case_X@?$output_processor@DV?$stream_output_adapter@D@__crt_stdio_output@@V?$standard_base@DV?$stream_output_adapter@D@__crt_stdio_output@@@2@@__crt_stdio_output@@AEAA_NXZ 0000000180048d00 f i libucrtd:output.obj
 0001:00047d20       ?type_case_X@?$output_processor@DV?$string_output_adapter@D@__crt_stdio_output@@V?$format_validation_base@DV?$string_output_adapter@D@__crt_stdio_output@@@2@@__crt_stdio_output@@AEAA_NXZ 0000000180048d20 f i libucrtd:output.obj
 0001:00047d40       ?type_case_X@?$output_processor@DV?$string_output_adapter@D@__crt_stdio_output@@V?$positional_parameter_base@DV?$string_output_adapter@D@__crt_stdio_output@@@2@@__crt_stdio_output@@AEAA_NXZ 0000000180048d40 f i libucrtd:output.obj
 0001:00047d60       ?type_case_X@?$output_processor@DV?$string_output_adapter@D@__crt_stdio_output@@V?$standard_base@DV?$string_output_adapter@D@__crt_stdio_output@@@2@@__crt_stdio_output@@AEAA_NXZ 0000000180048d60 f i libucrtd:output.obj
 0001:00047d80       ?type_case_X@?$output_processor@_WV?$stream_output_adapter@_W@__crt_stdio_output@@V?$format_validation_base@_WV?$stream_output_adapter@_W@__crt_stdio_output@@@2@@__crt_stdio_output@@AEAA_NXZ 0000000180048d80 f i libucrtd:output.obj
 0001:00047da0       ?type_case_X@?$output_processor@_WV?$stream_output_adapter@_W@__crt_stdio_output@@V?$positional_parameter_base@_WV?$stream_output_adapter@_W@__crt_stdio_output@@@2@@__crt_stdio_output@@AEAA_NXZ 0000000180048da0 f i libucrtd:output.obj
 0001:00047dc0       ?type_case_X@?$output_processor@_WV?$stream_output_adapter@_W@__crt_stdio_output@@V?$standard_base@_WV?$stream_output_adapter@_W@__crt_stdio_output@@@2@@__crt_stdio_output@@AEAA_NXZ 0000000180048dc0 f i libucrtd:output.obj
 0001:00047de0       ?type_case_X@?$output_processor@_WV?$string_output_adapter@_W@__crt_stdio_output@@V?$format_validation_base@_WV?$string_output_adapter@_W@__crt_stdio_output@@@2@@__crt_stdio_output@@AEAA_NXZ 0000000180048de0 f i libucrtd:output.obj
 0001:00047e00       ?type_case_X@?$output_processor@_WV?$string_output_adapter@_W@__crt_stdio_output@@V?$positional_parameter_base@_WV?$string_output_adapter@_W@__crt_stdio_output@@@2@@__crt_stdio_output@@AEAA_NXZ 0000000180048e00 f i libucrtd:output.obj
 0001:00047e20       ?type_case_X@?$output_processor@_WV?$string_output_adapter@_W@__crt_stdio_output@@V?$standard_base@_WV?$string_output_adapter@_W@__crt_stdio_output@@@2@@__crt_stdio_output@@AEAA_NXZ 0000000180048e20 f i libucrtd:output.obj
 0001:00047e40       ?type_case_Z@?$output_processor@DV?$stream_output_adapter@D@__crt_stdio_output@@V?$format_validation_base@DV?$stream_output_adapter@D@__crt_stdio_output@@@2@@__crt_stdio_output@@AEAA_NXZ 0000000180048e40 f i libucrtd:output.obj
 0001:00047f60       ?type_case_Z@?$output_processor@DV?$stream_output_adapter@D@__crt_stdio_output@@V?$positional_parameter_base@DV?$stream_output_adapter@D@__crt_stdio_output@@@2@@__crt_stdio_output@@AEAA_NXZ 0000000180048f60 f i libucrtd:output.obj
 0001:00048080       ?type_case_Z@?$output_processor@DV?$stream_output_adapter@D@__crt_stdio_output@@V?$standard_base@DV?$stream_output_adapter@D@__crt_stdio_output@@@2@@__crt_stdio_output@@AEAA_NXZ 0000000180049080 f i libucrtd:output.obj
 0001:000481a0       ?type_case_Z@?$output_processor@DV?$string_output_adapter@D@__crt_stdio_output@@V?$format_validation_base@DV?$string_output_adapter@D@__crt_stdio_output@@@2@@__crt_stdio_output@@AEAA_NXZ 00000001800491a0 f i libucrtd:output.obj
 0001:000482c0       ?type_case_Z@?$output_processor@DV?$string_output_adapter@D@__crt_stdio_output@@V?$positional_parameter_base@DV?$string_output_adapter@D@__crt_stdio_output@@@2@@__crt_stdio_output@@AEAA_NXZ 00000001800492c0 f i libucrtd:output.obj
 0001:000483e0       ?type_case_Z@?$output_processor@DV?$string_output_adapter@D@__crt_stdio_output@@V?$standard_base@DV?$string_output_adapter@D@__crt_stdio_output@@@2@@__crt_stdio_output@@AEAA_NXZ 00000001800493e0 f i libucrtd:output.obj
 0001:00048500       ?type_case_Z@?$output_processor@_WV?$stream_output_adapter@_W@__crt_stdio_output@@V?$format_validation_base@_WV?$stream_output_adapter@_W@__crt_stdio_output@@@2@@__crt_stdio_output@@AEAA_NXZ 0000000180049500 f i libucrtd:output.obj
 0001:00048620       ?type_case_Z@?$output_processor@_WV?$stream_output_adapter@_W@__crt_stdio_output@@V?$positional_parameter_base@_WV?$stream_output_adapter@_W@__crt_stdio_output@@@2@@__crt_stdio_output@@AEAA_NXZ 0000000180049620 f i libucrtd:output.obj
 0001:00048740       ?type_case_Z@?$output_processor@_WV?$stream_output_adapter@_W@__crt_stdio_output@@V?$standard_base@_WV?$stream_output_adapter@_W@__crt_stdio_output@@@2@@__crt_stdio_output@@AEAA_NXZ 0000000180049740 f i libucrtd:output.obj
 0001:00048860       ?type_case_Z@?$output_processor@_WV?$string_output_adapter@_W@__crt_stdio_output@@V?$format_validation_base@_WV?$string_output_adapter@_W@__crt_stdio_output@@@2@@__crt_stdio_output@@AEAA_NXZ 0000000180049860 f i libucrtd:output.obj
 0001:00048980       ?type_case_Z@?$output_processor@_WV?$string_output_adapter@_W@__crt_stdio_output@@V?$positional_parameter_base@_WV?$string_output_adapter@_W@__crt_stdio_output@@@2@@__crt_stdio_output@@AEAA_NXZ 0000000180049980 f i libucrtd:output.obj
 0001:00048aa0       ?type_case_Z@?$output_processor@_WV?$string_output_adapter@_W@__crt_stdio_output@@V?$standard_base@_WV?$string_output_adapter@_W@__crt_stdio_output@@@2@@__crt_stdio_output@@AEAA_NXZ 0000000180049aa0 f i libucrtd:output.obj
 0001:00048bc0       ?type_case_a@?$output_processor@DV?$stream_output_adapter@D@__crt_stdio_output@@V?$format_validation_base@DV?$stream_output_adapter@D@__crt_stdio_output@@@2@@__crt_stdio_output@@AEAA_NXZ 0000000180049bc0 f i libucrtd:output.obj
 0001:00048f90       ?type_case_a@?$output_processor@DV?$stream_output_adapter@D@__crt_stdio_output@@V?$positional_parameter_base@DV?$stream_output_adapter@D@__crt_stdio_output@@@2@@__crt_stdio_output@@AEAA_NXZ 0000000180049f90 f i libucrtd:output.obj
 0001:00049360       ?type_case_a@?$output_processor@DV?$stream_output_adapter@D@__crt_stdio_output@@V?$standard_base@DV?$stream_output_adapter@D@__crt_stdio_output@@@2@@__crt_stdio_output@@AEAA_NXZ 000000018004a360 f i libucrtd:output.obj
 0001:00049730       ?type_case_a@?$output_processor@DV?$string_output_adapter@D@__crt_stdio_output@@V?$format_validation_base@DV?$string_output_adapter@D@__crt_stdio_output@@@2@@__crt_stdio_output@@AEAA_NXZ 000000018004a730 f i libucrtd:output.obj
 0001:00049b00       ?type_case_a@?$output_processor@DV?$string_output_adapter@D@__crt_stdio_output@@V?$positional_parameter_base@DV?$string_output_adapter@D@__crt_stdio_output@@@2@@__crt_stdio_output@@AEAA_NXZ 000000018004ab00 f i libucrtd:output.obj
 0001:00049ed0       ?type_case_a@?$output_processor@DV?$string_output_adapter@D@__crt_stdio_output@@V?$standard_base@DV?$string_output_adapter@D@__crt_stdio_output@@@2@@__crt_stdio_output@@AEAA_NXZ 000000018004aed0 f i libucrtd:output.obj
 0001:0004a2a0       ?type_case_a@?$output_processor@_WV?$stream_output_adapter@_W@__crt_stdio_output@@V?$format_validation_base@_WV?$stream_output_adapter@_W@__crt_stdio_output@@@2@@__crt_stdio_output@@AEAA_NXZ 000000018004b2a0 f i libucrtd:output.obj
 0001:0004a670       ?type_case_a@?$output_processor@_WV?$stream_output_adapter@_W@__crt_stdio_output@@V?$positional_parameter_base@_WV?$stream_output_adapter@_W@__crt_stdio_output@@@2@@__crt_stdio_output@@AEAA_NXZ 000000018004b670 f i libucrtd:output.obj
 0001:0004aa40       ?type_case_a@?$output_processor@_WV?$stream_output_adapter@_W@__crt_stdio_output@@V?$standard_base@_WV?$stream_output_adapter@_W@__crt_stdio_output@@@2@@__crt_stdio_output@@AEAA_NXZ 000000018004ba40 f i libucrtd:output.obj
 0001:0004ae10       ?type_case_a@?$output_processor@_WV?$string_output_adapter@_W@__crt_stdio_output@@V?$format_validation_base@_WV?$string_output_adapter@_W@__crt_stdio_output@@@2@@__crt_stdio_output@@AEAA_NXZ 000000018004be10 f i libucrtd:output.obj
 0001:0004b1e0       ?type_case_a@?$output_processor@_WV?$string_output_adapter@_W@__crt_stdio_output@@V?$positional_parameter_base@_WV?$string_output_adapter@_W@__crt_stdio_output@@@2@@__crt_stdio_output@@AEAA_NXZ 000000018004c1e0 f i libucrtd:output.obj
 0001:0004b5b0       ?type_case_a@?$output_processor@_WV?$string_output_adapter@_W@__crt_stdio_output@@V?$standard_base@_WV?$string_output_adapter@_W@__crt_stdio_output@@@2@@__crt_stdio_output@@AEAA_NXZ 000000018004c5b0 f i libucrtd:output.obj
 0001:0004b980       ?type_case_c@?$output_processor@DV?$stream_output_adapter@D@__crt_stdio_output@@V?$format_validation_base@DV?$stream_output_adapter@D@__crt_stdio_output@@@2@@__crt_stdio_output@@AEAA_NXZ 000000018004c980 f i libucrtd:output.obj
 0001:0004b9a0       ?type_case_c@?$output_processor@DV?$stream_output_adapter@D@__crt_stdio_output@@V?$positional_parameter_base@DV?$stream_output_adapter@D@__crt_stdio_output@@@2@@__crt_stdio_output@@AEAA_NXZ 000000018004c9a0 f i libucrtd:output.obj
 0001:0004b9c0       ?type_case_c@?$output_processor@DV?$stream_output_adapter@D@__crt_stdio_output@@V?$standard_base@DV?$stream_output_adapter@D@__crt_stdio_output@@@2@@__crt_stdio_output@@AEAA_NXZ 000000018004c9c0 f i libucrtd:output.obj
 0001:0004b9e0       ?type_case_c@?$output_processor@DV?$string_output_adapter@D@__crt_stdio_output@@V?$format_validation_base@DV?$string_output_adapter@D@__crt_stdio_output@@@2@@__crt_stdio_output@@AEAA_NXZ 000000018004c9e0 f i libucrtd:output.obj
 0001:0004ba00       ?type_case_c@?$output_processor@DV?$string_output_adapter@D@__crt_stdio_output@@V?$positional_parameter_base@DV?$string_output_adapter@D@__crt_stdio_output@@@2@@__crt_stdio_output@@AEAA_NXZ 000000018004ca00 f i libucrtd:output.obj
 0001:0004ba20       ?type_case_c@?$output_processor@DV?$string_output_adapter@D@__crt_stdio_output@@V?$standard_base@DV?$string_output_adapter@D@__crt_stdio_output@@@2@@__crt_stdio_output@@AEAA_NXZ 000000018004ca20 f i libucrtd:output.obj
 0001:0004ba40       ?type_case_c@?$output_processor@_WV?$stream_output_adapter@_W@__crt_stdio_output@@V?$format_validation_base@_WV?$stream_output_adapter@_W@__crt_stdio_output@@@2@@__crt_stdio_output@@AEAA_NXZ 000000018004ca40 f i libucrtd:output.obj
 0001:0004ba60       ?type_case_c@?$output_processor@_WV?$stream_output_adapter@_W@__crt_stdio_output@@V?$positional_parameter_base@_WV?$stream_output_adapter@_W@__crt_stdio_output@@@2@@__crt_stdio_output@@AEAA_NXZ 000000018004ca60 f i libucrtd:output.obj
 0001:0004ba80       ?type_case_c@?$output_processor@_WV?$stream_output_adapter@_W@__crt_stdio_output@@V?$standard_base@_WV?$stream_output_adapter@_W@__crt_stdio_output@@@2@@__crt_stdio_output@@AEAA_NXZ 000000018004ca80 f i libucrtd:output.obj
 0001:0004baa0       ?type_case_c@?$output_processor@_WV?$string_output_adapter@_W@__crt_stdio_output@@V?$format_validation_base@_WV?$string_output_adapter@_W@__crt_stdio_output@@@2@@__crt_stdio_output@@AEAA_NXZ 000000018004caa0 f i libucrtd:output.obj
 0001:0004bac0       ?type_case_c@?$output_processor@_WV?$string_output_adapter@_W@__crt_stdio_output@@V?$positional_parameter_base@_WV?$string_output_adapter@_W@__crt_stdio_output@@@2@@__crt_stdio_output@@AEAA_NXZ 000000018004cac0 f i libucrtd:output.obj
 0001:0004bae0       ?type_case_c@?$output_processor@_WV?$string_output_adapter@_W@__crt_stdio_output@@V?$standard_base@_WV?$string_output_adapter@_W@__crt_stdio_output@@@2@@__crt_stdio_output@@AEAA_NXZ 000000018004cae0 f i libucrtd:output.obj
 0001:0004bb00       ?type_case_c_tchar@?$output_processor@DV?$stream_output_adapter@D@__crt_stdio_output@@V?$format_validation_base@DV?$stream_output_adapter@D@__crt_stdio_output@@@2@@__crt_stdio_output@@AEAA_ND@Z 000000018004cb00 f i libucrtd:output.obj
 0001:0004bc60       ?type_case_c_tchar@?$output_processor@DV?$stream_output_adapter@D@__crt_stdio_output@@V?$positional_parameter_base@DV?$stream_output_adapter@D@__crt_stdio_output@@@2@@__crt_stdio_output@@AEAA_ND@Z 000000018004cc60 f i libucrtd:output.obj
 0001:0004bdc0       ?type_case_c_tchar@?$output_processor@DV?$stream_output_adapter@D@__crt_stdio_output@@V?$standard_base@DV?$stream_output_adapter@D@__crt_stdio_output@@@2@@__crt_stdio_output@@AEAA_ND@Z 000000018004cdc0 f i libucrtd:output.obj
 0001:0004bf20       ?type_case_c_tchar@?$output_processor@DV?$string_output_adapter@D@__crt_stdio_output@@V?$format_validation_base@DV?$string_output_adapter@D@__crt_stdio_output@@@2@@__crt_stdio_output@@AEAA_ND@Z 000000018004cf20 f i libucrtd:output.obj
 0001:0004c080       ?type_case_c_tchar@?$output_processor@DV?$string_output_adapter@D@__crt_stdio_output@@V?$positional_parameter_base@DV?$string_output_adapter@D@__crt_stdio_output@@@2@@__crt_stdio_output@@AEAA_ND@Z 000000018004d080 f i libucrtd:output.obj
 0001:0004c1e0       ?type_case_c_tchar@?$output_processor@DV?$string_output_adapter@D@__crt_stdio_output@@V?$standard_base@DV?$string_output_adapter@D@__crt_stdio_output@@@2@@__crt_stdio_output@@AEAA_ND@Z 000000018004d1e0 f i libucrtd:output.obj
 0001:0004c340       ?type_case_c_tchar@?$output_processor@_WV?$stream_output_adapter@_W@__crt_stdio_output@@V?$format_validation_base@_WV?$stream_output_adapter@_W@__crt_stdio_output@@@2@@__crt_stdio_output@@AEAA_N_W@Z 000000018004d340 f i libucrtd:output.obj
 0001:0004c470       ?type_case_c_tchar@?$output_processor@_WV?$stream_output_adapter@_W@__crt_stdio_output@@V?$positional_parameter_base@_WV?$stream_output_adapter@_W@__crt_stdio_output@@@2@@__crt_stdio_output@@AEAA_N_W@Z 000000018004d470 f i libucrtd:output.obj
 0001:0004c5a0       ?type_case_c_tchar@?$output_processor@_WV?$stream_output_adapter@_W@__crt_stdio_output@@V?$standard_base@_WV?$stream_output_adapter@_W@__crt_stdio_output@@@2@@__crt_stdio_output@@AEAA_N_W@Z 000000018004d5a0 f i libucrtd:output.obj
 0001:0004c6d0       ?type_case_c_tchar@?$output_processor@_WV?$string_output_adapter@_W@__crt_stdio_output@@V?$format_validation_base@_WV?$string_output_adapter@_W@__crt_stdio_output@@@2@@__crt_stdio_output@@AEAA_N_W@Z 000000018004d6d0 f i libucrtd:output.obj
 0001:0004c800       ?type_case_c_tchar@?$output_processor@_WV?$string_output_adapter@_W@__crt_stdio_output@@V?$positional_parameter_base@_WV?$string_output_adapter@_W@__crt_stdio_output@@@2@@__crt_stdio_output@@AEAA_N_W@Z 000000018004d800 f i libucrtd:output.obj
 0001:0004c930       ?type_case_c_tchar@?$output_processor@_WV?$string_output_adapter@_W@__crt_stdio_output@@V?$standard_base@_WV?$string_output_adapter@_W@__crt_stdio_output@@@2@@__crt_stdio_output@@AEAA_N_W@Z 000000018004d930 f i libucrtd:output.obj
 0001:0004ca60       ?type_case_d@?$output_processor@DV?$stream_output_adapter@D@__crt_stdio_output@@V?$format_validation_base@DV?$stream_output_adapter@D@__crt_stdio_output@@@2@@__crt_stdio_output@@AEAA_NXZ 000000018004da60 f i libucrtd:output.obj
 0001:0004ca90       ?type_case_d@?$output_processor@DV?$stream_output_adapter@D@__crt_stdio_output@@V?$positional_parameter_base@DV?$stream_output_adapter@D@__crt_stdio_output@@@2@@__crt_stdio_output@@AEAA_NXZ 000000018004da90 f i libucrtd:output.obj
 0001:0004cac0       ?type_case_d@?$output_processor@DV?$stream_output_adapter@D@__crt_stdio_output@@V?$standard_base@DV?$stream_output_adapter@D@__crt_stdio_output@@@2@@__crt_stdio_output@@AEAA_NXZ 000000018004dac0 f i libucrtd:output.obj
 0001:0004caf0       ?type_case_d@?$output_processor@DV?$string_output_adapter@D@__crt_stdio_output@@V?$format_validation_base@DV?$string_output_adapter@D@__crt_stdio_output@@@2@@__crt_stdio_output@@AEAA_NXZ 000000018004daf0 f i libucrtd:output.obj
 0001:0004cb20       ?type_case_d@?$output_processor@DV?$string_output_adapter@D@__crt_stdio_output@@V?$positional_parameter_base@DV?$string_output_adapter@D@__crt_stdio_output@@@2@@__crt_stdio_output@@AEAA_NXZ 000000018004db20 f i libucrtd:output.obj
 0001:0004cb50       ?type_case_d@?$output_processor@DV?$string_output_adapter@D@__crt_stdio_output@@V?$standard_base@DV?$string_output_adapter@D@__crt_stdio_output@@@2@@__crt_stdio_output@@AEAA_NXZ 000000018004db50 f i libucrtd:output.obj
 0001:0004cb80       ?type_case_d@?$output_processor@_WV?$stream_output_adapter@_W@__crt_stdio_output@@V?$format_validation_base@_WV?$stream_output_adapter@_W@__crt_stdio_output@@@2@@__crt_stdio_output@@AEAA_NXZ 000000018004db80 f i libucrtd:output.obj
 0001:0004cbb0       ?type_case_d@?$output_processor@_WV?$stream_output_adapter@_W@__crt_stdio_output@@V?$positional_parameter_base@_WV?$stream_output_adapter@_W@__crt_stdio_output@@@2@@__crt_stdio_output@@AEAA_NXZ 000000018004dbb0 f i libucrtd:output.obj
 0001:0004cbe0       ?type_case_d@?$output_processor@_WV?$stream_output_adapter@_W@__crt_stdio_output@@V?$standard_base@_WV?$stream_output_adapter@_W@__crt_stdio_output@@@2@@__crt_stdio_output@@AEAA_NXZ 000000018004dbe0 f i libucrtd:output.obj
 0001:0004cc10       ?type_case_d@?$output_processor@_WV?$string_output_adapter@_W@__crt_stdio_output@@V?$format_validation_base@_WV?$string_output_adapter@_W@__crt_stdio_output@@@2@@__crt_stdio_output@@AEAA_NXZ 000000018004dc10 f i libucrtd:output.obj
 0001:0004cc40       ?type_case_d@?$output_processor@_WV?$string_output_adapter@_W@__crt_stdio_output@@V?$positional_parameter_base@_WV?$string_output_adapter@_W@__crt_stdio_output@@@2@@__crt_stdio_output@@AEAA_NXZ 000000018004dc40 f i libucrtd:output.obj
 0001:0004cc70       ?type_case_d@?$output_processor@_WV?$string_output_adapter@_W@__crt_stdio_output@@V?$standard_base@_WV?$string_output_adapter@_W@__crt_stdio_output@@@2@@__crt_stdio_output@@AEAA_NXZ 000000018004dc70 f i libucrtd:output.obj
 0001:0004cca0       ?type_case_integer@?$output_processor@DV?$stream_output_adapter@D@__crt_stdio_output@@V?$format_validation_base@DV?$stream_output_adapter@D@__crt_stdio_output@@@2@@__crt_stdio_output@@AEAA_NI_N@Z 000000018004dca0 f i libucrtd:output.obj
 0001:0004d0f0       ?type_case_integer@?$output_processor@DV?$stream_output_adapter@D@__crt_stdio_output@@V?$positional_parameter_base@DV?$stream_output_adapter@D@__crt_stdio_output@@@2@@__crt_stdio_output@@AEAA_NI_N@Z 000000018004e0f0 f i libucrtd:output.obj
 0001:0004d540       ?type_case_integer@?$output_processor@DV?$stream_output_adapter@D@__crt_stdio_output@@V?$standard_base@DV?$stream_output_adapter@D@__crt_stdio_output@@@2@@__crt_stdio_output@@AEAA_NI_N@Z 000000018004e540 f i libucrtd:output.obj
 0001:0004d990       ?type_case_integer@?$output_processor@DV?$string_output_adapter@D@__crt_stdio_output@@V?$format_validation_base@DV?$string_output_adapter@D@__crt_stdio_output@@@2@@__crt_stdio_output@@AEAA_NI_N@Z 000000018004e990 f i libucrtd:output.obj
 0001:0004dde0       ?type_case_integer@?$output_processor@DV?$string_output_adapter@D@__crt_stdio_output@@V?$positional_parameter_base@DV?$string_output_adapter@D@__crt_stdio_output@@@2@@__crt_stdio_output@@AEAA_NI_N@Z 000000018004ede0 f i libucrtd:output.obj
 0001:0004e230       ?type_case_integer@?$output_processor@DV?$string_output_adapter@D@__crt_stdio_output@@V?$standard_base@DV?$string_output_adapter@D@__crt_stdio_output@@@2@@__crt_stdio_output@@AEAA_NI_N@Z 000000018004f230 f i libucrtd:output.obj
 0001:0004e680       ?type_case_integer@?$output_processor@_WV?$stream_output_adapter@_W@__crt_stdio_output@@V?$format_validation_base@_WV?$stream_output_adapter@_W@__crt_stdio_output@@@2@@__crt_stdio_output@@AEAA_NI_N@Z 000000018004f680 f i libucrtd:output.obj
 0001:0004ead0       ?type_case_integer@?$output_processor@_WV?$stream_output_adapter@_W@__crt_stdio_output@@V?$positional_parameter_base@_WV?$stream_output_adapter@_W@__crt_stdio_output@@@2@@__crt_stdio_output@@AEAA_NI_N@Z 000000018004fad0 f i libucrtd:output.obj
 0001:0004ef20       ?type_case_integer@?$output_processor@_WV?$stream_output_adapter@_W@__crt_stdio_output@@V?$standard_base@_WV?$stream_output_adapter@_W@__crt_stdio_output@@@2@@__crt_stdio_output@@AEAA_NI_N@Z 000000018004ff20 f i libucrtd:output.obj
 0001:0004f370       ?type_case_integer@?$output_processor@_WV?$string_output_adapter@_W@__crt_stdio_output@@V?$format_validation_base@_WV?$string_output_adapter@_W@__crt_stdio_output@@@2@@__crt_stdio_output@@AEAA_NI_N@Z 0000000180050370 f i libucrtd:output.obj
 0001:0004f7c0       ?type_case_integer@?$output_processor@_WV?$string_output_adapter@_W@__crt_stdio_output@@V?$positional_parameter_base@_WV?$string_output_adapter@_W@__crt_stdio_output@@@2@@__crt_stdio_output@@AEAA_NI_N@Z 00000001800507c0 f i libucrtd:output.obj
 0001:0004fc10       ?type_case_integer@?$output_processor@_WV?$string_output_adapter@_W@__crt_stdio_output@@V?$standard_base@_WV?$string_output_adapter@_W@__crt_stdio_output@@@2@@__crt_stdio_output@@AEAA_NI_N@Z 0000000180050c10 f i libucrtd:output.obj
 0001:00050060       ?type_case_n@?$output_processor@DV?$stream_output_adapter@D@__crt_stdio_output@@V?$format_validation_base@DV?$stream_output_adapter@D@__crt_stdio_output@@@2@@__crt_stdio_output@@AEAA_NXZ 0000000180051060 f i libucrtd:output.obj
 0001:000502a0       ?type_case_n@?$output_processor@DV?$stream_output_adapter@D@__crt_stdio_output@@V?$positional_parameter_base@DV?$stream_output_adapter@D@__crt_stdio_output@@@2@@__crt_stdio_output@@AEAA_NXZ 00000001800512a0 f i libucrtd:output.obj
 0001:000504e0       ?type_case_n@?$output_processor@DV?$stream_output_adapter@D@__crt_stdio_output@@V?$standard_base@DV?$stream_output_adapter@D@__crt_stdio_output@@@2@@__crt_stdio_output@@AEAA_NXZ 00000001800514e0 f i libucrtd:output.obj
 0001:00050720       ?type_case_n@?$output_processor@DV?$string_output_adapter@D@__crt_stdio_output@@V?$format_validation_base@DV?$string_output_adapter@D@__crt_stdio_output@@@2@@__crt_stdio_output@@AEAA_NXZ 0000000180051720 f i libucrtd:output.obj
 0001:00050960       ?type_case_n@?$output_processor@DV?$string_output_adapter@D@__crt_stdio_output@@V?$positional_parameter_base@DV?$string_output_adapter@D@__crt_stdio_output@@@2@@__crt_stdio_output@@AEAA_NXZ 0000000180051960 f i libucrtd:output.obj
 0001:00050ba0       ?type_case_n@?$output_processor@DV?$string_output_adapter@D@__crt_stdio_output@@V?$standard_base@DV?$string_output_adapter@D@__crt_stdio_output@@@2@@__crt_stdio_output@@AEAA_NXZ 0000000180051ba0 f i libucrtd:output.obj
 0001:00050de0       ?type_case_n@?$output_processor@_WV?$stream_output_adapter@_W@__crt_stdio_output@@V?$format_validation_base@_WV?$stream_output_adapter@_W@__crt_stdio_output@@@2@@__crt_stdio_output@@AEAA_NXZ 0000000180051de0 f i libucrtd:output.obj
 0001:00051020       ?type_case_n@?$output_processor@_WV?$stream_output_adapter@_W@__crt_stdio_output@@V?$positional_parameter_base@_WV?$stream_output_adapter@_W@__crt_stdio_output@@@2@@__crt_stdio_output@@AEAA_NXZ 0000000180052020 f i libucrtd:output.obj
 0001:00051260       ?type_case_n@?$output_processor@_WV?$stream_output_adapter@_W@__crt_stdio_output@@V?$standard_base@_WV?$stream_output_adapter@_W@__crt_stdio_output@@@2@@__crt_stdio_output@@AEAA_NXZ 0000000180052260 f i libucrtd:output.obj
 0001:000514a0       ?type_case_n@?$output_processor@_WV?$string_output_adapter@_W@__crt_stdio_output@@V?$format_validation_base@_WV?$string_output_adapter@_W@__crt_stdio_output@@@2@@__crt_stdio_output@@AEAA_NXZ 00000001800524a0 f i libucrtd:output.obj
 0001:000516e0       ?type_case_n@?$output_processor@_WV?$string_output_adapter@_W@__crt_stdio_output@@V?$positional_parameter_base@_WV?$string_output_adapter@_W@__crt_stdio_output@@@2@@__crt_stdio_output@@AEAA_NXZ 00000001800526e0 f i libucrtd:output.obj
 0001:00051920       ?type_case_n@?$output_processor@_WV?$string_output_adapter@_W@__crt_stdio_output@@V?$standard_base@_WV?$string_output_adapter@_W@__crt_stdio_output@@@2@@__crt_stdio_output@@AEAA_NXZ 0000000180052920 f i libucrtd:output.obj
 0001:00051b60       ?type_case_o@?$output_processor@DV?$stream_output_adapter@D@__crt_stdio_output@@V?$format_validation_base@DV?$stream_output_adapter@D@__crt_stdio_output@@@2@@__crt_stdio_output@@AEAA_NXZ 0000000180052b60 f i libucrtd:output.obj
 0001:00051bb0       ?type_case_o@?$output_processor@DV?$stream_output_adapter@D@__crt_stdio_output@@V?$positional_parameter_base@DV?$stream_output_adapter@D@__crt_stdio_output@@@2@@__crt_stdio_output@@AEAA_NXZ 0000000180052bb0 f i libucrtd:output.obj
 0001:00051c00       ?type_case_o@?$output_processor@DV?$stream_output_adapter@D@__crt_stdio_output@@V?$standard_base@DV?$stream_output_adapter@D@__crt_stdio_output@@@2@@__crt_stdio_output@@AEAA_NXZ 0000000180052c00 f i libucrtd:output.obj
 0001:00051c50       ?type_case_o@?$output_processor@DV?$string_output_adapter@D@__crt_stdio_output@@V?$format_validation_base@DV?$string_output_adapter@D@__crt_stdio_output@@@2@@__crt_stdio_output@@AEAA_NXZ 0000000180052c50 f i libucrtd:output.obj
 0001:00051ca0       ?type_case_o@?$output_processor@DV?$string_output_adapter@D@__crt_stdio_output@@V?$positional_parameter_base@DV?$string_output_adapter@D@__crt_stdio_output@@@2@@__crt_stdio_output@@AEAA_NXZ 0000000180052ca0 f i libucrtd:output.obj
 0001:00051cf0       ?type_case_o@?$output_processor@DV?$string_output_adapter@D@__crt_stdio_output@@V?$standard_base@DV?$string_output_adapter@D@__crt_stdio_output@@@2@@__crt_stdio_output@@AEAA_NXZ 0000000180052cf0 f i libucrtd:output.obj
 0001:00051d40       ?type_case_o@?$output_processor@_WV?$stream_output_adapter@_W@__crt_stdio_output@@V?$format_validation_base@_WV?$stream_output_adapter@_W@__crt_stdio_output@@@2@@__crt_stdio_output@@AEAA_NXZ 0000000180052d40 f i libucrtd:output.obj
 0001:00051d90       ?type_case_o@?$output_processor@_WV?$stream_output_adapter@_W@__crt_stdio_output@@V?$positional_parameter_base@_WV?$stream_output_adapter@_W@__crt_stdio_output@@@2@@__crt_stdio_output@@AEAA_NXZ 0000000180052d90 f i libucrtd:output.obj
 0001:00051de0       ?type_case_o@?$output_processor@_WV?$stream_output_adapter@_W@__crt_stdio_output@@V?$standard_base@_WV?$stream_output_adapter@_W@__crt_stdio_output@@@2@@__crt_stdio_output@@AEAA_NXZ 0000000180052de0 f i libucrtd:output.obj
 0001:00051e30       ?type_case_o@?$output_processor@_WV?$string_output_adapter@_W@__crt_stdio_output@@V?$format_validation_base@_WV?$string_output_adapter@_W@__crt_stdio_output@@@2@@__crt_stdio_output@@AEAA_NXZ 0000000180052e30 f i libucrtd:output.obj
 0001:00051e80       ?type_case_o@?$output_processor@_WV?$string_output_adapter@_W@__crt_stdio_output@@V?$positional_parameter_base@_WV?$string_output_adapter@_W@__crt_stdio_output@@@2@@__crt_stdio_output@@AEAA_NXZ 0000000180052e80 f i libucrtd:output.obj
 0001:00051ed0       ?type_case_o@?$output_processor@_WV?$string_output_adapter@_W@__crt_stdio_output@@V?$standard_base@_WV?$string_output_adapter@_W@__crt_stdio_output@@@2@@__crt_stdio_output@@AEAA_NXZ 0000000180052ed0 f i libucrtd:output.obj
 0001:00051f20       ?type_case_p@?$output_processor@DV?$stream_output_adapter@D@__crt_stdio_output@@V?$format_validation_base@DV?$stream_output_adapter@D@__crt_stdio_output@@@2@@__crt_stdio_output@@AEAA_NXZ 0000000180052f20 f i libucrtd:output.obj
 0001:00051f60       ?type_case_p@?$output_processor@DV?$stream_output_adapter@D@__crt_stdio_output@@V?$positional_parameter_base@DV?$stream_output_adapter@D@__crt_stdio_output@@@2@@__crt_stdio_output@@AEAA_NXZ 0000000180052f60 f i libucrtd:output.obj
 0001:00051fa0       ?type_case_p@?$output_processor@DV?$stream_output_adapter@D@__crt_stdio_output@@V?$standard_base@DV?$stream_output_adapter@D@__crt_stdio_output@@@2@@__crt_stdio_output@@AEAA_NXZ 0000000180052fa0 f i libucrtd:output.obj
 0001:00051fe0       ?type_case_p@?$output_processor@DV?$string_output_adapter@D@__crt_stdio_output@@V?$format_validation_base@DV?$string_output_adapter@D@__crt_stdio_output@@@2@@__crt_stdio_output@@AEAA_NXZ 0000000180052fe0 f i libucrtd:output.obj
 0001:00052020       ?type_case_p@?$output_processor@DV?$string_output_adapter@D@__crt_stdio_output@@V?$positional_parameter_base@DV?$string_output_adapter@D@__crt_stdio_output@@@2@@__crt_stdio_output@@AEAA_NXZ 0000000180053020 f i libucrtd:output.obj
 0001:00052060       ?type_case_p@?$output_processor@DV?$string_output_adapter@D@__crt_stdio_output@@V?$standard_base@DV?$string_output_adapter@D@__crt_stdio_output@@@2@@__crt_stdio_output@@AEAA_NXZ 0000000180053060 f i libucrtd:output.obj
 0001:000520a0       ?type_case_p@?$output_processor@_WV?$stream_output_adapter@_W@__crt_stdio_output@@V?$format_validation_base@_WV?$stream_output_adapter@_W@__crt_stdio_output@@@2@@__crt_stdio_output@@AEAA_NXZ 00000001800530a0 f i libucrtd:output.obj
 0001:000520e0       ?type_case_p@?$output_processor@_WV?$stream_output_adapter@_W@__crt_stdio_output@@V?$positional_parameter_base@_WV?$stream_output_adapter@_W@__crt_stdio_output@@@2@@__crt_stdio_output@@AEAA_NXZ 00000001800530e0 f i libucrtd:output.obj
 0001:00052120       ?type_case_p@?$output_processor@_WV?$stream_output_adapter@_W@__crt_stdio_output@@V?$standard_base@_WV?$stream_output_adapter@_W@__crt_stdio_output@@@2@@__crt_stdio_output@@AEAA_NXZ 0000000180053120 f i libucrtd:output.obj
 0001:00052160       ?type_case_p@?$output_processor@_WV?$string_output_adapter@_W@__crt_stdio_output@@V?$format_validation_base@_WV?$string_output_adapter@_W@__crt_stdio_output@@@2@@__crt_stdio_output@@AEAA_NXZ 0000000180053160 f i libucrtd:output.obj
 0001:000521a0       ?type_case_p@?$output_processor@_WV?$string_output_adapter@_W@__crt_stdio_output@@V?$positional_parameter_base@_WV?$string_output_adapter@_W@__crt_stdio_output@@@2@@__crt_stdio_output@@AEAA_NXZ 00000001800531a0 f i libucrtd:output.obj
 0001:000521e0       ?type_case_p@?$output_processor@_WV?$string_output_adapter@_W@__crt_stdio_output@@V?$standard_base@_WV?$string_output_adapter@_W@__crt_stdio_output@@@2@@__crt_stdio_output@@AEAA_NXZ 00000001800531e0 f i libucrtd:output.obj
 0001:00052220       ?type_case_s@?$output_processor@DV?$stream_output_adapter@D@__crt_stdio_output@@V?$format_validation_base@DV?$stream_output_adapter@D@__crt_stdio_output@@@2@@__crt_stdio_output@@AEAA_NXZ 0000000180053220 f i libucrtd:output.obj
 0001:00052340       ?type_case_s@?$output_processor@DV?$stream_output_adapter@D@__crt_stdio_output@@V?$positional_parameter_base@DV?$stream_output_adapter@D@__crt_stdio_output@@@2@@__crt_stdio_output@@AEAA_NXZ 0000000180053340 f i libucrtd:output.obj
 0001:00052460       ?type_case_s@?$output_processor@DV?$stream_output_adapter@D@__crt_stdio_output@@V?$standard_base@DV?$stream_output_adapter@D@__crt_stdio_output@@@2@@__crt_stdio_output@@AEAA_NXZ 0000000180053460 f i libucrtd:output.obj
 0001:00052580       ?type_case_s@?$output_processor@DV?$string_output_adapter@D@__crt_stdio_output@@V?$format_validation_base@DV?$string_output_adapter@D@__crt_stdio_output@@@2@@__crt_stdio_output@@AEAA_NXZ 0000000180053580 f i libucrtd:output.obj
 0001:000526a0       ?type_case_s@?$output_processor@DV?$string_output_adapter@D@__crt_stdio_output@@V?$positional_parameter_base@DV?$string_output_adapter@D@__crt_stdio_output@@@2@@__crt_stdio_output@@AEAA_NXZ 00000001800536a0 f i libucrtd:output.obj
 0001:000527c0       ?type_case_s@?$output_processor@DV?$string_output_adapter@D@__crt_stdio_output@@V?$standard_base@DV?$string_output_adapter@D@__crt_stdio_output@@@2@@__crt_stdio_output@@AEAA_NXZ 00000001800537c0 f i libucrtd:output.obj
 0001:000528e0       ?type_case_s@?$output_processor@_WV?$stream_output_adapter@_W@__crt_stdio_output@@V?$format_validation_base@_WV?$stream_output_adapter@_W@__crt_stdio_output@@@2@@__crt_stdio_output@@AEAA_NXZ 00000001800538e0 f i libucrtd:output.obj
 0001:00052a00       ?type_case_s@?$output_processor@_WV?$stream_output_adapter@_W@__crt_stdio_output@@V?$positional_parameter_base@_WV?$stream_output_adapter@_W@__crt_stdio_output@@@2@@__crt_stdio_output@@AEAA_NXZ 0000000180053a00 f i libucrtd:output.obj
 0001:00052b20       ?type_case_s@?$output_processor@_WV?$stream_output_adapter@_W@__crt_stdio_output@@V?$standard_base@_WV?$stream_output_adapter@_W@__crt_stdio_output@@@2@@__crt_stdio_output@@AEAA_NXZ 0000000180053b20 f i libucrtd:output.obj
 0001:00052c40       ?type_case_s@?$output_processor@_WV?$string_output_adapter@_W@__crt_stdio_output@@V?$format_validation_base@_WV?$string_output_adapter@_W@__crt_stdio_output@@@2@@__crt_stdio_output@@AEAA_NXZ 0000000180053c40 f i libucrtd:output.obj
 0001:00052d60       ?type_case_s@?$output_processor@_WV?$string_output_adapter@_W@__crt_stdio_output@@V?$positional_parameter_base@_WV?$string_output_adapter@_W@__crt_stdio_output@@@2@@__crt_stdio_output@@AEAA_NXZ 0000000180053d60 f i libucrtd:output.obj
 0001:00052e80       ?type_case_s@?$output_processor@_WV?$string_output_adapter@_W@__crt_stdio_output@@V?$standard_base@_WV?$string_output_adapter@_W@__crt_stdio_output@@@2@@__crt_stdio_output@@AEAA_NXZ 0000000180053e80 f i libucrtd:output.obj
 0001:00052fa0       ?type_case_s_compute_narrow_string_length@?$output_processor@DV?$stream_output_adapter@D@__crt_stdio_output@@V?$format_validation_base@DV?$stream_output_adapter@D@__crt_stdio_output@@@2@@__crt_stdio_output@@AEBAHHD@Z 0000000180053fa0 f i libucrtd:output.obj
 0001:00052fd0       ?type_case_s_compute_narrow_string_length@?$output_processor@DV?$stream_output_adapter@D@__crt_stdio_output@@V?$positional_parameter_base@DV?$stream_output_adapter@D@__crt_stdio_output@@@2@@__crt_stdio_output@@AEBAHHD@Z 0000000180053fd0 f i libucrtd:output.obj
 0001:00053000       ?type_case_s_compute_narrow_string_length@?$output_processor@DV?$stream_output_adapter@D@__crt_stdio_output@@V?$standard_base@DV?$stream_output_adapter@D@__crt_stdio_output@@@2@@__crt_stdio_output@@AEBAHHD@Z 0000000180054000 f i libucrtd:output.obj
 0001:00053030       ?type_case_s_compute_narrow_string_length@?$output_processor@DV?$string_output_adapter@D@__crt_stdio_output@@V?$format_validation_base@DV?$string_output_adapter@D@__crt_stdio_output@@@2@@__crt_stdio_output@@AEBAHHD@Z 0000000180054030 f i libucrtd:output.obj
 0001:00053060       ?type_case_s_compute_narrow_string_length@?$output_processor@DV?$string_output_adapter@D@__crt_stdio_output@@V?$positional_parameter_base@DV?$string_output_adapter@D@__crt_stdio_output@@@2@@__crt_stdio_output@@AEBAHHD@Z 0000000180054060 f i libucrtd:output.obj
 0001:00053090       ?type_case_s_compute_narrow_string_length@?$output_processor@DV?$string_output_adapter@D@__crt_stdio_output@@V?$standard_base@DV?$string_output_adapter@D@__crt_stdio_output@@@2@@__crt_stdio_output@@AEBAHHD@Z 0000000180054090 f i libucrtd:output.obj
 0001:000530c0       ?type_case_s_compute_narrow_string_length@?$output_processor@_WV?$stream_output_adapter@_W@__crt_stdio_output@@V?$format_validation_base@_WV?$stream_output_adapter@_W@__crt_stdio_output@@@2@@__crt_stdio_output@@AEBAHH_W@Z 00000001800540c0 f i libucrtd:output.obj
 0001:00053150       ?type_case_s_compute_narrow_string_length@?$output_processor@_WV?$stream_output_adapter@_W@__crt_stdio_output@@V?$positional_parameter_base@_WV?$stream_output_adapter@_W@__crt_stdio_output@@@2@@__crt_stdio_output@@AEBAHH_W@Z 0000000180054150 f i libucrtd:output.obj
 0001:000531e0       ?type_case_s_compute_narrow_string_length@?$output_processor@_WV?$stream_output_adapter@_W@__crt_stdio_output@@V?$standard_base@_WV?$stream_output_adapter@_W@__crt_stdio_output@@@2@@__crt_stdio_output@@AEBAHH_W@Z 00000001800541e0 f i libucrtd:output.obj
 0001:00053270       ?type_case_s_compute_narrow_string_length@?$output_processor@_WV?$string_output_adapter@_W@__crt_stdio_output@@V?$format_validation_base@_WV?$string_output_adapter@_W@__crt_stdio_output@@@2@@__crt_stdio_output@@AEBAHH_W@Z 0000000180054270 f i libucrtd:output.obj
 0001:00053300       ?type_case_s_compute_narrow_string_length@?$output_processor@_WV?$string_output_adapter@_W@__crt_stdio_output@@V?$positional_parameter_base@_WV?$string_output_adapter@_W@__crt_stdio_output@@@2@@__crt_stdio_output@@AEBAHH_W@Z 0000000180054300 f i libucrtd:output.obj
 0001:00053390       ?type_case_s_compute_narrow_string_length@?$output_processor@_WV?$string_output_adapter@_W@__crt_stdio_output@@V?$standard_base@_WV?$string_output_adapter@_W@__crt_stdio_output@@@2@@__crt_stdio_output@@AEBAHH_W@Z 0000000180054390 f i libucrtd:output.obj
 0001:00053420       ?type_case_u@?$output_processor@DV?$stream_output_adapter@D@__crt_stdio_output@@V?$format_validation_base@DV?$stream_output_adapter@D@__crt_stdio_output@@@2@@__crt_stdio_output@@AEAA_NXZ 0000000180054420 f i libucrtd:output.obj
 0001:00053440       ?type_case_u@?$output_processor@DV?$stream_output_adapter@D@__crt_stdio_output@@V?$positional_parameter_base@DV?$stream_output_adapter@D@__crt_stdio_output@@@2@@__crt_stdio_output@@AEAA_NXZ 0000000180054440 f i libucrtd:output.obj
 0001:00053460       ?type_case_u@?$output_processor@DV?$stream_output_adapter@D@__crt_stdio_output@@V?$standard_base@DV?$stream_output_adapter@D@__crt_stdio_output@@@2@@__crt_stdio_output@@AEAA_NXZ 0000000180054460 f i libucrtd:output.obj
 0001:00053480       ?type_case_u@?$output_processor@DV?$string_output_adapter@D@__crt_stdio_output@@V?$format_validation_base@DV?$string_output_adapter@D@__crt_stdio_output@@@2@@__crt_stdio_output@@AEAA_NXZ 0000000180054480 f i libucrtd:output.obj
 0001:000534a0       ?type_case_u@?$output_processor@DV?$string_output_adapter@D@__crt_stdio_output@@V?$positional_parameter_base@DV?$string_output_adapter@D@__crt_stdio_output@@@2@@__crt_stdio_output@@AEAA_NXZ 00000001800544a0 f i libucrtd:output.obj
 0001:000534c0       ?type_case_u@?$output_processor@DV?$string_output_adapter@D@__crt_stdio_output@@V?$standard_base@DV?$string_output_adapter@D@__crt_stdio_output@@@2@@__crt_stdio_output@@AEAA_NXZ 00000001800544c0 f i libucrtd:output.obj
 0001:000534e0       ?type_case_u@?$output_processor@_WV?$stream_output_adapter@_W@__crt_stdio_output@@V?$format_validation_base@_WV?$stream_output_adapter@_W@__crt_stdio_output@@@2@@__crt_stdio_output@@AEAA_NXZ 00000001800544e0 f i libucrtd:output.obj
 0001:00053500       ?type_case_u@?$output_processor@_WV?$stream_output_adapter@_W@__crt_stdio_output@@V?$positional_parameter_base@_WV?$stream_output_adapter@_W@__crt_stdio_output@@@2@@__crt_stdio_output@@AEAA_NXZ 0000000180054500 f i libucrtd:output.obj
 0001:00053520       ?type_case_u@?$output_processor@_WV?$stream_output_adapter@_W@__crt_stdio_output@@V?$standard_base@_WV?$stream_output_adapter@_W@__crt_stdio_output@@@2@@__crt_stdio_output@@AEAA_NXZ 0000000180054520 f i libucrtd:output.obj
 0001:00053540       ?type_case_u@?$output_processor@_WV?$string_output_adapter@_W@__crt_stdio_output@@V?$format_validation_base@_WV?$string_output_adapter@_W@__crt_stdio_output@@@2@@__crt_stdio_output@@AEAA_NXZ 0000000180054540 f i libucrtd:output.obj
 0001:00053560       ?type_case_u@?$output_processor@_WV?$string_output_adapter@_W@__crt_stdio_output@@V?$positional_parameter_base@_WV?$string_output_adapter@_W@__crt_stdio_output@@@2@@__crt_stdio_output@@AEAA_NXZ 0000000180054560 f i libucrtd:output.obj
 0001:00053580       ?type_case_u@?$output_processor@_WV?$string_output_adapter@_W@__crt_stdio_output@@V?$standard_base@_WV?$string_output_adapter@_W@__crt_stdio_output@@@2@@__crt_stdio_output@@AEAA_NXZ 0000000180054580 f i libucrtd:output.obj
 0001:000535a0       ?type_case_x@?$output_processor@DV?$stream_output_adapter@D@__crt_stdio_output@@V?$format_validation_base@DV?$stream_output_adapter@D@__crt_stdio_output@@@2@@__crt_stdio_output@@AEAA_NXZ 00000001800545a0 f i libucrtd:output.obj
 0001:000535c0       ?type_case_x@?$output_processor@DV?$stream_output_adapter@D@__crt_stdio_output@@V?$positional_parameter_base@DV?$stream_output_adapter@D@__crt_stdio_output@@@2@@__crt_stdio_output@@AEAA_NXZ 00000001800545c0 f i libucrtd:output.obj
 0001:000535e0       ?type_case_x@?$output_processor@DV?$stream_output_adapter@D@__crt_stdio_output@@V?$standard_base@DV?$stream_output_adapter@D@__crt_stdio_output@@@2@@__crt_stdio_output@@AEAA_NXZ 00000001800545e0 f i libucrtd:output.obj
 0001:00053600       ?type_case_x@?$output_processor@DV?$string_output_adapter@D@__crt_stdio_output@@V?$format_validation_base@DV?$string_output_adapter@D@__crt_stdio_output@@@2@@__crt_stdio_output@@AEAA_NXZ 0000000180054600 f i libucrtd:output.obj
 0001:00053620       ?type_case_x@?$output_processor@DV?$string_output_adapter@D@__crt_stdio_output@@V?$positional_parameter_base@DV?$string_output_adapter@D@__crt_stdio_output@@@2@@__crt_stdio_output@@AEAA_NXZ 0000000180054620 f i libucrtd:output.obj
 0001:00053640       ?type_case_x@?$output_processor@DV?$string_output_adapter@D@__crt_stdio_output@@V?$standard_base@DV?$string_output_adapter@D@__crt_stdio_output@@@2@@__crt_stdio_output@@AEAA_NXZ 0000000180054640 f i libucrtd:output.obj
 0001:00053660       ?type_case_x@?$output_processor@_WV?$stream_output_adapter@_W@__crt_stdio_output@@V?$format_validation_base@_WV?$stream_output_adapter@_W@__crt_stdio_output@@@2@@__crt_stdio_output@@AEAA_NXZ 0000000180054660 f i libucrtd:output.obj
 0001:00053680       ?type_case_x@?$output_processor@_WV?$stream_output_adapter@_W@__crt_stdio_output@@V?$positional_parameter_base@_WV?$stream_output_adapter@_W@__crt_stdio_output@@@2@@__crt_stdio_output@@AEAA_NXZ 0000000180054680 f i libucrtd:output.obj
 0001:000536a0       ?type_case_x@?$output_processor@_WV?$stream_output_adapter@_W@__crt_stdio_output@@V?$standard_base@_WV?$stream_output_adapter@_W@__crt_stdio_output@@@2@@__crt_stdio_output@@AEAA_NXZ 00000001800546a0 f i libucrtd:output.obj
 0001:000536c0       ?type_case_x@?$output_processor@_WV?$string_output_adapter@_W@__crt_stdio_output@@V?$format_validation_base@_WV?$string_output_adapter@_W@__crt_stdio_output@@@2@@__crt_stdio_output@@AEAA_NXZ 00000001800546c0 f i libucrtd:output.obj
 0001:000536e0       ?type_case_x@?$output_processor@_WV?$string_output_adapter@_W@__crt_stdio_output@@V?$positional_parameter_base@_WV?$string_output_adapter@_W@__crt_stdio_output@@@2@@__crt_stdio_output@@AEAA_NXZ 00000001800546e0 f i libucrtd:output.obj
 0001:00053700       ?type_case_x@?$output_processor@_WV?$string_output_adapter@_W@__crt_stdio_output@@V?$standard_base@_WV?$string_output_adapter@_W@__crt_stdio_output@@@2@@__crt_stdio_output@@AEAA_NXZ 0000000180054700 f i libucrtd:output.obj
 0001:00053720       ?unset_flag@?$output_processor@DV?$stream_output_adapter@D@__crt_stdio_output@@V?$format_validation_base@DV?$stream_output_adapter@D@__crt_stdio_output@@@2@@__crt_stdio_output@@AEAAXI@Z 0000000180054720 f i libucrtd:output.obj
 0001:00053750       ?unset_flag@?$output_processor@DV?$stream_output_adapter@D@__crt_stdio_output@@V?$positional_parameter_base@DV?$stream_output_adapter@D@__crt_stdio_output@@@2@@__crt_stdio_output@@AEAAXI@Z 0000000180054750 f i libucrtd:output.obj
 0001:00053780       ?unset_flag@?$output_processor@DV?$stream_output_adapter@D@__crt_stdio_output@@V?$standard_base@DV?$stream_output_adapter@D@__crt_stdio_output@@@2@@__crt_stdio_output@@AEAAXI@Z 0000000180054780 f i libucrtd:output.obj
 0001:000537b0       ?unset_flag@?$output_processor@DV?$string_output_adapter@D@__crt_stdio_output@@V?$format_validation_base@DV?$string_output_adapter@D@__crt_stdio_output@@@2@@__crt_stdio_output@@AEAAXI@Z 00000001800547b0 f i libucrtd:output.obj
 0001:000537e0       ?unset_flag@?$output_processor@DV?$string_output_adapter@D@__crt_stdio_output@@V?$positional_parameter_base@DV?$string_output_adapter@D@__crt_stdio_output@@@2@@__crt_stdio_output@@AEAAXI@Z 00000001800547e0 f i libucrtd:output.obj
 0001:00053810       ?unset_flag@?$output_processor@DV?$string_output_adapter@D@__crt_stdio_output@@V?$standard_base@DV?$string_output_adapter@D@__crt_stdio_output@@@2@@__crt_stdio_output@@AEAAXI@Z 0000000180054810 f i libucrtd:output.obj
 0001:00053840       ?unset_flag@?$output_processor@_WV?$stream_output_adapter@_W@__crt_stdio_output@@V?$format_validation_base@_WV?$stream_output_adapter@_W@__crt_stdio_output@@@2@@__crt_stdio_output@@AEAAXI@Z 0000000180054840 f i libucrtd:output.obj
 0001:00053870       ?unset_flag@?$output_processor@_WV?$stream_output_adapter@_W@__crt_stdio_output@@V?$positional_parameter_base@_WV?$stream_output_adapter@_W@__crt_stdio_output@@@2@@__crt_stdio_output@@AEAAXI@Z 0000000180054870 f i libucrtd:output.obj
 0001:000538a0       ?unset_flag@?$output_processor@_WV?$stream_output_adapter@_W@__crt_stdio_output@@V?$standard_base@_WV?$stream_output_adapter@_W@__crt_stdio_output@@@2@@__crt_stdio_output@@AEAAXI@Z 00000001800548a0 f i libucrtd:output.obj
 0001:000538d0       ?unset_flag@?$output_processor@_WV?$string_output_adapter@_W@__crt_stdio_output@@V?$format_validation_base@_WV?$string_output_adapter@_W@__crt_stdio_output@@@2@@__crt_stdio_output@@AEAAXI@Z 00000001800548d0 f i libucrtd:output.obj
 0001:00053900       ?unset_flag@?$output_processor@_WV?$string_output_adapter@_W@__crt_stdio_output@@V?$positional_parameter_base@_WV?$string_output_adapter@_W@__crt_stdio_output@@@2@@__crt_stdio_output@@AEAAXI@Z 0000000180054900 f i libucrtd:output.obj
 0001:00053930       ?unset_flag@?$output_processor@_WV?$string_output_adapter@_W@__crt_stdio_output@@V?$standard_base@_WV?$string_output_adapter@_W@__crt_stdio_output@@@2@@__crt_stdio_output@@AEAAXI@Z 0000000180054930 f i libucrtd:output.obj
 0001:00053960       ?update_field_width@?$positional_parameter_base@DV?$stream_output_adapter@D@__crt_stdio_output@@@__crt_stdio_output@@IEAA_NXZ 0000000180054960 f i libucrtd:output.obj
 0001:00053b50       ?update_field_width@?$positional_parameter_base@DV?$string_output_adapter@D@__crt_stdio_output@@@__crt_stdio_output@@IEAA_NXZ 0000000180054b50 f i libucrtd:output.obj
 0001:00053d40       ?update_field_width@?$positional_parameter_base@_WV?$stream_output_adapter@_W@__crt_stdio_output@@@__crt_stdio_output@@IEAA_NXZ 0000000180054d40 f i libucrtd:output.obj
 0001:00053f30       ?update_field_width@?$positional_parameter_base@_WV?$string_output_adapter@_W@__crt_stdio_output@@@__crt_stdio_output@@IEAA_NXZ 0000000180054f30 f i libucrtd:output.obj
 0001:00054120       ?update_field_width@?$standard_base@DV?$stream_output_adapter@D@__crt_stdio_output@@@__crt_stdio_output@@IEAA_NXZ 0000000180055120 f i libucrtd:output.obj
 0001:00054150       ?update_field_width@?$standard_base@DV?$string_output_adapter@D@__crt_stdio_output@@@__crt_stdio_output@@IEAA_NXZ 0000000180055150 f i libucrtd:output.obj
 0001:00054180       ?update_field_width@?$standard_base@_WV?$stream_output_adapter@_W@__crt_stdio_output@@@__crt_stdio_output@@IEAA_NXZ 0000000180055180 f i libucrtd:output.obj
 0001:000541b0       ?update_field_width@?$standard_base@_WV?$string_output_adapter@_W@__crt_stdio_output@@@__crt_stdio_output@@IEAA_NXZ 00000001800551b0 f i libucrtd:output.obj
 0001:000541e0       ?update_precision@?$positional_parameter_base@DV?$stream_output_adapter@D@__crt_stdio_output@@@__crt_stdio_output@@IEAA_NXZ 00000001800551e0 f i libucrtd:output.obj
 0001:000543d0       ?update_precision@?$positional_parameter_base@DV?$string_output_adapter@D@__crt_stdio_output@@@__crt_stdio_output@@IEAA_NXZ 00000001800553d0 f i libucrtd:output.obj
 0001:000545c0       ?update_precision@?$positional_parameter_base@_WV?$stream_output_adapter@_W@__crt_stdio_output@@@__crt_stdio_output@@IEAA_NXZ 00000001800555c0 f i libucrtd:output.obj
 0001:000547b0       ?update_precision@?$positional_parameter_base@_WV?$string_output_adapter@_W@__crt_stdio_output@@@__crt_stdio_output@@IEAA_NXZ 00000001800557b0 f i libucrtd:output.obj
 0001:000549a0       ?update_precision@?$standard_base@DV?$stream_output_adapter@D@__crt_stdio_output@@@__crt_stdio_output@@IEAA_NXZ 00000001800559a0 f i libucrtd:output.obj
 0001:000549d0       ?update_precision@?$standard_base@DV?$string_output_adapter@D@__crt_stdio_output@@@__crt_stdio_output@@IEAA_NXZ 00000001800559d0 f i libucrtd:output.obj
 0001:00054a00       ?update_precision@?$standard_base@_WV?$stream_output_adapter@_W@__crt_stdio_output@@@__crt_stdio_output@@IEAA_NXZ 0000000180055a00 f i libucrtd:output.obj
 0001:00054a30       ?update_precision@?$standard_base@_WV?$string_output_adapter@_W@__crt_stdio_output@@@__crt_stdio_output@@IEAA_NXZ 0000000180055a30 f i libucrtd:output.obj
 0001:00054a60       ?valid@__crt_stdio_stream@@QEBA_NXZ 0000000180055a60 f i libucrtd:output.obj
 0001:00054a90       ?validate@?$stream_output_adapter@D@__crt_stdio_output@@QEBA_NXZ 0000000180055a90 f i libucrtd:output.obj
 0001:00054b70       ?validate@?$stream_output_adapter@_W@__crt_stdio_output@@QEBA_NXZ 0000000180055b70 f i libucrtd:output.obj
 0001:00054c50       ?validate@?$string_output_adapter@D@__crt_stdio_output@@QEBA_NXZ 0000000180055c50 f i libucrtd:output.obj
 0001:00054d10       ?validate@?$string_output_adapter@_W@__crt_stdio_output@@QEBA_NXZ 0000000180055d10 f i libucrtd:output.obj
 0001:00054dd0       ?validate_and_store_parameter_data@?$positional_parameter_base@DV?$stream_output_adapter@D@__crt_stdio_output@@@__crt_stdio_output@@AEAA_NAEAUparameter_data@12@W4parameter_type@12@DW4length_modifier@2@@Z 0000000180055dd0 f i libucrtd:output.obj
 0001:00054ef0       ?validate_and_store_parameter_data@?$positional_parameter_base@DV?$string_output_adapter@D@__crt_stdio_output@@@__crt_stdio_output@@AEAA_NAEAUparameter_data@12@W4parameter_type@12@DW4length_modifier@2@@Z 0000000180055ef0 f i libucrtd:output.obj
 0001:00055010       ?validate_and_store_parameter_data@?$positional_parameter_base@_WV?$stream_output_adapter@_W@__crt_stdio_output@@@__crt_stdio_output@@AEAA_NAEAUparameter_data@12@W4parameter_type@12@_WW4length_modifier@2@@Z 0000000180056010 f i libucrtd:output.obj
 0001:00055130       ?validate_and_store_parameter_data@?$positional_parameter_base@_WV?$string_output_adapter@_W@__crt_stdio_output@@@__crt_stdio_output@@AEAA_NAEAUparameter_data@12@W4parameter_type@12@_WW4length_modifier@2@@Z 0000000180056130 f i libucrtd:output.obj
 0001:00055250       ?validate_and_update_state_at_beginning_of_format_character@?$positional_parameter_base@DV?$stream_output_adapter@D@__crt_stdio_output@@@__crt_stdio_output@@IEAA_NXZ 0000000180056250 f i libucrtd:output.obj
 0001:00055530       ?validate_and_update_state_at_beginning_of_format_character@?$positional_parameter_base@DV?$string_output_adapter@D@__crt_stdio_output@@@__crt_stdio_output@@IEAA_NXZ 0000000180056530 f i libucrtd:output.obj
 0001:00055810       ?validate_and_update_state_at_beginning_of_format_character@?$positional_parameter_base@_WV?$stream_output_adapter@_W@__crt_stdio_output@@@__crt_stdio_output@@IEAA_NXZ 0000000180056810 f i libucrtd:output.obj
 0001:00055af0       ?validate_and_update_state_at_beginning_of_format_character@?$positional_parameter_base@_WV?$string_output_adapter@_W@__crt_stdio_output@@@__crt_stdio_output@@IEAA_NXZ 0000000180056af0 f i libucrtd:output.obj
 0001:00055dd0       ?validate_and_update_state_at_beginning_of_format_character@?$standard_base@DV?$stream_output_adapter@D@__crt_stdio_output@@@__crt_stdio_output@@IEAA_NXZ 0000000180056dd0 f i libucrtd:output.obj
 0001:00055de0       ?validate_and_update_state_at_beginning_of_format_character@?$standard_base@DV?$string_output_adapter@D@__crt_stdio_output@@@__crt_stdio_output@@IEAA_NXZ 0000000180056de0 f i libucrtd:output.obj
 0001:00055df0       ?validate_and_update_state_at_beginning_of_format_character@?$standard_base@_WV?$stream_output_adapter@_W@__crt_stdio_output@@@__crt_stdio_output@@IEAA_NXZ 0000000180056df0 f i libucrtd:output.obj
 0001:00055e00       ?validate_and_update_state_at_beginning_of_format_character@?$standard_base@_WV?$string_output_adapter@_W@__crt_stdio_output@@@__crt_stdio_output@@IEAA_NXZ 0000000180056e00 f i libucrtd:output.obj
 0001:00055e10       ?validate_and_update_state_at_end_of_format_string@?$format_validation_base@DV?$stream_output_adapter@D@__crt_stdio_output@@@__crt_stdio_output@@IEBA_NXZ 0000000180056e10 f i libucrtd:output.obj
 0001:00055ed0       ?validate_and_update_state_at_end_of_format_string@?$format_validation_base@DV?$string_output_adapter@D@__crt_stdio_output@@@__crt_stdio_output@@IEBA_NXZ 0000000180056ed0 f i libucrtd:output.obj
 0001:00055f90       ?validate_and_update_state_at_end_of_format_string@?$format_validation_base@_WV?$stream_output_adapter@_W@__crt_stdio_output@@@__crt_stdio_output@@IEBA_NXZ 0000000180056f90 f i libucrtd:output.obj
 0001:00056050       ?validate_and_update_state_at_end_of_format_string@?$format_validation_base@_WV?$string_output_adapter@_W@__crt_stdio_output@@@__crt_stdio_output@@IEBA_NXZ 0000000180057050 f i libucrtd:output.obj
 0001:00056110       ?validate_and_update_state_at_end_of_format_string@?$positional_parameter_base@DV?$stream_output_adapter@D@__crt_stdio_output@@@__crt_stdio_output@@IEAA_NXZ 0000000180057110 f i libucrtd:output.obj
 0001:00056300       ?validate_and_update_state_at_end_of_format_string@?$positional_parameter_base@DV?$string_output_adapter@D@__crt_stdio_output@@@__crt_stdio_output@@IEAA_NXZ 0000000180057300 f i libucrtd:output.obj
 0001:000564f0       ?validate_and_update_state_at_end_of_format_string@?$positional_parameter_base@_WV?$stream_output_adapter@_W@__crt_stdio_output@@@__crt_stdio_output@@IEAA_NXZ 00000001800574f0 f i libucrtd:output.obj
 0001:000566e0       ?validate_and_update_state_at_end_of_format_string@?$positional_parameter_base@_WV?$string_output_adapter@_W@__crt_stdio_output@@@__crt_stdio_output@@IEAA_NXZ 00000001800576e0 f i libucrtd:output.obj
 0001:000568d0       ?validate_and_update_state_at_end_of_format_string@?$standard_base@DV?$stream_output_adapter@D@__crt_stdio_output@@@__crt_stdio_output@@IEBA_NXZ 00000001800578d0 f i libucrtd:output.obj
 0001:000568e0       ?validate_and_update_state_at_end_of_format_string@?$standard_base@DV?$string_output_adapter@D@__crt_stdio_output@@@__crt_stdio_output@@IEBA_NXZ 00000001800578e0 f i libucrtd:output.obj
 0001:000568f0       ?validate_and_update_state_at_end_of_format_string@?$standard_base@_WV?$stream_output_adapter@_W@__crt_stdio_output@@@__crt_stdio_output@@IEBA_NXZ 00000001800578f0 f i libucrtd:output.obj
 0001:00056900       ?validate_and_update_state_at_end_of_format_string@?$standard_base@_WV?$string_output_adapter@_W@__crt_stdio_output@@@__crt_stdio_output@@IEBA_NXZ 0000000180057900 f i libucrtd:output.obj
 0001:00056910       ?validate_state_for_type_case_a@?$positional_parameter_base@DV?$stream_output_adapter@D@__crt_stdio_output@@@__crt_stdio_output@@IEAA_NXZ 0000000180057910 f i libucrtd:output.obj
 0001:00056a50       ?validate_state_for_type_case_a@?$positional_parameter_base@DV?$string_output_adapter@D@__crt_stdio_output@@@__crt_stdio_output@@IEAA_NXZ 0000000180057a50 f i libucrtd:output.obj
 0001:00056b90       ?validate_state_for_type_case_a@?$positional_parameter_base@_WV?$stream_output_adapter@_W@__crt_stdio_output@@@__crt_stdio_output@@IEAA_NXZ 0000000180057b90 f i libucrtd:output.obj
 0001:00056cd0       ?validate_state_for_type_case_a@?$positional_parameter_base@_WV?$string_output_adapter@_W@__crt_stdio_output@@@__crt_stdio_output@@IEAA_NXZ 0000000180057cd0 f i libucrtd:output.obj
 0001:00056e10       ?validate_state_for_type_case_a@?$standard_base@DV?$stream_output_adapter@D@__crt_stdio_output@@@__crt_stdio_output@@IEBA_NXZ 0000000180057e10 f i libucrtd:output.obj
 0001:00056e20       ?validate_state_for_type_case_a@?$standard_base@DV?$string_output_adapter@D@__crt_stdio_output@@@__crt_stdio_output@@IEBA_NXZ 0000000180057e20 f i libucrtd:output.obj
 0001:00056e30       ?validate_state_for_type_case_a@?$standard_base@_WV?$stream_output_adapter@_W@__crt_stdio_output@@@__crt_stdio_output@@IEBA_NXZ 0000000180057e30 f i libucrtd:output.obj
 0001:00056e40       ?validate_state_for_type_case_a@?$standard_base@_WV?$string_output_adapter@_W@__crt_stdio_output@@@__crt_stdio_output@@IEBA_NXZ 0000000180057e40 f i libucrtd:output.obj
 0001:00056e50       ?validate_stream_is_ansi_if_required@?$__acrt_stdio_char_traits@D@@SA_NQEAU_iobuf@@@Z 0000000180057e50 f i libucrtd:output.obj
 0001:00056fe0       ?validate_stream_is_ansi_if_required@?$__acrt_stdio_char_traits@_W@@SA_NQEAU_iobuf@@@Z 0000000180057fe0 f i libucrtd:output.obj
 0001:00056ff0       ?wide_null_string@?$output_processor@DV?$stream_output_adapter@D@__crt_stdio_output@@V?$format_validation_base@DV?$stream_output_adapter@D@__crt_stdio_output@@@2@@__crt_stdio_output@@CAPEA_WXZ 0000000180057ff0 f i libucrtd:output.obj
 0001:00057000       ?wide_null_string@?$output_processor@DV?$stream_output_adapter@D@__crt_stdio_output@@V?$positional_parameter_base@DV?$stream_output_adapter@D@__crt_stdio_output@@@2@@__crt_stdio_output@@CAPEA_WXZ 0000000180058000 f i libucrtd:output.obj
 0001:00057010       ?wide_null_string@?$output_processor@DV?$stream_output_adapter@D@__crt_stdio_output@@V?$standard_base@DV?$stream_output_adapter@D@__crt_stdio_output@@@2@@__crt_stdio_output@@CAPEA_WXZ 0000000180058010 f i libucrtd:output.obj
 0001:00057020       ?wide_null_string@?$output_processor@DV?$string_output_adapter@D@__crt_stdio_output@@V?$format_validation_base@DV?$string_output_adapter@D@__crt_stdio_output@@@2@@__crt_stdio_output@@CAPEA_WXZ 0000000180058020 f i libucrtd:output.obj
 0001:00057030       ?wide_null_string@?$output_processor@DV?$string_output_adapter@D@__crt_stdio_output@@V?$positional_parameter_base@DV?$string_output_adapter@D@__crt_stdio_output@@@2@@__crt_stdio_output@@CAPEA_WXZ 0000000180058030 f i libucrtd:output.obj
 0001:00057040       ?wide_null_string@?$output_processor@DV?$string_output_adapter@D@__crt_stdio_output@@V?$standard_base@DV?$string_output_adapter@D@__crt_stdio_output@@@2@@__crt_stdio_output@@CAPEA_WXZ 0000000180058040 f i libucrtd:output.obj
 0001:00057050       ?wide_null_string@?$output_processor@_WV?$stream_output_adapter@_W@__crt_stdio_output@@V?$format_validation_base@_WV?$stream_output_adapter@_W@__crt_stdio_output@@@2@@__crt_stdio_output@@CAPEA_WXZ 0000000180058050 f i libucrtd:output.obj
 0001:00057060       ?wide_null_string@?$output_processor@_WV?$stream_output_adapter@_W@__crt_stdio_output@@V?$positional_parameter_base@_WV?$stream_output_adapter@_W@__crt_stdio_output@@@2@@__crt_stdio_output@@CAPEA_WXZ 0000000180058060 f i libucrtd:output.obj
 0001:00057070       ?wide_null_string@?$output_processor@_WV?$stream_output_adapter@_W@__crt_stdio_output@@V?$standard_base@_WV?$stream_output_adapter@_W@__crt_stdio_output@@@2@@__crt_stdio_output@@CAPEA_WXZ 0000000180058070 f i libucrtd:output.obj
 0001:00057080       ?wide_null_string@?$output_processor@_WV?$string_output_adapter@_W@__crt_stdio_output@@V?$format_validation_base@_WV?$string_output_adapter@_W@__crt_stdio_output@@@2@@__crt_stdio_output@@CAPEA_WXZ 0000000180058080 f i libucrtd:output.obj
 0001:00057090       ?wide_null_string@?$output_processor@_WV?$string_output_adapter@_W@__crt_stdio_output@@V?$positional_parameter_base@_WV?$string_output_adapter@_W@__crt_stdio_output@@@2@@__crt_stdio_output@@CAPEA_WXZ 0000000180058090 f i libucrtd:output.obj
 0001:000570a0       ?wide_null_string@?$output_processor@_WV?$string_output_adapter@_W@__crt_stdio_output@@V?$standard_base@_WV?$string_output_adapter@_W@__crt_stdio_output@@@2@@__crt_stdio_output@@CAPEA_WXZ 00000001800580a0 f i libucrtd:output.obj
 0001:000570b0       ?write_character@?$output_adapter_common@DV?$stream_output_adapter@D@__crt_stdio_output@@@__crt_stdio_output@@QEBAXDQEAH@Z 00000001800580b0 f i libucrtd:output.obj
 0001:00057100       ?write_character@?$output_adapter_common@_WV?$stream_output_adapter@_W@__crt_stdio_output@@@__crt_stdio_output@@QEBAX_WQEAH@Z 0000000180058100 f i libucrtd:output.obj
 0001:00057150       ?write_character@?$string_output_adapter@D@__crt_stdio_output@@QEBA_NDQEAH@Z 0000000180058150 f i libucrtd:output.obj
 0001:00057210       ?write_character@?$string_output_adapter@_W@__crt_stdio_output@@QEBA_N_WQEAH@Z 0000000180058210 f i libucrtd:output.obj
 0001:000572d0       ?write_character_without_count_update@?$stream_output_adapter@D@__crt_stdio_output@@QEBA_ND@Z 00000001800582d0 f i libucrtd:output.obj
 0001:00057350       ?write_character_without_count_update@?$stream_output_adapter@_W@__crt_stdio_output@@QEBA_N_W@Z 0000000180058350 f i libucrtd:output.obj
 0001:000573e0       ?write_stored_string_tchar@?$output_processor@DV?$stream_output_adapter@D@__crt_stdio_output@@V?$format_validation_base@DV?$stream_output_adapter@D@__crt_stdio_output@@@2@@__crt_stdio_output@@AEAA_ND@Z 00000001800583e0 f i libucrtd:output.obj
 0001:000575a0       ?write_stored_string_tchar@?$output_processor@DV?$stream_output_adapter@D@__crt_stdio_output@@V?$positional_parameter_base@DV?$stream_output_adapter@D@__crt_stdio_output@@@2@@__crt_stdio_output@@AEAA_ND@Z 00000001800585a0 f i libucrtd:output.obj
 0001:00057760       ?write_stored_string_tchar@?$output_processor@DV?$stream_output_adapter@D@__crt_stdio_output@@V?$standard_base@DV?$stream_output_adapter@D@__crt_stdio_output@@@2@@__crt_stdio_output@@AEAA_ND@Z 0000000180058760 f i libucrtd:output.obj
 0001:00057920       ?write_stored_string_tchar@?$output_processor@DV?$string_output_adapter@D@__crt_stdio_output@@V?$format_validation_base@DV?$string_output_adapter@D@__crt_stdio_output@@@2@@__crt_stdio_output@@AEAA_ND@Z 0000000180058920 f i libucrtd:output.obj
 0001:00057ae0       ?write_stored_string_tchar@?$output_processor@DV?$string_output_adapter@D@__crt_stdio_output@@V?$positional_parameter_base@DV?$string_output_adapter@D@__crt_stdio_output@@@2@@__crt_stdio_output@@AEAA_ND@Z 0000000180058ae0 f i libucrtd:output.obj
 0001:00057ca0       ?write_stored_string_tchar@?$output_processor@DV?$string_output_adapter@D@__crt_stdio_output@@V?$standard_base@DV?$string_output_adapter@D@__crt_stdio_output@@@2@@__crt_stdio_output@@AEAA_ND@Z 0000000180058ca0 f i libucrtd:output.obj
 0001:00057e60       ?write_stored_string_tchar@?$output_processor@_WV?$stream_output_adapter@_W@__crt_stdio_output@@V?$format_validation_base@_WV?$stream_output_adapter@_W@__crt_stdio_output@@@2@@__crt_stdio_output@@AEAA_N_W@Z 0000000180058e60 f i libucrtd:output.obj
 0001:00057fb0       ?write_stored_string_tchar@?$output_processor@_WV?$stream_output_adapter@_W@__crt_stdio_output@@V?$positional_parameter_base@_WV?$stream_output_adapter@_W@__crt_stdio_output@@@2@@__crt_stdio_output@@AEAA_N_W@Z 0000000180058fb0 f i libucrtd:output.obj
 0001:00058100       ?write_stored_string_tchar@?$output_processor@_WV?$stream_output_adapter@_W@__crt_stdio_output@@V?$standard_base@_WV?$stream_output_adapter@_W@__crt_stdio_output@@@2@@__crt_stdio_output@@AEAA_N_W@Z 0000000180059100 f i libucrtd:output.obj
 0001:00058250       ?write_stored_string_tchar@?$output_processor@_WV?$string_output_adapter@_W@__crt_stdio_output@@V?$format_validation_base@_WV?$string_output_adapter@_W@__crt_stdio_output@@@2@@__crt_stdio_output@@AEAA_N_W@Z 0000000180059250 f i libucrtd:output.obj
 0001:000583a0       ?write_stored_string_tchar@?$output_processor@_WV?$string_output_adapter@_W@__crt_stdio_output@@V?$positional_parameter_base@_WV?$string_output_adapter@_W@__crt_stdio_output@@@2@@__crt_stdio_output@@AEAA_N_W@Z 00000001800593a0 f i libucrtd:output.obj
 0001:000584f0       ?write_stored_string_tchar@?$output_processor@_WV?$string_output_adapter@_W@__crt_stdio_output@@V?$standard_base@_WV?$string_output_adapter@_W@__crt_stdio_output@@@2@@__crt_stdio_output@@AEAA_N_W@Z 00000001800594f0 f i libucrtd:output.obj
 0001:00058640       ?write_string@?$stream_output_adapter@D@__crt_stdio_output@@QEBAXQEBDHQEAHAEAV__crt_deferred_errno_cache@@@Z 0000000180059640 f i libucrtd:output.obj
 0001:000586c0       ?write_string@?$stream_output_adapter@_W@__crt_stdio_output@@QEBAXQEB_WHQEAHAEAV__crt_deferred_errno_cache@@@Z 00000001800596c0 f i libucrtd:output.obj
 0001:00058740       ?write_string@?$string_output_adapter@D@__crt_stdio_output@@QEBAXQEBDHQEAHAEAV__crt_deferred_errno_cache@@@Z 0000000180059740 f i libucrtd:output.obj
 0001:000588b0       ?write_string@?$string_output_adapter@_W@__crt_stdio_output@@QEBAXQEB_WHQEAHAEAV__crt_deferred_errno_cache@@@Z 00000001800598b0 f i libucrtd:output.obj
 0001:00058a20       ?write_string_impl@?$output_adapter_common@DV?$stream_output_adapter@D@__crt_stdio_output@@@__crt_stdio_output@@IEBAXQEBDHQEAHAEAV__crt_deferred_errno_cache@@@Z 0000000180059a20 f i libucrtd:output.obj
 0001:00058b00       ?write_string_impl@?$output_adapter_common@_WV?$stream_output_adapter@_W@__crt_stdio_output@@@__crt_stdio_output@@IEBAXQEB_WHQEAHAEAV__crt_deferred_errno_cache@@@Z 0000000180059b00 f i libucrtd:output.obj
 0001:00058be0       __acrt_isleadbyte_l_noupdate 0000000180059be0 f i libucrtd:output.obj
 0001:00058c10       __acrt_locale_get_ctype_array_value 0000000180059c10 f i libucrtd:output.obj
 0001:00058c50       __stdio_common_vfprintf    0000000180059c50 f   libucrtd:output.obj
 0001:00058c90       __stdio_common_vfprintf_p  0000000180059c90 f   libucrtd:output.obj
 0001:00058cd0       __stdio_common_vfprintf_s  0000000180059cd0 f   libucrtd:output.obj
 0001:00058d10       __stdio_common_vfwprintf   0000000180059d10 f   libucrtd:output.obj
 0001:00058d50       __stdio_common_vfwprintf_p 0000000180059d50 f   libucrtd:output.obj
 0001:00058d90       __stdio_common_vfwprintf_s 0000000180059d90 f   libucrtd:output.obj
 0001:00058dd0       __stdio_common_vsnprintf_s 0000000180059dd0 f   libucrtd:output.obj
 0001:00058e30       __stdio_common_vsnwprintf_s 0000000180059e30 f   libucrtd:output.obj
 0001:00058e90       __stdio_common_vsprintf    0000000180059e90 f   libucrtd:output.obj
 0001:00058ee0       __stdio_common_vsprintf_p  0000000180059ee0 f   libucrtd:output.obj
 0001:00058f30       __stdio_common_vsprintf_s  0000000180059f30 f   libucrtd:output.obj
 0001:00058f80       __stdio_common_vswprintf   0000000180059f80 f   libucrtd:output.obj
 0001:00058fd0       __stdio_common_vswprintf_p 0000000180059fd0 f   libucrtd:output.obj
 0001:00059020       __stdio_common_vswprintf_s 000000018005a020 f   libucrtd:output.obj
 0001:00059070       _ctype_fast_check_internal 000000018005a070 f i libucrtd:output.obj
 0001:000590a0       _isdigit_fast_internal     000000018005a0a0 f i libucrtd:output.obj
 0001:000590d0       _tolower_fast_internal     000000018005a0d0 f i libucrtd:output.obj
 0001:00059100       ??$?RU?$__crt_report_hook_node@D@@@__crt_internal_free_policy@@QEBAXQEBU?$__crt_report_hook_node@D@@@Z 000000018005a100 f i libucrtd:dbgrpt.obj
 0001:00059130       ??$?RU?$__crt_report_hook_node@_W@@@__crt_internal_free_policy@@QEBAXQEBU?$__crt_report_hook_node@_W@@@Z 000000018005a130 f i libucrtd:dbgrpt.obj
 0001:0005a370       ??$get_module_file_name@AEAPEAUHINSTANCE__@@AEAY0BAF@DK@?$__crt_char_traits@D@@SAKAEAPEAUHINSTANCE__@@AEAY0BAF@D$$QEAK@Z 000000018005b370 f i libucrtd:dbgrpt.obj
 0001:0005a3b0       ??$get_module_file_name@AEAPEAUHINSTANCE__@@AEAY0BAF@_WK@?$__crt_char_traits@_W@@SAKAEAPEAUHINSTANCE__@@AEAY0BAF@_W$$QEAK@Z 000000018005b3b0 f i libucrtd:dbgrpt.obj
 0001:0005a3f0       ??$tcscpy_s@AEAY0BAF@D_KPEBD@?$__crt_char_traits@D@@SAHAEAY0BAF@D$$QEA_K$$QEAPEBD@Z 000000018005b3f0 f i libucrtd:dbgrpt.obj
 0001:0005a430       ??$tcscpy_s@AEAY0BAF@_W_KPEB_W@?$__crt_char_traits@_W@@SAHAEAY0BAF@_W$$QEA_K$$QEAPEB_W@Z 000000018005b430 f i libucrtd:dbgrpt.obj
 0001:0005a470       ??$tcslen@AEAY0BAF@D@?$__crt_char_traits@D@@SA_KAEAY0BAF@D@Z 000000018005b470 f i libucrtd:dbgrpt.obj
 0001:0005a490       ??$tcslen@AEAY0BAF@_W@?$__crt_char_traits@_W@@SA_KAEAY0BAF@_W@Z 000000018005b490 f i libucrtd:dbgrpt.obj
 0001:0005a4b0       ??$tcslen@AEBQEBD@?$__crt_char_traits@D@@SA_KAEBQEBD@Z 000000018005b4b0 f i libucrtd:dbgrpt.obj
 0001:0005a4d0       ??$tcslen@AEBQEB_W@?$__crt_char_traits@_W@@SA_KAEBQEB_W@Z 000000018005b4d0 f i libucrtd:dbgrpt.obj
 0001:0005a5d0       ??0?$__crt_unique_heap_ptr@U?$__crt_report_hook_node@D@@U__crt_internal_free_policy@@@@QEAA@QEAU?$__crt_report_hook_node@D@@@Z 000000018005b5d0 f i libucrtd:dbgrpt.obj
 0001:0005a5f0       ??0?$__crt_unique_heap_ptr@U?$__crt_report_hook_node@_W@@U__crt_internal_free_policy@@@@QEAA@QEAU?$__crt_report_hook_node@_W@@@Z 000000018005b5f0 f i libucrtd:dbgrpt.obj
 0001:0005a610       ??1?$__crt_unique_heap_ptr@U?$__crt_report_hook_node@D@@U__crt_internal_free_policy@@@@QEAA@XZ 000000018005b610 f i libucrtd:dbgrpt.obj
 0001:0005a630       ??1?$__crt_unique_heap_ptr@U?$__crt_report_hook_node@_W@@U__crt_internal_free_policy@@@@QEAA@XZ 000000018005b630 f i libucrtd:dbgrpt.obj
 0001:0005a650       ??B?$__crt_unique_heap_ptr@U?$__crt_report_hook_node@D@@U__crt_internal_free_policy@@@@QEBA_NXZ 000000018005b650 f i libucrtd:dbgrpt.obj
 0001:0005a670       ??B?$__crt_unique_heap_ptr@U?$__crt_report_hook_node@_W@@U__crt_internal_free_policy@@@@QEBA_NXZ 000000018005b670 f i libucrtd:dbgrpt.obj
 0001:0005ad50       ?detach@?$__crt_unique_heap_ptr@U?$__crt_report_hook_node@D@@U__crt_internal_free_policy@@@@QEAAPEAU?$__crt_report_hook_node@D@@XZ 000000018005bd50 f i libucrtd:dbgrpt.obj
 0001:0005ad80       ?detach@?$__crt_unique_heap_ptr@U?$__crt_report_hook_node@_W@@U__crt_internal_free_policy@@@@QEAAPEAU?$__crt_report_hook_node@_W@@XZ 000000018005bd80 f i libucrtd:dbgrpt.obj
 0001:0005adb0       ?get@?$__crt_unique_heap_ptr@U?$__crt_report_hook_node@D@@U__crt_internal_free_policy@@@@QEBAPEAU?$__crt_report_hook_node@D@@XZ 000000018005bdb0 f i libucrtd:dbgrpt.obj
 0001:0005adc0       ?get@?$__crt_unique_heap_ptr@U?$__crt_report_hook_node@_W@@U__crt_internal_free_policy@@@@QEBAPEAU?$__crt_report_hook_node@_W@@XZ 000000018005bdc0 f i libucrtd:dbgrpt.obj
 0001:0005ae30       ?is_valid@?$__crt_unique_heap_ptr@U?$__crt_report_hook_node@D@@U__crt_internal_free_policy@@@@QEBA_NXZ 000000018005be30 f i libucrtd:dbgrpt.obj
 0001:0005ae60       ?is_valid@?$__crt_unique_heap_ptr@U?$__crt_report_hook_node@_W@@U__crt_internal_free_policy@@@@QEBA_NXZ 000000018005be60 f i libucrtd:dbgrpt.obj
 0001:0005ae90       ?release@?$__crt_unique_heap_ptr@U?$__crt_report_hook_node@D@@U__crt_internal_free_policy@@@@QEAAXXZ 000000018005be90 f i libucrtd:dbgrpt.obj
 0001:0005aec0       ?release@?$__crt_unique_heap_ptr@U?$__crt_report_hook_node@_W@@U__crt_internal_free_policy@@@@QEAAXXZ 000000018005bec0 f i libucrtd:dbgrpt.obj
 0001:0005aef0       _CrtDbgReport              000000018005bef0 f   libucrtd:dbgrpt.obj
 0001:0005af70       _CrtDbgReportW             000000018005bf70 f   libucrtd:dbgrpt.obj
 0001:0005aff0       _CrtSetReportHook2         000000018005bff0 f   libucrtd:dbgrpt.obj
 0001:0005b010       _CrtSetReportHookW2        000000018005c010 f   libucrtd:dbgrpt.obj
 0001:0005b030       __acrt_MessageWindowA      000000018005c030 f   libucrtd:dbgrpt.obj
 0001:0005b080       __acrt_MessageWindowW      000000018005c080 f   libucrtd:dbgrpt.obj
 0001:0005b0d0       _snwprintf_s               000000018005c0d0 f i libucrtd:dbgrpt.obj
 0001:0005b140       _vsnwprintf_s_l            000000018005c140 f i libucrtd:dbgrpt.obj
 0001:0005b1c0       ??$is_overflow_condition@K@__crt_strtox@@YA_NIK@Z 000000018005c1c0 f i libucrtd:atox.obj
 0001:0005b230       ??$is_overflow_condition@_K@__crt_strtox@@YA_NI_K@Z 000000018005c230 f i libucrtd:atox.obj
 0001:0005b2a0       ??$make_c_string_character_source@D$$T@__crt_strtox@@YA?AV?$c_string_character_source@D@0@QEBD$$T@Z 000000018005c2a0 f i libucrtd:atox.obj
 0001:0005b2e0       ??$make_c_string_character_source@_W$$T@__crt_strtox@@YA?AV?$c_string_character_source@_W@0@QEB_W$$T@Z 000000018005c2e0 f i libucrtd:atox.obj
 0001:0005b320       ??$parse_integer@KV?$c_string_character_source@D@__crt_strtox@@@__crt_strtox@@YAKQEAU__crt_locale_pointers@@V?$c_string_character_source@D@0@H_N@Z 000000018005c320 f i libucrtd:atox.obj
 0001:0005b7b0       ??$parse_integer@KV?$c_string_character_source@_W@__crt_strtox@@@__crt_strtox@@YAKQEAU__crt_locale_pointers@@V?$c_string_character_source@_W@0@H_N@Z 000000018005c7b0 f i libucrtd:atox.obj
 0001:0005bc60       ??$parse_integer@_KV?$c_string_character_source@D@__crt_strtox@@@__crt_strtox@@YA_KQEAU__crt_locale_pointers@@V?$c_string_character_source@D@0@H_N@Z 000000018005cc60 f i libucrtd:atox.obj
 0001:0005c180       ??$parse_integer@_KV?$c_string_character_source@_W@__crt_strtox@@@__crt_strtox@@YA_KQEAU__crt_locale_pointers@@V?$c_string_character_source@_W@0@H_N@Z 000000018005d180 f i libucrtd:atox.obj
 0001:0005c6a0       ??$parse_integer_from_string@JD$$T@__crt_strtox@@YAJQEBD$$THQEAU__crt_locale_pointers@@@Z 000000018005d6a0 f i libucrtd:atox.obj
 0001:0005c6f0       ??$parse_integer_from_string@J_W$$T@__crt_strtox@@YAJQEB_W$$THQEAU__crt_locale_pointers@@@Z 000000018005d6f0 f i libucrtd:atox.obj
 0001:0005c740       ??$parse_integer_from_string@_JD$$T@__crt_strtox@@YA_JQEBD$$THQEAU__crt_locale_pointers@@@Z 000000018005d740 f i libucrtd:atox.obj
 0001:0005c790       ??$parse_integer_from_string@_J_W$$T@__crt_strtox@@YA_JQEB_W$$THQEAU__crt_locale_pointers@@@Z 000000018005d790 f i libucrtd:atox.obj
 0001:0005c7e0       ??0?$c_string_character_source@D@__crt_strtox@@QEAA@QEBDQEAPEBD@Z 000000018005d7e0 f i libucrtd:atox.obj
 0001:0005c830       ??0?$c_string_character_source@_W@__crt_strtox@@QEAA@QEB_WQEAPEB_W@Z 000000018005d830 f i libucrtd:atox.obj
 0001:0005c880       ??1?$c_string_character_source@D@__crt_strtox@@QEAA@XZ 000000018005d880 f i libucrtd:atox.obj
 0001:0005c8b0       ??1?$c_string_character_source@_W@__crt_strtox@@QEAA@XZ 000000018005d8b0 f i libucrtd:atox.obj
 0001:0005c8e0       ?get@?$c_string_character_source@D@__crt_strtox@@QEAADXZ 000000018005d8e0 f i libucrtd:atox.obj
 0001:0005c920       ?get@?$c_string_character_source@_W@__crt_strtox@@QEAA_WXZ 000000018005d920 f i libucrtd:atox.obj
 0001:0005c960       ?is_space@__crt_strtox@@YA_NDQEAU__crt_locale_pointers@@@Z 000000018005d960 f i libucrtd:atox.obj
 0001:0005c9b0       ?is_space@__crt_strtox@@YA_N_WPEAU__crt_locale_pointers@@@Z 000000018005d9b0 f i libucrtd:atox.obj
 0001:0005c9f0       ?maximum_signed_value@__crt_strtox@@YAJK@Z 000000018005d9f0 f i libucrtd:atox.obj
 0001:0005ca00       ?maximum_signed_value@__crt_strtox@@YA_J_K@Z 000000018005da00 f i libucrtd:atox.obj
 0001:0005ca10       ?minimum_signed_value@__crt_strtox@@YAJK@Z 000000018005da10 f i libucrtd:atox.obj
 0001:0005ca20       ?minimum_signed_value@__crt_strtox@@YA_J_K@Z 000000018005da20 f i libucrtd:atox.obj
 0001:0005ca30       ?parse_digit@__crt_strtox@@YAID@Z 000000018005da30 f i libucrtd:atox.obj
 0001:0005caa0       ?parse_digit@__crt_strtox@@YAI_W@Z 000000018005daa0 f i libucrtd:atox.obj
 0001:0005caf0       ?restore_state@?$c_string_character_source@D@__crt_strtox@@QEAA_NQEBD@Z 000000018005daf0 f i libucrtd:atox.obj
 0001:0005cb10       ?restore_state@?$c_string_character_source@_W@__crt_strtox@@QEAA_NQEB_W@Z 000000018005db10 f i libucrtd:atox.obj
 0001:0005cb30       ?save_state@?$c_string_character_source@D@__crt_strtox@@QEBAPEBDXZ 000000018005db30 f i libucrtd:atox.obj
 0001:0005cb40       ?save_state@?$c_string_character_source@_W@__crt_strtox@@QEBAPEB_WXZ 000000018005db40 f i libucrtd:atox.obj
 0001:0005cb50       ?unget@?$c_string_character_source@D@__crt_strtox@@QEAAXD@Z 000000018005db50 f i libucrtd:atox.obj
 0001:0005cc30       ?unget@?$c_string_character_source@_W@__crt_strtox@@QEAAX_W@Z 000000018005dc30 f i libucrtd:atox.obj
 0001:0005cd10       ?validate@?$c_string_character_source@D@__crt_strtox@@QEBA_NXZ 000000018005dd10 f i libucrtd:atox.obj
 0001:0005cdd0       ?validate@?$c_string_character_source@_W@__crt_strtox@@QEBA_NXZ 000000018005ddd0 f i libucrtd:atox.obj
 0001:0005ce90       ?wide_character_to_digit@__crt_strtox@@YAH_W@Z 000000018005de90 f i libucrtd:atox.obj
 0001:0005d200       __ascii_iswalpha           000000018005e200 f i libucrtd:atox.obj
 0001:0005d240       __ascii_toupper            000000018005e240 f i libucrtd:atox.obj
 0001:0005d260       __ascii_towupper           000000018005e260 f i libucrtd:atox.obj
 0001:0005d280       _atoi64                    000000018005e280 f   libucrtd:atox.obj
 0001:0005d2b0       _atoi64_l                  000000018005e2b0 f   libucrtd:atox.obj
 0001:0005d2e0       _atoi_l                    000000018005e2e0 f   libucrtd:atox.obj
 0001:0005d310       _atol_l                    000000018005e310 f   libucrtd:atox.obj
 0001:0005d340       _atoll_l                   000000018005e340 f   libucrtd:atox.obj
 0001:0005d370       _wtoi                      000000018005e370 f   libucrtd:atox.obj
 0001:0005d3a0       _wtoi64                    000000018005e3a0 f   libucrtd:atox.obj
 0001:0005d3d0       _wtoi64_l                  000000018005e3d0 f   libucrtd:atox.obj
 0001:0005d400       _wtoi_l                    000000018005e400 f   libucrtd:atox.obj
 0001:0005d430       _wtol                      000000018005e430 f   libucrtd:atox.obj
 0001:0005d460       _wtol_l                    000000018005e460 f   libucrtd:atox.obj
 0001:0005d490       _wtoll                     000000018005e490 f   libucrtd:atox.obj
 0001:0005d4c0       _wtoll_l                   000000018005e4c0 f   libucrtd:atox.obj
 0001:0005d4f0       atoi                       000000018005e4f0 f   libucrtd:atox.obj
 0001:0005d520       atol                       000000018005e520 f   libucrtd:atox.obj
 0001:0005d550       atoll                      000000018005e550 f   libucrtd:atox.obj
 0001:0005d590       strncmp                    000000018005e590 f   libucrtd:strncmp.obj
 0001:0005d610       wcsncmp                    000000018005e610 f   libucrtd:wcsncmp.obj
 0001:0005d6a0       free                       000000018005e6a0 f   libucrtd:free.obj
 0001:0005d6d0       malloc                     000000018005e6d0 f   libucrtd:malloc.obj
 0001:0005d8d0       _handle_error              000000018005e8d0 f   libucrtd:libm_error.obj
 0001:0005da60       _handle_errorf             000000018005ea60 f   libucrtd:libm_error.obj
 0001:0005dbf0       _handle_nan                000000018005ebf0 f   libucrtd:libm_error.obj
 0001:0005dc40       _handle_nanf               000000018005ec40 f   libucrtd:libm_error.obj
 0001:0005dc80       ??$?RU__acrt_ptd@@@__crt_internal_free_policy@@QEBAXQEBU__acrt_ptd@@@Z 000000018005ec80 f i libucrtd:per_thread_data.obj
 0001:0005e080       ??0?$__crt_unique_heap_ptr@U__acrt_ptd@@U__crt_internal_free_policy@@@@QEAA@QEAU__acrt_ptd@@@Z 000000018005f080 f i libucrtd:per_thread_data.obj
 0001:0005e0a0       ??0__crt_scoped_get_last_error_reset@@QEAA@XZ 000000018005f0a0 f i libucrtd:per_thread_data.obj
 0001:0005e0c0       ??1?$__crt_unique_heap_ptr@U__acrt_ptd@@U__crt_internal_free_policy@@@@QEAA@XZ 000000018005f0c0 f i libucrtd:per_thread_data.obj
 0001:0005e0e0       ??1__crt_scoped_get_last_error_reset@@QEAA@XZ 000000018005f0e0 f i libucrtd:per_thread_data.obj
 0001:0005e100       ??B?$__crt_unique_heap_ptr@U__acrt_ptd@@U__crt_internal_free_policy@@@@QEBA_NXZ 000000018005f100 f i libucrtd:per_thread_data.obj
 0001:0005e450       ?dangerous_get_state_array@?$dual_state_global@PEAU__crt_locale_data@@@__crt_state_management@@QEAAPEAPEAU__crt_locale_data@@XZ 000000018005f450 f i libucrtd:per_thread_data.obj
 0001:0005e610       ?detach@?$__crt_unique_heap_ptr@U__acrt_ptd@@U__crt_internal_free_policy@@@@QEAAPEAU__acrt_ptd@@XZ 000000018005f610 f i libucrtd:per_thread_data.obj
 0001:0005e640       ?get@?$__crt_unique_heap_ptr@U__acrt_ptd@@U__crt_internal_free_policy@@@@QEBAPEAU__acrt_ptd@@XZ 000000018005f640 f i libucrtd:per_thread_data.obj
 0001:0005e650       ?get_current_state_index@__crt_state_management@@YA_KAEBV__crt_scoped_get_last_error_reset@@@Z 000000018005f650 f i libucrtd:per_thread_data.obj
 0001:0005e800       ?is_valid@?$__crt_unique_heap_ptr@U__acrt_ptd@@U__crt_internal_free_policy@@@@QEBA_NXZ 000000018005f800 f i libucrtd:per_thread_data.obj
 0001:0005e830       ?release@?$__crt_unique_heap_ptr@U__acrt_ptd@@U__crt_internal_free_policy@@@@QEAAXXZ 000000018005f830 f i libucrtd:per_thread_data.obj
 0001:0005e960       ?value@?$dual_state_global@PEAU__crt_locale_data@@@__crt_state_management@@QEAAAEAPEAU__crt_locale_data@@XZ 000000018005f960 f i libucrtd:per_thread_data.obj
 0001:0005e980       __acrt_freeptd             000000018005f980 f   libucrtd:per_thread_data.obj
 0001:0005e9c0       __acrt_getptd              000000018005f9c0 f   libucrtd:per_thread_data.obj
 0001:0005e9f0       __acrt_getptd_head         000000018005f9f0 f   libucrtd:per_thread_data.obj
 0001:0005ea20       __acrt_getptd_noexit       000000018005fa20 f   libucrtd:per_thread_data.obj
 0001:0005ea30       __acrt_initialize_ptd      000000018005fa30 f   libucrtd:per_thread_data.obj
 0001:0005ea70       __acrt_uninitialize_ptd    000000018005fa70 f   libucrtd:per_thread_data.obj
 0001:0005eaa0       __threadhandle             000000018005faa0 f   libucrtd:per_thread_data.obj
 0001:0005eab0       __threadid                 000000018005fab0 f   libucrtd:per_thread_data.obj
 0001:0005eac0       __acrt_initialize_locks    000000018005fac0 f   libucrtd:locks.obj
 0001:0005eb30       __acrt_lock                000000018005fb30 f   libucrtd:locks.obj
 0001:0005eb60       __acrt_uninitialize_locks  000000018005fb60 f   libucrtd:locks.obj
 0001:0005ebc0       __acrt_unlock              000000018005fbc0 f   libucrtd:locks.obj
 0001:0005ebf0       _lock_locales              000000018005fbf0 f   libucrtd:locks.obj
 0001:0005ec10       _unlock_locales            000000018005fc10 f   libucrtd:locks.obj
 0001:0005f020       __acrt_get_begin_thread_init_policy 0000000180060020 f   libucrtd:win_policies.obj
 0001:0005f030       __acrt_get_developer_information_policy 0000000180060030 f   libucrtd:win_policies.obj
 0001:0005f050       __acrt_get_process_end_policy 0000000180060050 f   libucrtd:win_policies.obj
 0001:0005f060       __acrt_get_windowing_model_policy 0000000180060060 f   libucrtd:win_policies.obj
 0001:0005f080       __acrt_errno_from_os_error 0000000180060080 f   libucrtd:errno.obj
 0001:0005f110       __acrt_errno_map_os_error  0000000180060110 f   libucrtd:errno.obj
 0001:0005f140       __doserrno                 0000000180060140 f   libucrtd:errno.obj
 0001:0005f170       _errno                     0000000180060170 f   libucrtd:errno.obj
 0001:0005f1a0       _get_doserrno              00000001800601a0 f   libucrtd:errno.obj
 0001:0005f260       _get_errno                 0000000180060260 f   libucrtd:errno.obj
 0001:0005f320       _set_doserrno              0000000180060320 f   libucrtd:errno.obj
 0001:0005f360       _set_errno                 0000000180060360 f   libucrtd:errno.obj
 0001:0005f740       ??$__acrt_mbs_to_wcs_cp@U__crt_win32_buffer_internal_dynamic_resizing@@@@YAHQEBDAEAV?$__crt_win32_buffer@_WU__crt_win32_buffer_internal_dynamic_resizing@@@@I@Z 0000000180060740 f i libucrtd:argv_wildcards.obj
 0001:0005f790       ??$__acrt_wcs_to_mbs_cp@U__crt_win32_buffer_internal_dynamic_resizing@@@@YAHQEB_WAEAV?$__crt_win32_buffer@DU__crt_win32_buffer_internal_dynamic_resizing@@@@I@Z 0000000180060790 f i libucrtd:argv_wildcards.obj
 0001:00060c10       ??$tcsncpy_s@AEAPEAD_KAEAPEADAEB_K@?$__crt_char_traits@D@@SAHAEAPEAD$$QEA_K0AEB_K@Z 0000000180061c10 f i libucrtd:argv_wildcards.obj
 0001:00060c60       ??$tcsncpy_s@AEAPEA_W_KAEAPEA_WAEB_K@?$__crt_char_traits@_W@@SAHAEAPEA_W$$QEA_K0AEB_K@Z 0000000180061c60 f i libucrtd:argv_wildcards.obj
 0001:00060cb0       ??$tcsncpy_s@PEADAEB_KAEBQEBDAEB_K@?$__crt_char_traits@D@@SAH$$QEAPEADAEB_KAEBQEBD1@Z 0000000180061cb0 f i libucrtd:argv_wildcards.obj
 0001:00060d00       ??$tcsncpy_s@PEAD_KAEBQEBDAEB_K@?$__crt_char_traits@D@@SAH$$QEAPEAD$$QEA_KAEBQEBDAEB_K@Z 0000000180061d00 f i libucrtd:argv_wildcards.obj
 0001:00060d50       ??$tcsncpy_s@PEA_WAEB_KAEBQEB_WAEB_K@?$__crt_char_traits@_W@@SAH$$QEAPEA_WAEB_KAEBQEB_W1@Z 0000000180061d50 f i libucrtd:argv_wildcards.obj
 0001:00060da0       ??$tcsncpy_s@PEA_W_KAEBQEB_WAEB_K@?$__crt_char_traits@_W@@SAH$$QEAPEA_W$$QEA_KAEBQEB_WAEB_K@Z 0000000180061da0 f i libucrtd:argv_wildcards.obj
 0001:00060df0       ??$tcspbrk@AEAPEADAEAY02$$CBD@?$__crt_char_traits@D@@SAPEADAEAPEADAEAY02$$CBD@Z 0000000180061df0 f i libucrtd:argv_wildcards.obj
 0001:00060e20       ??$tcspbrk@AEAPEA_WAEAY02$$CB_W@?$__crt_char_traits@_W@@SAPEA_WAEAPEA_WAEAY02$$CB_W@Z 0000000180061e20 f i libucrtd:argv_wildcards.obj
 0001:00060e50       ??0?$__crt_unique_handle_t@U__crt_findfile_traits@@@@QEAA@QEAX@Z 0000000180061e50 f i libucrtd:argv_wildcards.obj
 0001:00060e70       ??0?$__crt_win32_buffer@DU__crt_win32_buffer_internal_dynamic_resizing@@@@QEAA@XZ 0000000180061e70 f i libucrtd:argv_wildcards.obj
 0001:00060ed0       ??0?$__crt_win32_buffer@_WU__crt_win32_buffer_internal_dynamic_resizing@@@@QEAA@XZ 0000000180061ed0 f i libucrtd:argv_wildcards.obj
 0001:00060fb0       ??1?$__crt_unique_handle_t@U__crt_findfile_traits@@@@QEAA@XZ 0000000180061fb0 f i libucrtd:argv_wildcards.obj
 0001:00060fd0       ??1?$__crt_win32_buffer@DU__crt_win32_buffer_internal_dynamic_resizing@@@@QEAA@XZ 0000000180061fd0 f i libucrtd:argv_wildcards.obj
 0001:00061000       ??1?$__crt_win32_buffer@_WU__crt_win32_buffer_internal_dynamic_resizing@@@@QEAA@XZ 0000000180062000 f i libucrtd:argv_wildcards.obj
 0001:00061300       ?__acrt_get_utf8_acp_compatibility_codepage@@YAIXZ 0000000180062300 f i libucrtd:argv_wildcards.obj
 0001:000613a0       ?_deallocate@?$__crt_win32_buffer@DU__crt_win32_buffer_internal_dynamic_resizing@@@@AEAAXXZ 00000001800623a0 f i libucrtd:argv_wildcards.obj
 0001:000613e0       ?_deallocate@?$__crt_win32_buffer@_WU__crt_win32_buffer_internal_dynamic_resizing@@@@AEAAXXZ 00000001800623e0 f i libucrtd:argv_wildcards.obj
 0001:00061420       ?allocate@?$__crt_win32_buffer@DU__crt_win32_buffer_internal_dynamic_resizing@@@@QEAAH_K@Z 0000000180062420 f i libucrtd:argv_wildcards.obj
 0001:000614a0       ?allocate@?$__crt_win32_buffer@_WU__crt_win32_buffer_internal_dynamic_resizing@@@@QEAAH_K@Z 00000001800624a0 f i libucrtd:argv_wildcards.obj
 0001:00061530       ?allocate@__crt_win32_buffer_internal_dynamic_resizing@@SAHQEAPEAX_KAEBV__crt_win32_buffer_empty_debug_info@@@Z 0000000180062530 f i libucrtd:argv_wildcards.obj
 0001:00061690       ?capacity@?$__crt_win32_buffer@DU__crt_win32_buffer_internal_dynamic_resizing@@@@QEBA_KXZ 0000000180062690 f i libucrtd:argv_wildcards.obj
 0001:000616a0       ?capacity@?$__crt_win32_buffer@_WU__crt_win32_buffer_internal_dynamic_resizing@@@@QEBA_KXZ 00000001800626a0 f i libucrtd:argv_wildcards.obj
 0001:000616b0       ?close@?$__crt_unique_handle_t@U__crt_findfile_traits@@@@QEAAXXZ 00000001800626b0 f i libucrtd:argv_wildcards.obj
 0001:000616f0       ?close@__crt_findfile_traits@@SA_NPEAX@Z 00000001800626f0 f i libucrtd:argv_wildcards.obj
 0001:00061730       ?data@?$__crt_win32_buffer@DU__crt_win32_buffer_internal_dynamic_resizing@@@@QEAAPEADXZ 0000000180062730 f i libucrtd:argv_wildcards.obj
 0001:00061740       ?data@?$__crt_win32_buffer@_WU__crt_win32_buffer_internal_dynamic_resizing@@@@QEAAPEA_WXZ 0000000180062740 f i libucrtd:argv_wildcards.obj
 0001:00061750       ?deallocate@__crt_win32_buffer_internal_dynamic_resizing@@SAXQEAXAEBV__crt_win32_buffer_empty_debug_info@@@Z 0000000180062750 f i libucrtd:argv_wildcards.obj
 0001:00061780       ?debug_info@?$__crt_win32_buffer@DU__crt_win32_buffer_internal_dynamic_resizing@@@@QEBAAEBV__crt_win32_buffer_empty_debug_info@@XZ 0000000180062780 f i libucrtd:argv_wildcards.obj
 0001:00061790       ?debug_info@?$__crt_win32_buffer@_WU__crt_win32_buffer_internal_dynamic_resizing@@@@QEBAAEBV__crt_win32_buffer_empty_debug_info@@XZ 0000000180062790 f i libucrtd:argv_wildcards.obj
 0001:00061b80       ?get@?$__crt_unique_handle_t@U__crt_findfile_traits@@@@QEBAPEAXXZ 0000000180062b80 f i libucrtd:argv_wildcards.obj
 0001:00061bf0       ?get_invalid_value@__crt_findfile_traits@@SAPEAXXZ 0000000180062bf0 f i libucrtd:argv_wildcards.obj
 0001:00061cb0       ?set_to_nullptr@?$__crt_win32_buffer@DU__crt_win32_buffer_internal_dynamic_resizing@@@@QEAAXXZ 0000000180062cb0 f i libucrtd:argv_wildcards.obj
 0001:00061cf0       ?set_to_nullptr@?$__crt_win32_buffer@_WU__crt_win32_buffer_internal_dynamic_resizing@@@@QEAAXXZ 0000000180062cf0 f i libucrtd:argv_wildcards.obj
 0001:00061d30       ?size@?$__crt_win32_buffer@DU__crt_win32_buffer_internal_dynamic_resizing@@@@QEAAX_K@Z 0000000180062d30 f i libucrtd:argv_wildcards.obj
 0001:00061d50       ?size@?$__crt_win32_buffer@_WU__crt_win32_buffer_internal_dynamic_resizing@@@@QEAAX_K@Z 0000000180062d50 f i libucrtd:argv_wildcards.obj
 0001:00061db0       ?strpbrk@@YAPEADQEADQEBD@Z 0000000180062db0 f i libucrtd:argv_wildcards.obj
 0001:00061de0       ?wcspbrk@@YAPEA_WPEA_WPEB_W@Z 0000000180062de0 f i libucrtd:argv_wildcards.obj
 0001:00061e10       __acrt_expand_narrow_argv_wildcards 0000000180062e10 f   libucrtd:argv_wildcards.obj
 0001:00061e40       __acrt_expand_wide_argv_wildcards 0000000180062e40 f   libucrtd:argv_wildcards.obj
 0001:00062010       ??$__acrt_wcs_to_mbs_cp@U__crt_win32_buffer_no_resizing@@@@YAHQEB_WAEAV?$__crt_win32_buffer@DU__crt_win32_buffer_no_resizing@@@@I@Z 0000000180063010 f i libucrtd:getmodulefilenamea.obj
 0001:00062060       ??0?$__crt_win32_buffer@DU__crt_win32_buffer_no_resizing@@@@QEAA@QEAD_K@Z 0000000180063060 f i libucrtd:getmodulefilenamea.obj
 0001:000620d0       ??1?$__crt_win32_buffer@DU__crt_win32_buffer_no_resizing@@@@QEAA@XZ 00000001800630d0 f i libucrtd:getmodulefilenamea.obj
 0001:00062160       ?_deallocate@?$__crt_win32_buffer@DU__crt_win32_buffer_no_resizing@@@@AEAAXXZ 0000000180063160 f i libucrtd:getmodulefilenamea.obj
 0001:000621a0       ?allocate@?$__crt_win32_buffer@DU__crt_win32_buffer_no_resizing@@@@QEAAH_K@Z 00000001800631a0 f i libucrtd:getmodulefilenamea.obj
 0001:00062220       ?allocate@__crt_win32_buffer_no_resizing@@SAHQEAPEAX_KAEBV__crt_win32_buffer_empty_debug_info@@@Z 0000000180063220 f i libucrtd:getmodulefilenamea.obj
 0001:00062250       ?capacity@?$__crt_win32_buffer@DU__crt_win32_buffer_no_resizing@@@@QEBA_KXZ 0000000180063250 f i libucrtd:getmodulefilenamea.obj
 0001:00062260       ?data@?$__crt_win32_buffer@DU__crt_win32_buffer_no_resizing@@@@QEAAPEADXZ 0000000180063260 f i libucrtd:getmodulefilenamea.obj
 0001:00062270       ?deallocate@__crt_win32_buffer_no_resizing@@SAXQEAXAEBV__crt_win32_buffer_empty_debug_info@@@Z 0000000180063270 f i libucrtd:getmodulefilenamea.obj
 0001:00062280       ?debug_info@?$__crt_win32_buffer@DU__crt_win32_buffer_no_resizing@@@@QEBAAEBV__crt_win32_buffer_empty_debug_info@@XZ 0000000180063280 f i libucrtd:getmodulefilenamea.obj
 0001:00062290       ?set_to_nullptr@?$__crt_win32_buffer@DU__crt_win32_buffer_no_resizing@@@@QEAAXXZ 0000000180063290 f i libucrtd:getmodulefilenamea.obj
 0001:000622d0       ?size@?$__crt_win32_buffer@DU__crt_win32_buffer_no_resizing@@@@QEAAX_K@Z 00000001800632d0 f i libucrtd:getmodulefilenamea.obj
 0001:000622f0       ?size@?$__crt_win32_buffer@DU__crt_win32_buffer_no_resizing@@@@QEBA_KXZ 00000001800632f0 f i libucrtd:getmodulefilenamea.obj
 0001:00062300       __acrt_GetModuleFileNameA  0000000180063300 f   libucrtd:getmodulefilenamea.obj
 0001:000623e0       ??$?RU__crt_multibyte_data@@@__crt_internal_free_policy@@QEBAXQEBU__crt_multibyte_data@@@Z 00000001800633e0 f i libucrtd:mbctype.obj
 0001:000624a0       ??$initialize_from_array@$$BY10BAA@E@?$dual_state_global@PEAE@__crt_state_management@@QEAAXAEAY10BAA@E@Z 00000001800634a0 f i libucrtd:mbctype.obj
 0001:00062510       ??$initialize_from_array@$$BY10BAB@E@?$dual_state_global@PEAE@__crt_state_management@@QEAAXAEAY10BAB@E@Z 0000000180063510 f i libucrtd:mbctype.obj
 0001:000625f0       ??0?$__crt_unique_heap_ptr@U__crt_multibyte_data@@U__crt_internal_free_policy@@@@QEAA@QEAU__crt_multibyte_data@@@Z 00000001800635f0 f i libucrtd:mbctype.obj
 0001:00062610       ??1?$__crt_unique_heap_ptr@U__crt_multibyte_data@@U__crt_internal_free_policy@@@@QEAA@XZ 0000000180063610 f i libucrtd:mbctype.obj
 0001:00062630       ??B?$__crt_unique_heap_ptr@U__crt_multibyte_data@@U__crt_internal_free_policy@@@@QEBA_NXZ 0000000180063630 f i libucrtd:mbctype.obj
 0001:00062850       ?dangerous_get_state_array@?$dual_state_global@PEAE@__crt_state_management@@QEAAPEAPEAEXZ 0000000180063850 f i libucrtd:mbctype.obj
 0001:00062860       ?dangerous_get_state_array@?$dual_state_global@PEAU__crt_multibyte_data@@@__crt_state_management@@QEAAPEAPEAU__crt_multibyte_data@@XZ 0000000180063860 f i libucrtd:mbctype.obj
 0001:00062870       ?detach@?$__crt_unique_heap_ptr@U__crt_multibyte_data@@U__crt_internal_free_policy@@@@QEAAPEAU__crt_multibyte_data@@XZ 0000000180063870 f i libucrtd:mbctype.obj
 0001:000628a0       ?get@?$__crt_unique_heap_ptr@U__crt_multibyte_data@@U__crt_internal_free_policy@@@@QEBAPEAU__crt_multibyte_data@@XZ 00000001800638a0 f i libucrtd:mbctype.obj
 0001:00062990       ?initialize@?$dual_state_global@PEAU__crt_multibyte_data@@@__crt_state_management@@QEAAXQEAU__crt_multibyte_data@@@Z 0000000180063990 f i libucrtd:mbctype.obj
 0001:000629e0       ?is_valid@?$__crt_unique_heap_ptr@U__crt_multibyte_data@@U__crt_internal_free_policy@@@@QEBA_NXZ 00000001800639e0 f i libucrtd:mbctype.obj
 0001:00062a10       ?release@?$__crt_unique_heap_ptr@U__crt_multibyte_data@@U__crt_internal_free_policy@@@@QEAAXXZ 0000000180063a10 f i libucrtd:mbctype.obj
 0001:000632a0       ?value@?$dual_state_global@PEAE@__crt_state_management@@QEAAAEAPEAEXZ 00000001800642a0 f i libucrtd:mbctype.obj
 0001:000632c0       ?value@?$dual_state_global@PEAU__crt_multibyte_data@@@__crt_state_management@@QEAAAEAPEAU__crt_multibyte_data@@XZ 00000001800642c0 f i libucrtd:mbctype.obj
 0001:000632e0       __acrt_initialize_multibyte 00000001800642e0 f   libucrtd:mbctype.obj
 0001:000633b0       __acrt_should_sync_with_global_locale 00000001800643b0 f i libucrtd:mbctype.obj
 0001:000633f0       __acrt_update_thread_multibyte_data 00000001800643f0 f   libucrtd:mbctype.obj
 0001:00063420       __p__mbcasemap             0000000180064420 f   libucrtd:mbctype.obj
 0001:00063440       __p__mbctype               0000000180064440 f   libucrtd:mbctype.obj
 0001:00063460       _getmbcp                   0000000180064460 f   libucrtd:mbctype.obj
 0001:000634e0       _setmbcp                   00000001800644e0 f   libucrtd:mbctype.obj
 0001:00063520       _setmbcp_nolock            0000000180064520 f   libucrtd:mbctype.obj
 0001:00063bc4       _ismbbalnum                0000000180064bc4 f   libucrtd:ismbbyte.obj
 0001:00063bdc       _ismbbalnum_l              0000000180064bdc f   libucrtd:ismbbyte.obj
 0001:00063bf8       _ismbbalpha                0000000180064bf8 f   libucrtd:ismbbyte.obj
 0001:00063c10       _ismbbalpha_l              0000000180064c10 f   libucrtd:ismbbyte.obj
 0001:00063c2c       _ismbbblank                0000000180064c2c f   libucrtd:ismbbyte.obj
 0001:00063c48       _ismbbblank_l              0000000180064c48 f   libucrtd:ismbbyte.obj
 0001:00063c68       _ismbbgraph                0000000180064c68 f   libucrtd:ismbbyte.obj
 0001:00063c80       _ismbbgraph_l              0000000180064c80 f   libucrtd:ismbbyte.obj
 0001:00063c9c       _ismbbkalnum               0000000180064c9c f   libucrtd:ismbbyte.obj
 0001:00063cb0       _ismbbkalnum_l             0000000180064cb0 f   libucrtd:ismbbyte.obj
 0001:00063cc8       _ismbbkana                 0000000180064cc8 f   libucrtd:ismbbyte.obj
 0001:00063cd0       _ismbbkana_l               0000000180064cd0 f   libucrtd:ismbbyte.obj
 0001:00063d38       _ismbbkprint               0000000180064d38 f   libucrtd:ismbbyte.obj
 0001:00063d4c       _ismbbkprint_l             0000000180064d4c f   libucrtd:ismbbyte.obj
 0001:00063d64       _ismbbkpunct               0000000180064d64 f   libucrtd:ismbbyte.obj
 0001:00063d78       _ismbbkpunct_l             0000000180064d78 f   libucrtd:ismbbyte.obj
 0001:00063d90       _ismbblead                 0000000180064d90 f   libucrtd:ismbbyte.obj
 0001:00063da4       _ismbblead_l               0000000180064da4 f   libucrtd:ismbbyte.obj
 0001:00063dbc       _ismbbprint                0000000180064dbc f   libucrtd:ismbbyte.obj
 0001:00063dd4       _ismbbprint_l              0000000180064dd4 f   libucrtd:ismbbyte.obj
 0001:00063df0       _ismbbpunct                0000000180064df0 f   libucrtd:ismbbyte.obj
 0001:00063e04       _ismbbpunct_l              0000000180064e04 f   libucrtd:ismbbyte.obj
 0001:00063e1c       _ismbbtrail                0000000180064e1c f   libucrtd:ismbbyte.obj
 0001:00063e30       _ismbbtrail_l              0000000180064e30 f   libucrtd:ismbbyte.obj
 0001:00063e50       __acrt_initialize_command_line 0000000180064e50 f   libucrtd:argv_data.obj
 0001:00063e80       __acrt_uninitialize_command_line 0000000180064e80 f   libucrtd:argv_data.obj
 0001:00063e90       __p___argc                 0000000180064e90 f   libucrtd:argv_data.obj
 0001:00063ea0       __p___argv                 0000000180064ea0 f   libucrtd:argv_data.obj
 0001:00063eb0       __p___wargv                0000000180064eb0 f   libucrtd:argv_data.obj
 0001:00063ec0       __p__acmdln                0000000180064ec0 f   libucrtd:argv_data.obj
 0001:00063ed0       __p__pgmptr                0000000180064ed0 f   libucrtd:argv_data.obj
 0001:00063ee0       __p__wcmdln                0000000180064ee0 f   libucrtd:argv_data.obj
 0001:00063ef0       __p__wpgmptr               0000000180064ef0 f   libucrtd:argv_data.obj
 0001:00063f00       _get_pgmptr                0000000180064f00 f   libucrtd:argv_data.obj
 0001:00064070       _get_wpgmptr               0000000180065070 f   libucrtd:argv_data.obj
 0001:000646c0       wcscpy_s                   00000001800656c0 f   libucrtd:wcscpy_s.obj
 0001:00064790       __acrt_MultiByteToWideChar 0000000180065790 f   libucrtd:multibytetowidechar.obj
 0001:00064890       __acrt_WideCharToMultiByte 0000000180065890 f   libucrtd:widechartomultibyte.obj
 0001:00064a60       __dcrt_get_narrow_environment_from_os 0000000180065a60 f   libucrtd:get_environment_from_os.obj
 0001:00064b78       __dcrt_get_wide_environment_from_os 0000000180065b78 f   libucrtd:get_environment_from_os.obj
 0001:0006590c       ??$get_or_create_environment_nolock@$$V@?$__crt_char_traits@D@@SAPEAPEADXZ 000000018006690c f i libucrtd:setenv.obj
 0001:00065914       ??$get_or_create_environment_nolock@$$V@?$__crt_char_traits@_W@@SAPEAPEA_WXZ 0000000180066914 f i libucrtd:setenv.obj
 0001:0006591c       ??$set_environment_variable@AEBQEADQEAD@?$__crt_char_traits@D@@SAHAEBQEAD$$QEBQEAD@Z 000000018006691c f i libucrtd:setenv.obj
 0001:00065928       ??$set_environment_variable@AEBQEA_WQEA_W@?$__crt_char_traits@_W@@SAHAEBQEA_W$$QEBQEA_W@Z 0000000180066928 f i libucrtd:setenv.obj
 0001:00065938       ??$tcschr@AEBQEADD@?$__crt_char_traits@D@@SAPEADAEBQEAD$$QEAD@Z 0000000180066938 f i libucrtd:setenv.obj
 0001:00065944       ??$tcschr@AEBQEA_WD@?$__crt_char_traits@_W@@SAPEA_WAEBQEA_W$$QEAD@Z 0000000180066944 f i libucrtd:setenv.obj
 0001:00065950       ??$tcscpy_s@AEAPEADAEB_KAEAPEAD@?$__crt_char_traits@D@@SAHAEAPEADAEB_K0@Z 0000000180066950 f i libucrtd:setenv.obj
 0001:00065960       ??$tcscpy_s@AEAPEA_WAEB_KAEAPEA_W@?$__crt_char_traits@_W@@SAHAEAPEA_WAEB_K0@Z 0000000180066960 f i libucrtd:setenv.obj
 0001:00065970       ??$tcscpy_s@AEBQEADAEB_KAEBQEAD@?$__crt_char_traits@D@@SAHAEBQEADAEB_K0@Z 0000000180066970 f i libucrtd:setenv.obj
 0001:00065980       ??$tcscpy_s@AEBQEA_WAEB_KAEBQEA_W@?$__crt_char_traits@_W@@SAHAEBQEA_WAEB_K0@Z 0000000180066980 f i libucrtd:setenv.obj
 0001:00065990       ??$tcslen@AEBQEAD@?$__crt_char_traits@D@@SA_KAEBQEAD@Z 0000000180066990 f i libucrtd:setenv.obj
 0001:000659a4       ??$tcslen@AEBQEA_W@?$__crt_char_traits@_W@@SA_KAEBQEA_W@Z 00000001800669a4 f i libucrtd:setenv.obj
 0001:000659b8       ??$tcsnicoll@AEBQEBDAEAPEADAEB_K@?$__crt_char_traits@D@@SAHAEBQEBDAEAPEADAEB_K@Z 00000001800669b8 f i libucrtd:setenv.obj
 0001:000659c8       ??$tcsnicoll@AEBQEB_WAEAPEA_WAEB_K@?$__crt_char_traits@_W@@SAHAEBQEB_WAEAPEA_WAEB_K@Z 00000001800669c8 f i libucrtd:setenv.obj
 0001:000659d8       ??$tcsnlen@PEADH@?$__crt_char_traits@D@@SA_K$$QEAPEAD$$QEAH@Z 00000001800669d8 f i libucrtd:setenv.obj
 0001:000659e4       ??$tcsnlen@PEA_WH@?$__crt_char_traits@_W@@SA_K$$QEAPEA_W$$QEAH@Z 00000001800669e4 f i libucrtd:setenv.obj
 0001:00065a20       ?strchr@@YAPEADQEADH@Z     0000000180066a20 f i libucrtd:setenv.obj
 0001:00065a28       ?wcschr@@YAPEA_WPEA_W_W@Z  0000000180066a28 f i libucrtd:setenv.obj
 0001:00065a30       __dcrt_set_variable_in_narrow_environment_nolock 0000000180066a30 f   libucrtd:setenv.obj
 0001:00065a38       __dcrt_set_variable_in_wide_environment_nolock 0000000180066a38 f   libucrtd:setenv.obj
 0001:00065a60       ??$?B$$A6AHPEA_WK_J@Z@__crt_fast_encoded_nullptr_t@@QEBAP6AHPEA_WK_J@ZXZ 0000000180066a60 f i libucrtd:winapi_thunks.obj
 0001:00065b20       ??$__crt_fast_decode_pointer@P6AHPEA_WK_J@Z@@YAP6AHPEA_WK_J@ZQ6AH0K1@Z@Z 0000000180066b20 f i libucrtd:winapi_thunks.obj
 0001:00065b60       ??$__crt_fast_decode_pointer@PEAX@@YAPEAXQEAX@Z 0000000180066b60 f i libucrtd:winapi_thunks.obj
 0001:00065ba0       ??$__crt_fast_encode_pointer@P6AHPEA_WK_J@Z@@YAP6AHPEA_WK_J@ZQ6AH0K1@Z@Z 0000000180066ba0 f i libucrtd:winapi_thunks.obj
 0001:00066810       GetCurrentThreadEffectiveToken 0000000180067810 f i libucrtd:winapi_thunks.obj
 0001:00066820       __acrt_AppPolicyGetProcessTerminationMethodInternal 0000000180067820 f   libucrtd:winapi_thunks.obj
 0001:00066870       __acrt_AppPolicyGetShowDeveloperDiagnosticInternal 0000000180067870 f   libucrtd:winapi_thunks.obj
 0001:000668c0       __acrt_AppPolicyGetThreadInitializationTypeInternal 00000001800678c0 f   libucrtd:winapi_thunks.obj
 0001:00066910       __acrt_AppPolicyGetWindowingModelInternal 0000000180067910 f   libucrtd:winapi_thunks.obj
 0001:00066960       __acrt_AreFileApisANSI     0000000180067960 f   libucrtd:winapi_thunks.obj
 0001:000669a0       __acrt_CompareStringEx     00000001800679a0 f   libucrtd:winapi_thunks.obj
 0001:00066a80       __acrt_EnumSystemLocalesEx 0000000180067a80 f   libucrtd:winapi_thunks.obj
 0001:00066b00       __acrt_FlsAlloc            0000000180067b00 f   libucrtd:winapi_thunks.obj
 0001:00066b50       __acrt_FlsFree             0000000180067b50 f   libucrtd:winapi_thunks.obj
 0001:00066ba0       __acrt_FlsGetValue         0000000180067ba0 f   libucrtd:winapi_thunks.obj
 0001:00066bf0       __acrt_FlsSetValue         0000000180067bf0 f   libucrtd:winapi_thunks.obj
 0001:00066c50       __acrt_GetDateFormatEx     0000000180067c50 f   libucrtd:winapi_thunks.obj
 0001:00066d10       __acrt_GetEnabledXStateFeatures 0000000180067d10 f   libucrtd:winapi_thunks.obj
 0001:00066d50       __acrt_GetLocaleInfoEx     0000000180067d50 f   libucrtd:winapi_thunks.obj
 0001:00066dd0       __acrt_GetSystemTimePreciseAsFileTime 0000000180067dd0 f   libucrtd:winapi_thunks.obj
 0001:00066e20       __acrt_GetTimeFormatEx     0000000180067e20 f   libucrtd:winapi_thunks.obj
 0001:00066ed0       __acrt_GetUserDefaultLocaleName 0000000180067ed0 f   libucrtd:winapi_thunks.obj
 0001:00066f30       __acrt_GetXStateFeaturesMask 0000000180067f30 f   libucrtd:winapi_thunks.obj
 0001:00066f80       __acrt_InitializeCriticalSectionEx 0000000180067f80 f   libucrtd:winapi_thunks.obj
 0001:00066fe0       __acrt_IsValidLocaleName   0000000180067fe0 f   libucrtd:winapi_thunks.obj
 0001:00067040       __acrt_LCIDToLocaleName    0000000180068040 f   libucrtd:winapi_thunks.obj
 0001:000670b0       __acrt_LCMapStringEx       00000001800680b0 f   libucrtd:winapi_thunks.obj
 0001:00067190       __acrt_LocaleNameToLCID    0000000180068190 f   libucrtd:winapi_thunks.obj
 0001:000671e0       __acrt_LocateXStateFeature 00000001800681e0 f   libucrtd:winapi_thunks.obj
 0001:00067240       __acrt_MessageBoxA         0000000180068240 f   libucrtd:winapi_thunks.obj
 0001:000672a0       __acrt_MessageBoxW         00000001800682a0 f   libucrtd:winapi_thunks.obj
 0001:00067300       __acrt_RoInitialize        0000000180068300 f   libucrtd:winapi_thunks.obj
 0001:00067340       __acrt_RoUninitialize      0000000180068340 f   libucrtd:winapi_thunks.obj
 0001:00067370       __acrt_RtlGenRandom        0000000180068370 f   libucrtd:winapi_thunks.obj
 0001:000673c0       __acrt_SetThreadStackGuarantee 00000001800683c0 f   libucrtd:winapi_thunks.obj
 0001:00067400       __acrt_can_show_message_box 0000000180068400 f   libucrtd:winapi_thunks.obj
 0001:00067440       __acrt_can_use_vista_locale_apis 0000000180068440 f   libucrtd:winapi_thunks.obj
 0001:00067470       __acrt_can_use_xstate_apis 0000000180068470 f   libucrtd:winapi_thunks.obj
 0001:000674a0       __acrt_eagerly_load_locale_apis 00000001800684a0 f   libucrtd:winapi_thunks.obj
 0001:000674e0       __acrt_get_parent_window   00000001800684e0 f   libucrtd:winapi_thunks.obj
 0001:00067560       __acrt_initialize_winapi_thunks 0000000180068560 f   libucrtd:winapi_thunks.obj
 0001:000675e0       __acrt_is_interactive      00000001800685e0 f   libucrtd:winapi_thunks.obj
 0001:000676c0       __acrt_uninitialize_winapi_thunks 00000001800686c0 f   libucrtd:winapi_thunks.obj
 0001:00067760       __acrt_getheap             0000000180068760 f   libucrtd:heap_handle.obj
 0001:000677c0       __acrt_initialize_heap     00000001800687c0 f   libucrtd:heap_handle.obj
 0001:000677f0       __acrt_uninitialize_heap   00000001800687f0 f   libucrtd:heap_handle.obj
 0001:00067810       _get_heap_handle           0000000180068810 f   libucrtd:heap_handle.obj
 0001:00067c10       __acrt_initialize_lowio    0000000180068c10 f   libucrtd:ioinit.obj
 0001:00067c60       __acrt_uninitialize_lowio  0000000180068c60 f   libucrtd:ioinit.obj
 0001:00067ce0       __acrt_execute_initializers 0000000180068ce0 f   libucrtd:shared_initialization.obj
 0001:00067dd0       __acrt_execute_uninitializers 0000000180068dd0 f   libucrtd:shared_initialization.obj
 0001:00067e50       ??$?B$$A6AH_K@Z@__crt_fast_encoded_nullptr_t@@QEBAP6AH_K@ZXZ 0000000180068e50 f i libucrtd:new_handler.obj
 0001:00067e70       ??$__crt_fast_decode_pointer@P6AH_K@Z@@YAP6AH_K@ZQ6AH0@Z@Z 0000000180068e70 f i libucrtd:new_handler.obj
 0001:00067eb0       ??$__crt_fast_encode_pointer@P6AH_K@Z@@YAP6AH_K@ZQ6AH0@Z@Z 0000000180068eb0 f i libucrtd:new_handler.obj
 0001:00067ef0       ?_set_new_handler@@YAP6AH_K@ZH@Z 0000000180068ef0 f   libucrtd:new_handler.obj
 0001:00067f60       ?initialize@?$dual_state_global@P6AH_K@Z@__crt_state_management@@QEAAXQ6AH_K@Z@Z 0000000180068f60 f i libucrtd:new_handler.obj
 0001:00067fb0       ?value@?$dual_state_global@P6AH_K@Z@__crt_state_management@@QEAAAEAP6AH_K@ZXZ 0000000180068fb0 f i libucrtd:new_handler.obj
 0001:00067fd0       __acrt_initialize_new_handler 0000000180068fd0 f   libucrtd:new_handler.obj
 0001:00067ff0       _callnewh                  0000000180068ff0 f   libucrtd:new_handler.obj
 0001:00068040       _query_new_handler         0000000180069040 f   libucrtd:new_handler.obj
 0001:00068080       _set_new_handler           0000000180069080 f   libucrtd:new_handler.obj
 0001:000680f0       ??$?B$$A6AXH@Z@__crt_fast_encoded_nullptr_t@@QEBAP6AXH@ZXZ 00000001800690f0 f i libucrtd:signal.obj
 0001:000681b0       ??$__crt_fast_decode_pointer@P6AXH@Z@@YAP6AXH@ZQ6AXH@Z@Z 00000001800691b0 f i libucrtd:signal.obj
 0001:000681f0       ??$__crt_fast_encode_pointer@P6AXH@Z@@YAP6AXH@ZQ6AXH@Z@Z 00000001800691f0 f i libucrtd:signal.obj
 0001:00068470       ?initialize@?$dual_state_global@P6AXH@Z@__crt_state_management@@QEAAXQ6AXH@Z@Z 0000000180069470 f i libucrtd:signal.obj
 0001:000685f0       ?value@?$dual_state_global@P6AXH@Z@__crt_state_management@@QEAAAEAP6AXH@ZXZ 00000001800695f0 f i libucrtd:signal.obj
 0001:00068610       __acrt_get_sigabrt_handler 0000000180069610 f   libucrtd:signal.obj
 0001:00068640       __acrt_initialize_signal_handlers 0000000180069640 f   libucrtd:signal.obj
 0001:000686a0       __fpecode                  00000001800696a0 f   libucrtd:signal.obj
 0001:000686c0       __pxcptinfoptrs            00000001800696c0 f   libucrtd:signal.obj
 0001:000686e0       raise                      00000001800696e0 f   libucrtd:signal.obj
 0001:00068ba0       signal                     0000000180069ba0 f   libucrtd:signal.obj
 0001:00068e70       ??$__crt_fast_decode_pointer@P6AHPEAU_exception@@@Z@@YAP6AHPEAU_exception@@@ZQ6AH0@Z@Z 0000000180069e70 f i libucrtd:matherr.obj
 0001:00068eb0       ??$__crt_fast_encode_pointer@P6AHPEAU_exception@@@Z@@YAP6AHPEAU_exception@@@ZQ6AH0@Z@Z 0000000180069eb0 f i libucrtd:matherr.obj
 0001:00068ef0       ?initialize@?$dual_state_global@P6AHPEAU_exception@@@Z@__crt_state_management@@QEAAXQ6AHPEAU_exception@@@Z@Z 0000000180069ef0 f i libucrtd:matherr.obj
 0001:00068f40       ?value@?$dual_state_global@P6AHPEAU_exception@@@Z@__crt_state_management@@QEAAAEAP6AHPEAU_exception@@@ZXZ 0000000180069f40 f i libucrtd:matherr.obj
 0001:00068f60       __acrt_has_user_matherr    0000000180069f60 f   libucrtd:matherr.obj
 0001:00068fa0       __acrt_initialize_user_matherr 0000000180069fa0 f   libucrtd:matherr.obj
 0001:00068fc0       __acrt_invoke_user_matherr 0000000180069fc0 f   libucrtd:matherr.obj
 0001:00069010       __setusermatherr           000000018006a010 f   libucrtd:matherr.obj
 0001:00069050       __p___mb_cur_max           000000018006a050 f   libucrtd:nlsdata.obj
 0001:00069090       ?has_any_buffer@__crt_stdio_stream@@QEBA_NXZ 000000018006a090 f i libucrtd:_sftbuf.obj
 0001:000690b0       ?has_any_of@__crt_stdio_stream@@QEBA_NJ@Z 000000018006a0b0 f i libucrtd:_sftbuf.obj
 0001:000690f0       ?has_temporary_buffer@__crt_stdio_stream@@QEBA_NXZ 000000018006a0f0 f i libucrtd:_sftbuf.obj
 0001:00069110       ?set_flags@__crt_stdio_stream@@QEBA_NJ@Z 000000018006a110 f i libucrtd:_sftbuf.obj
 0001:00069180       ?unset_flags@__crt_stdio_stream@@QEBA_NJ@Z 000000018006a180 f i libucrtd:_sftbuf.obj
 0001:000691e0       __acrt_should_use_temporary_buffer 000000018006a1e0 f   libucrtd:_sftbuf.obj
 0001:00069230       __acrt_stdio_begin_temporary_buffering_nolock 000000018006a230 f   libucrtd:_sftbuf.obj
 0001:00069470       __acrt_stdio_end_temporary_buffering_nolock 000000018006a470 f   libucrtd:_sftbuf.obj
 0001:00069510       _chvalidator               000000018006a510 f   libucrtd:isctype.obj
 0001:00069580       _chvalidator_l             000000018006a580 f   libucrtd:isctype.obj
 0001:00069630       _isctype                   000000018006a630 f   libucrtd:isctype.obj
 0001:00069680       _isctype_l                 000000018006a680 f   libucrtd:isctype.obj
 0001:000698b0       _isleadbyte_fast_internal  000000018006a8b0 f i libucrtd:isctype.obj
 0001:000698f0       _free_base                 000000018006a8f0 f   libucrtd:free_base.obj
 0001:00069950       _realloc_base              000000018006a950 f   libucrtd:realloc_base.obj
 0001:00069a70       _expand                    000000018006aa70 f   libucrtd:expand.obj
 0001:00069ab0       _expand_base               000000018006aab0 f   libucrtd:expand.obj
 0001:00069c40       __acrt_update_locale_info  000000018006ac40 f   libucrtd:locale_update.obj
 0001:00069c90       __acrt_update_multibyte_info 000000018006ac90 f   libucrtd:locale_update.obj
 0001:00069ce0       ?value@?$dual_state_global@J@__crt_state_management@@QEAAAEAJXZ 000000018006ace0 f i libucrtd:new_mode.obj
 0001:00069d00       _query_new_mode            000000018006ad00 f   libucrtd:new_mode.obj
 0001:00069d20       _set_new_mode              000000018006ad20 f   libucrtd:new_mode.obj
 0001:00069df0       _CrtDefaultAllocHook       000000018006adf0 f   libucrtd:debug_heap_hook.obj
 0001:00069e20       ??$?RU__crt_locale_data@@@__crt_internal_free_policy@@QEBAXQEBU__crt_locale_data@@@Z 000000018006ae20 f i libucrtd:wsetlocale.obj
 0001:00069e50       ??$?RU__crt_locale_pointers@@@__crt_internal_free_policy@@QEBAXQEBU__crt_locale_pointers@@@Z 000000018006ae50 f i libucrtd:wsetlocale.obj
 0001:0006a3b0       ??0?$__crt_unique_heap_ptr@U__crt_locale_data@@U__crt_internal_free_policy@@@@QEAA@QEAU__crt_locale_data@@@Z 000000018006b3b0 f i libucrtd:wsetlocale.obj
 0001:0006a3d0       ??0?$__crt_unique_heap_ptr@U__crt_locale_pointers@@U__crt_internal_free_policy@@@@QEAA@QEAU__crt_locale_pointers@@@Z 000000018006b3d0 f i libucrtd:wsetlocale.obj
 0001:0006a3f0       ??0_expandlocale_locale_name_cache@@QEAA@QEA_W_KQEAU__crt_qualified_locale_data@@@Z 000000018006b3f0 f i libucrtd:wsetlocale.obj
 0001:0006a4a0       ??1?$__crt_unique_heap_ptr@U__crt_locale_data@@U__crt_internal_free_policy@@@@QEAA@XZ 000000018006b4a0 f i libucrtd:wsetlocale.obj
 0001:0006a4c0       ??1?$__crt_unique_heap_ptr@U__crt_locale_pointers@@U__crt_internal_free_policy@@@@QEAA@XZ 000000018006b4c0 f i libucrtd:wsetlocale.obj
 0001:0006a4e0       ??1_expandlocale_locale_name_cache@@QEAA@XZ 000000018006b4e0 f i libucrtd:wsetlocale.obj
 0001:0006a560       ??B?$__crt_unique_heap_ptr@U__crt_locale_data@@U__crt_internal_free_policy@@@@QEBA_NXZ 000000018006b560 f i libucrtd:wsetlocale.obj
 0001:0006a580       ??B?$__crt_unique_heap_ptr@U__crt_locale_pointers@@U__crt_internal_free_policy@@@@QEBA_NXZ 000000018006b580 f i libucrtd:wsetlocale.obj
 0001:0006aa30       ?commit_locale_name@_expandlocale_locale_name_cache@@QEAAXQEB_W_K@Z 000000018006ba30 f i libucrtd:wsetlocale.obj
 0001:0006aab0       ?commit_locale_name_cache_already_updated@_expandlocale_locale_name_cache@@QEAAXQEB_W_K@Z 000000018006bab0 f i libucrtd:wsetlocale.obj
 0001:0006ab20       ?detach@?$__crt_unique_heap_ptr@U__crt_locale_data@@U__crt_internal_free_policy@@@@QEAAPEAU__crt_locale_data@@XZ 000000018006bb20 f i libucrtd:wsetlocale.obj
 0001:0006ab50       ?detach@?$__crt_unique_heap_ptr@U__crt_locale_pointers@@U__crt_internal_free_policy@@@@QEAAPEAU__crt_locale_pointers@@XZ 000000018006bb50 f i libucrtd:wsetlocale.obj
 0001:0006ab80       ?get@?$__crt_unique_heap_ptr@U__crt_locale_data@@U__crt_internal_free_policy@@@@QEBAPEAU__crt_locale_data@@XZ 000000018006bb80 f i libucrtd:wsetlocale.obj
 0001:0006ab90       ?get@?$__crt_unique_heap_ptr@U__crt_locale_pointers@@U__crt_internal_free_policy@@@@QEBAPEAU__crt_locale_pointers@@XZ 000000018006bb90 f i libucrtd:wsetlocale.obj
 0001:0006aba0       ?is_valid@?$__crt_unique_heap_ptr@U__crt_locale_data@@U__crt_internal_free_policy@@@@QEBA_NXZ 000000018006bba0 f i libucrtd:wsetlocale.obj
 0001:0006abd0       ?is_valid@?$__crt_unique_heap_ptr@U__crt_locale_pointers@@U__crt_internal_free_policy@@@@QEBA_NXZ 000000018006bbd0 f i libucrtd:wsetlocale.obj
 0001:0006ac00       ?release@?$__crt_unique_heap_ptr@U__crt_locale_data@@U__crt_internal_free_policy@@@@QEAAXXZ 000000018006bc00 f i libucrtd:wsetlocale.obj
 0001:0006ac30       ?release@?$__crt_unique_heap_ptr@U__crt_locale_pointers@@U__crt_internal_free_policy@@@@QEAAXXZ 000000018006bc30 f i libucrtd:wsetlocale.obj
 0001:0006ac60       __acrt_copy_locale_name    000000018006bc60 f   libucrtd:wsetlocale.obj
 0001:0006ad30       __acrt_set_locale_changed  000000018006bd30 f   libucrtd:wsetlocale.obj
 0001:0006ad40       __acrt_uninitialize_locale 000000018006bd40 f   libucrtd:wsetlocale.obj
 0001:0006ad70       __ascii_tolower            000000018006bd70 f i libucrtd:wsetlocale.obj
 0001:0006ad90       __ascii_towlower           000000018006bd90 f i libucrtd:wsetlocale.obj
 0001:0006adb0       __lc_lctowcs               000000018006bdb0 f   libucrtd:wsetlocale.obj
 0001:0006aea0       __lc_wcstolc               000000018006bea0 f   libucrtd:wsetlocale.obj
 0001:0006b160       _configthreadlocale        000000018006c160 f   libucrtd:wsetlocale.obj
 0001:0006b320       _create_locale             000000018006c320 f   libucrtd:wsetlocale.obj
 0001:0006ba20       _free_locale               000000018006ca20 f   libucrtd:wsetlocale.obj
 0001:0006bb10       _get_current_locale        000000018006cb10 f   libucrtd:wsetlocale.obj
 0001:0006bc20       _wcreate_locale            000000018006cc20 f   libucrtd:wsetlocale.obj
 0001:0006bf10       _wcscats                   000000018006cf10 f   libucrtd:wsetlocale.obj
 0001:0006bff0       _wsetlocale                000000018006cff0 f   libucrtd:wsetlocale.obj
 0001:0006dc00       _CrtGetDebugFillThreshold  000000018006ec00 f   libucrtd:debug_fill_threshold.obj
 0001:0006dc10       _CrtSetDebugFillThreshold  000000018006ec10 f   libucrtd:debug_fill_threshold.obj
 0001:0006de10       __acrt_report_runtime_error 000000018006ee10 f   libucrtd:report_runtime_error.obj
 0001:0006e090       _query_app_type            000000018006f090 f   libucrtd:report_runtime_error.obj
 0001:0006e0a0       _set_app_type              000000018006f0a0 f   libucrtd:report_runtime_error.obj
 0001:0006e0b0       ??$make_c_string_character_source@DPEAPEAD@__crt_strtox@@YA?AV?$c_string_character_source@D@0@QEBDQEAPEAD@Z 000000018006f0b0 f i libucrtd:strtox.obj
 0001:0006e0f0       ??$make_c_string_character_source@_WPEAPEA_W@__crt_strtox@@YA?AV?$c_string_character_source@_W@0@QEB_WQEAPEA_W@Z 000000018006f0f0 f i libucrtd:strtox.obj
 0001:0006e130       ??$parse_integer_from_string@JDPEAPEAD@__crt_strtox@@YAJQEBDQEAPEADHQEAU__crt_locale_pointers@@@Z 000000018006f130 f i libucrtd:strtox.obj
 0001:0006e180       ??$parse_integer_from_string@J_WPEAPEA_W@__crt_strtox@@YAJQEB_WQEAPEA_WHQEAU__crt_locale_pointers@@@Z 000000018006f180 f i libucrtd:strtox.obj
 0001:0006e1d0       ??$parse_integer_from_string@KDPEAPEAD@__crt_strtox@@YAKQEBDQEAPEADHQEAU__crt_locale_pointers@@@Z 000000018006f1d0 f i libucrtd:strtox.obj
 0001:0006e220       ??$parse_integer_from_string@K_WPEAPEA_W@__crt_strtox@@YAKQEB_WQEAPEA_WHQEAU__crt_locale_pointers@@@Z 000000018006f220 f i libucrtd:strtox.obj
 0001:0006e270       ??$parse_integer_from_string@_JDPEAPEAD@__crt_strtox@@YA_JQEBDQEAPEADHQEAU__crt_locale_pointers@@@Z 000000018006f270 f i libucrtd:strtox.obj
 0001:0006e2c0       ??$parse_integer_from_string@_J_WPEAPEA_W@__crt_strtox@@YA_JQEB_WQEAPEA_WHQEAU__crt_locale_pointers@@@Z 000000018006f2c0 f i libucrtd:strtox.obj
 0001:0006e310       ??$parse_integer_from_string@_KDPEAPEAD@__crt_strtox@@YA_KQEBDQEAPEADHQEAU__crt_locale_pointers@@@Z 000000018006f310 f i libucrtd:strtox.obj
 0001:0006e360       ??$parse_integer_from_string@_K_WPEAPEA_W@__crt_strtox@@YA_KQEB_WQEAPEA_WHQEAU__crt_locale_pointers@@@Z 000000018006f360 f i libucrtd:strtox.obj
 0001:0006e3b0       _strtoi64                  000000018006f3b0 f   libucrtd:strtox.obj
 0001:0006e3e0       _strtoi64_l                000000018006f3e0 f   libucrtd:strtox.obj
 0001:0006e420       _strtoimax_l               000000018006f420 f   libucrtd:strtox.obj
 0001:0006e460       _strtol_l                  000000018006f460 f   libucrtd:strtox.obj
 0001:0006e4a0       _strtoll_l                 000000018006f4a0 f   libucrtd:strtox.obj
 0001:0006e4e0       _strtoui64                 000000018006f4e0 f   libucrtd:strtox.obj
 0001:0006e510       _strtoui64_l               000000018006f510 f   libucrtd:strtox.obj
 0001:0006e550       _strtoul_l                 000000018006f550 f   libucrtd:strtox.obj
 0001:0006e590       _strtoull_l                000000018006f590 f   libucrtd:strtox.obj
 0001:0006e5d0       _strtoumax_l               000000018006f5d0 f   libucrtd:strtox.obj
 0001:0006e610       _wcstoi64                  000000018006f610 f   libucrtd:strtox.obj
 0001:0006e640       _wcstoi64_l                000000018006f640 f   libucrtd:strtox.obj
 0001:0006e680       _wcstoimax_l               000000018006f680 f   libucrtd:strtox.obj
 0001:0006e6c0       _wcstol_l                  000000018006f6c0 f   libucrtd:strtox.obj
 0001:0006e700       _wcstoll_l                 000000018006f700 f   libucrtd:strtox.obj
 0001:0006e740       _wcstoui64                 000000018006f740 f   libucrtd:strtox.obj
 0001:0006e770       _wcstoui64_l               000000018006f770 f   libucrtd:strtox.obj
 0001:0006e7b0       _wcstoul_l                 000000018006f7b0 f   libucrtd:strtox.obj
 0001:0006e7f0       _wcstoull_l                000000018006f7f0 f   libucrtd:strtox.obj
 0001:0006e830       _wcstoumax_l               000000018006f830 f   libucrtd:strtox.obj
 0001:0006e870       strtoimax                  000000018006f870 f   libucrtd:strtox.obj
 0001:0006e8a0       strtol                     000000018006f8a0 f   libucrtd:strtox.obj
 0001:0006e8d0       strtoll                    000000018006f8d0 f   libucrtd:strtox.obj
 0001:0006e900       strtoul                    000000018006f900 f   libucrtd:strtox.obj
 0001:0006e930       strtoull                   000000018006f930 f   libucrtd:strtox.obj
 0001:0006e960       strtoumax                  000000018006f960 f   libucrtd:strtox.obj
 0001:0006e990       wcstoimax                  000000018006f990 f   libucrtd:strtox.obj
 0001:0006e9c0       wcstol                     000000018006f9c0 f   libucrtd:strtox.obj
 0001:0006e9f0       wcstoll                    000000018006f9f0 f   libucrtd:strtox.obj
 0001:0006ea20       wcstoul                    000000018006fa20 f   libucrtd:strtox.obj
 0001:0006ea50       wcstoull                   000000018006fa50 f   libucrtd:strtox.obj
 0001:0006ea80       wcstoumax                  000000018006fa80 f   libucrtd:strtox.obj
 0001:0006eab0       _mbtowc_l                  000000018006fab0 f   libucrtd:mbtowc.obj
 0001:0006ef10       mbtowc                     000000018006ff10 f   libucrtd:mbtowc.obj
 0001:0006ef40       _wctomb_l                  000000018006ff40 f   libucrtd:wctomb.obj
 0001:0006f000       _wctomb_s_l                0000000180070000 f   libucrtd:wctomb.obj
 0001:0006f580       wctomb                     0000000180070580 f   libucrtd:wctomb.obj
 0001:0006f5e0       wctomb_s                   00000001800705e0 f   libucrtd:wctomb.obj
 0001:00070990       ??1?$__crt_simd_cleanup_guard@$00@@QEAA@XZ 0000000180071990 f i libucrtd:strnlen.obj
 0001:000709a0       ??1?$__crt_simd_cleanup_guard@$0A@@@QEAA@XZ 00000001800719a0 f i libucrtd:strnlen.obj
 0001:000709b0       ?compare_equals@?$__crt_simd_traits@$00E@@SA?AT__m256i@@T2@0@Z 00000001800719b0 f i libucrtd:strnlen.obj
 0001:000709f0       ?compare_equals@?$__crt_simd_traits@$00G@@SA?AT__m256i@@T2@0@Z 00000001800719f0 f i libucrtd:strnlen.obj
 0001:00070a30       ?compare_equals@?$__crt_simd_traits@$0A@E@@SA?AT__m128i@@T2@0@Z 0000000180071a30 f i libucrtd:strnlen.obj
 0001:00070a60       ?compare_equals@?$__crt_simd_traits@$0A@G@@SA?AT__m128i@@T2@0@Z 0000000180071a60 f i libucrtd:strnlen.obj
 0001:00070a90       ?compute_byte_mask@?$__crt_simd_pack_traits@$00@@SAHT__m256i@@@Z 0000000180071a90 f i libucrtd:strnlen.obj
 0001:00070ab0       ?compute_byte_mask@?$__crt_simd_pack_traits@$0A@@@SAHT__m128i@@@Z 0000000180071ab0 f i libucrtd:strnlen.obj
 0001:00070ad0       ?get_zero_pack@?$__crt_simd_pack_traits@$00@@SA?AT__m256i@@XZ 0000000180071ad0 f i libucrtd:strnlen.obj
 0001:00070b00       ?get_zero_pack@?$__crt_simd_pack_traits@$0A@@@SA?AT__m128i@@XZ 0000000180071b00 f i libucrtd:strnlen.obj
 0001:00070b20       strnlen                    0000000180071b20 f   libucrtd:strnlen.obj
 0001:00070b50       wcslen                     0000000180071b50 f   libucrtd:strnlen.obj
 0001:00070b70       wcsnlen                    0000000180071b70 f   libucrtd:strnlen.obj
 0001:00070ba0       ?__acrt_fp_classify@@YA?AW4__acrt_fp_class@@AEBN@Z 0000000180071ba0 f i libucrtd:cvt.obj
 0001:00070ca0       ?__acrt_fp_is_negative@@YA_NAEBN@Z 0000000180071ca0 f i libucrtd:cvt.obj
 0001:00072670       ?strrchr@@YAPEADQEADH@Z    0000000180073670 f i libucrtd:cvt.obj
 0001:00072690       __acrt_fp_format           0000000180073690 f   libucrtd:cvt.obj
 0001:00072d40       _fputwc_nolock             0000000180073d40 f   libucrtd:fputwc.obj
 0001:00072fb0       _fputwchar                 0000000180073fb0 f   libucrtd:fputwc.obj
 0001:00072fe0       _putwc_nolock              0000000180073fe0 f   libucrtd:fputwc.obj
 0001:00073010       fputwc                     0000000180074010 f   libucrtd:fputwc.obj
 0001:00073100       putwc                      0000000180074100 f   libucrtd:fputwc.obj
 0001:00073130       putwchar                   0000000180074130 f   libucrtd:fputwc.obj
 0001:00073150       ?lowio_handle@__crt_stdio_stream@@QEBAHXZ 0000000180074150 f i libucrtd:fileno.obj
 0001:00073180       _fileno                    0000000180074180 f   libucrtd:fileno.obj
 0001:00073260       ??$?RPEAU__crt_stdio_stream_data@@@__crt_internal_free_policy@@QEBAXQEBQEAU__crt_stdio_stream_data@@@Z 0000000180074260 f i libucrtd:_file.obj
 0001:00073290       ??0?$__crt_unique_heap_ptr@PEAU__crt_stdio_stream_data@@U__crt_internal_free_policy@@@@QEAA@QEAPEAU__crt_stdio_stream_data@@@Z 0000000180074290 f i libucrtd:_file.obj
 0001:000732b0       ??1?$__crt_unique_heap_ptr@PEAU__crt_stdio_stream_data@@U__crt_internal_free_policy@@@@QEAA@XZ 00000001800742b0 f i libucrtd:_file.obj
 0001:000732d0       ?detach@?$__crt_unique_heap_ptr@PEAU__crt_stdio_stream_data@@U__crt_internal_free_policy@@@@QEAAPEAPEAU__crt_stdio_stream_data@@XZ 00000001800742d0 f i libucrtd:_file.obj
 0001:00073300       ?release@?$__crt_unique_heap_ptr@PEAU__crt_stdio_stream_data@@U__crt_internal_free_policy@@@@QEAAXXZ 0000000180074300 f i libucrtd:_file.obj
 0001:00073330       __acrt_initialize_stdio    0000000180074330 f   libucrtd:_file.obj
 0001:00073520       __acrt_iob_func            0000000180074520 f   libucrtd:_file.obj
 0001:00073540       __acrt_uninitialize_stdio  0000000180074540 f   libucrtd:_file.obj
 0001:000735d0       _get_stream_buffer_pointers 00000001800745d0 f   libucrtd:_file.obj
 0001:00073700       _lock_file                 0000000180074700 f   libucrtd:_file.obj
 0001:00073740       _unlock_file               0000000180074740 f   libucrtd:_file.obj
 0001:00073780       _fputc_nolock              0000000180074780 f   libucrtd:fputc.obj
 0001:00073830       _fputchar                  0000000180074830 f   libucrtd:fputc.obj
 0001:00073860       _putc_nolock               0000000180074860 f   libucrtd:fputc.obj
 0001:00073880       fputc                      0000000180074880 f   libucrtd:fputc.obj
 0001:00073b20       putc                       0000000180074b20 f   libucrtd:fputc.obj
 0001:00073b40       putchar                    0000000180074b40 f   libucrtd:fputc.obj
 0001:00073b60       _get_printf_count_output   0000000180074b60 f   libucrtd:printf_count_output.obj
 0001:00073b90       _set_printf_count_output   0000000180074b90 f   libucrtd:printf_count_output.obj
 0001:00073c00       _CrtGetReportHook          0000000180074c00 f   libucrtd:dbgrptt.obj
 0001:00073c10       _CrtSetReportFile          0000000180074c10 f   libucrtd:dbgrptt.obj
 0001:00073d70       _CrtSetReportHook          0000000180074d70 f   libucrtd:dbgrptt.obj
 0001:00073da0       _CrtSetReportMode          0000000180074da0 f   libucrtd:dbgrptt.obj
 0001:00073f50       _VCrtDbgReportA            0000000180074f50 f   libucrtd:dbgrptt.obj
 0001:00074930       _VCrtDbgReportW            0000000180075930 f   libucrtd:dbgrptt.obj
 0001:000754b0       _snprintf_s                00000001800764b0 f i libucrtd:dbgrptt.obj
 0001:00075520       _vsnprintf_s               0000000180076520 f i libucrtd:dbgrptt.obj
 0001:00075570       _vsnprintf_s_l             0000000180076570 f i libucrtd:dbgrptt.obj
 0001:00075870       ??$message_box@$$TAEBQEBDAEBQEBDK@?$__crt_char_traits@D@@SAH$$QEA$$TAEBQEBD1$$QEAK@Z 0000000180076870 f i libucrtd:crtmbox.obj
 0001:000758c0       ??$message_box@$$TAEBQEB_WAEBQEB_WK@?$__crt_char_traits@_W@@SAH$$QEA$$TAEBQEB_W1$$QEAK@Z 00000001800768c0 f i libucrtd:crtmbox.obj
 0001:00075910       ??$message_box@PEAUHWND__@@AEBQEBDAEBQEBDAEBI@?$__crt_char_traits@D@@SAH$$QEAPEAUHWND__@@AEBQEBD1AEBI@Z 0000000180076910 f i libucrtd:crtmbox.obj
 0001:00075960       ??$message_box@PEAUHWND__@@AEBQEB_WAEBQEB_WAEBI@?$__crt_char_traits@_W@@SAH$$QEAPEAUHWND__@@AEBQEB_W1AEBI@Z 0000000180076960 f i libucrtd:crtmbox.obj
 0001:000759b0       ??$output_debug_string@AEBQEBD@?$__crt_char_traits@D@@SAXAEBQEBD@Z 00000001800769b0 f i libucrtd:crtmbox.obj
 0001:000759d0       ??$output_debug_string@AEBQEB_W@?$__crt_char_traits@_W@@SAXAEBQEB_W@Z 00000001800769d0 f i libucrtd:crtmbox.obj
 0001:000759f0       __acrt_show_narrow_message_box 00000001800769f0 f   libucrtd:crtmbox.obj
 0001:00075a20       __acrt_show_wide_message_box 0000000180076a20 f   libucrtd:crtmbox.obj
 0001:00075a50       _iswctype_l                0000000180076a50 f   libucrtd:iswctype.obj
 0001:00075a80       iswctype                   0000000180076a80 f   libucrtd:iswctype.obj
 0001:00075b10       _errcode                   0000000180076b10 f   libucrtd:fpexcept.obj
 0001:00075b90       _except1                   0000000180076b90 f   libucrtd:fpexcept.obj
 0001:00075cd0       _except2                   0000000180076cd0 f   libucrtd:fpexcept.obj
 0001:00075e90       _handle_exc                0000000180076e90 f   libucrtd:fpexcept.obj
 0001:000762f0       _handle_qnan2              00000001800772f0 f   libucrtd:fpexcept.obj
 0001:00076320       _raise_exc                 0000000180077320 f   libucrtd:fpexcept.obj
 0001:00076380       _raise_exc_ex              0000000180077380 f   libucrtd:fpexcept.obj
 0001:00076a00       _raise_excf                0000000180077a00 f   libucrtd:fpexcept.obj
 0001:00076a60       _set_errno_from_matherr    0000000180077a60 f   libucrtd:fpexcept.obj
 0001:00076ab0       _umatherr                  0000000180077ab0 f   libucrtd:fpexcept.obj
 0001:00076b80       _clrfp                     0000000180077b80 f   libucrtd:fpctrl.obj
 0001:00076bb0       _ctrlfp                    0000000180077bb0 f   libucrtd:fpctrl.obj
 0001:00076c60       _set_statfp                0000000180077c60 f   libucrtd:fpctrl.obj
 0001:00076ca0       _statfp                    0000000180077ca0 f   libucrtd:fpctrl.obj
 0001:00076cd0       __acrt_add_locale_ref      0000000180077cd0 f   libucrtd:locale_refcounting.obj
 0001:00076e30       __acrt_free_locale         0000000180077e30 f   libucrtd:locale_refcounting.obj
 0001:000771b0       __acrt_locale_add_lc_time_reference 00000001800781b0 f   libucrtd:locale_refcounting.obj
 0001:000771f0       __acrt_locale_free_lc_time_if_unreferenced 00000001800781f0 f   libucrtd:locale_refcounting.obj
 0001:00077250       __acrt_locale_release_lc_time_reference 0000000180078250 f   libucrtd:locale_refcounting.obj
 0001:00077290       __acrt_release_locale_ref  0000000180078290 f   libucrtd:locale_refcounting.obj
 0001:00077400       __acrt_update_thread_locale_data 0000000180078400 f   libucrtd:locale_refcounting.obj
 0001:000774a0       _updatetlocinfoEx_nolock   00000001800784a0 f   libucrtd:locale_refcounting.obj
 0001:000776b0       qsort                      00000001800786b0 f   libucrtd:qsort.obj
 0001:00078460       wcsncpy_s                  0000000180079460 f   libucrtd:wcsncpy_s.obj
 0001:000784a0       wcspbrk                    00000001800794a0 f   libucrtd:wcspbrk.obj
 0001:00078ba0       strncpy_s                  0000000180079ba0 f   libucrtd:strncpy_s.obj
 0001:00078d10       strpbrk                    0000000180079d10 f   libucrtd:strpbrk.obj
 0001:00079600       _mbsdec                    000000018007a600 f   libucrtd:mbsdec.obj
 0001:00079608       _mbsdec_l                  000000018007a608 f   libucrtd:mbsdec.obj
 0001:00079700       ??0?$__crt_scoped_stack_ptr@_W@@QEAA@U?$__crt_scoped_stack_ptr_tag@_W@@@Z 000000018007a700 f i libucrtd:getstringtypea.obj
 0001:00079720       ??0?$__crt_scoped_stack_ptr_tag@_W@@QEAA@QEA_W@Z 000000018007a720 f i libucrtd:getstringtypea.obj
 0001:00079740       ??1?$__crt_scoped_stack_ptr@_W@@QEAA@XZ 000000018007a740 f i libucrtd:getstringtypea.obj
 0001:00079760       ?get@?$__crt_scoped_stack_ptr@_W@@QEBAPEA_WXZ 000000018007a760 f i libucrtd:getstringtypea.obj
 0001:00079770       _MallocaComputeSize        000000018007a770 f i libucrtd:getstringtypea.obj
 0001:000797b0       _MarkAllocaS               000000018007a7b0 f i libucrtd:getstringtypea.obj
 0001:000797e0       __acrt_GetStringTypeA      000000018007a7e0 f   libucrtd:getstringtypea.obj
 0001:00079a40       _freea_crt                 000000018007aa40 f i libucrtd:getstringtypea.obj
 0001:00079ae0       ??B?$__crt_scoped_stack_ptr@_W@@QEBA_NXZ 000000018007aae0 f i libucrtd:lcmapstringa.obj
 0001:0007a100       __acrt_LCMapStringA        000000018007b100 f   libucrtd:lcmapstringa.obj
 0001:0007a1e0       _wcsnicoll                 000000018007b1e0 f   libucrtd:wcsnicol.obj
 0001:0007a430       _wcsnicoll_l               000000018007b430 f   libucrtd:wcsnicol.obj
 0001:0007a770       _strnicoll                 000000018007b770 f   libucrtd:strnicol.obj
 0001:0007a7d0       _strnicoll_l               000000018007b7d0 f   libucrtd:strnicol.obj
 0001:0007ada0       __acrt_SetEnvironmentVariableA 000000018007bda0 f   libucrtd:setenvironmentvariablea.obj
 0001:0007aff0       __acrt_DownlevelLCIDToLocaleName 000000018007bff0 f   libucrtd:lcidtoname_downlevel.obj
 0001:0007b0f0       __acrt_DownlevelLocaleNameToLCID 000000018007c0f0 f   libucrtd:lcidtoname_downlevel.obj
 0001:0007b150       ??$?RU__crt_lowio_handle_data@@@__crt_internal_free_policy@@QEBAXQEBU__crt_lowio_handle_data@@@Z 000000018007c150 f i libucrtd:osfinfo.obj
 0001:0007b180       ??0?$__crt_unique_heap_ptr@U__crt_lowio_handle_data@@U__crt_internal_free_policy@@@@QEAA@QEAU__crt_lowio_handle_data@@@Z 000000018007c180 f i libucrtd:osfinfo.obj
 0001:0007b1a0       ??1?$__crt_unique_heap_ptr@U__crt_lowio_handle_data@@U__crt_internal_free_policy@@@@QEAA@XZ 000000018007c1a0 f i libucrtd:osfinfo.obj
 0001:0007b1c0       ??B?$__crt_unique_heap_ptr@U__crt_lowio_handle_data@@U__crt_internal_free_policy@@@@QEBA_NXZ 000000018007c1c0 f i libucrtd:osfinfo.obj
 0001:0007b1e0       ?detach@?$__crt_unique_heap_ptr@U__crt_lowio_handle_data@@U__crt_internal_free_policy@@@@QEAAPEAU__crt_lowio_handle_data@@XZ 000000018007c1e0 f i libucrtd:osfinfo.obj
 0001:0007b210       ?get@?$__crt_unique_heap_ptr@U__crt_lowio_handle_data@@U__crt_internal_free_policy@@@@QEBAPEAU__crt_lowio_handle_data@@XZ 000000018007c210 f i libucrtd:osfinfo.obj
 0001:0007b220       ?is_valid@?$__crt_unique_heap_ptr@U__crt_lowio_handle_data@@U__crt_internal_free_policy@@@@QEBA_NXZ 000000018007c220 f i libucrtd:osfinfo.obj
 0001:0007b250       ?release@?$__crt_unique_heap_ptr@U__crt_lowio_handle_data@@U__crt_internal_free_policy@@@@QEAAXXZ 000000018007c250 f i libucrtd:osfinfo.obj
 0001:0007b280       __acrt_lowio_create_handle_array 000000018007c280 f   libucrtd:osfinfo.obj
 0001:0007b440       __acrt_lowio_destroy_handle_array 000000018007c440 f   libucrtd:osfinfo.obj
 0001:0007b4c0       __acrt_lowio_ensure_fh_exists 000000018007c4c0 f   libucrtd:osfinfo.obj
 0001:0007b620       __acrt_lowio_lock_fh       000000018007c620 f   libucrtd:osfinfo.obj
 0001:0007b660       __acrt_lowio_set_os_handle 000000018007c660 f   libucrtd:osfinfo.obj
 0001:0007b770       __acrt_lowio_unlock_fh     000000018007c770 f   libucrtd:osfinfo.obj
 0001:0007b7b0       _alloc_osfhnd              000000018007c7b0 f   libucrtd:osfinfo.obj
 0001:0007b9c0       _free_osfhnd               000000018007c9c0 f   libucrtd:osfinfo.obj
 0001:0007baf0       _get_osfhandle             000000018007caf0 f   libucrtd:osfinfo.obj
 0001:0007bcf0       _open_osfhandle            000000018007ccf0 f   libucrtd:osfinfo.obj
 0001:0007bf10       localeconv                 000000018007cf10 f   libucrtd:localeconv.obj
 0001:0007bf50       __pctype_func              000000018007cf50 f   libucrtd:ctype.obj
 0001:0007bf90       __pwctype_func             000000018007cf90 f   libucrtd:ctype.obj
 0001:0007bfa0       _isatty                    000000018007cfa0 f   libucrtd:isatty.obj
 0001:0007c400       ??0__crt_stdio_stream@@QEAA@QEAU__crt_stdio_stream_data@@@Z 000000018007d400 f i libucrtd:fflush.obj
 0001:0007c6a0       ?__acrt_stdio_reset_buffer@@YAXV__crt_stdio_stream@@@Z 000000018007d6a0 f i libucrtd:fflush.obj
 0001:0007c7d0       ?has_all_of@__crt_stdio_stream@@QEBA_NJ@Z 000000018007d7d0 f i libucrtd:fflush.obj
 0001:0007c8b0       __acrt_stdio_flush_nolock  000000018007d8b0 f   libucrtd:fflush.obj
 0001:0007c9c0       _fflush_nolock             000000018007d9c0 f   libucrtd:fflush.obj
 0001:0007ca50       _flushall                  000000018007da50 f   libucrtd:fflush.obj
 0001:0007ca60       fflush                     000000018007da60 f   libucrtd:fflush.obj
 0001:0007caf0       _malloc_base               000000018007daf0 f   libucrtd:malloc_base.obj
 0001:0007cb90       ??$?RG@__crt_internal_free_policy@@QEBAXQEBG@Z 000000018007db90 f i libucrtd:initctype.obj
 0001:0007cbc0       ??$?RJ@__crt_internal_free_policy@@QEBAXQEBJ@Z 000000018007dbc0 f i libucrtd:initctype.obj
 0001:0007cbf0       ??0?$__crt_unique_heap_ptr@GU__crt_internal_free_policy@@@@QEAA@QEAG@Z 000000018007dbf0 f i libucrtd:initctype.obj
 0001:0007cc10       ??0?$__crt_unique_heap_ptr@JU__crt_internal_free_policy@@@@QEAA@QEAJ@Z 000000018007dc10 f i libucrtd:initctype.obj
 0001:0007cc30       ??1?$__crt_unique_heap_ptr@GU__crt_internal_free_policy@@@@QEAA@XZ 000000018007dc30 f i libucrtd:initctype.obj
 0001:0007cc50       ??1?$__crt_unique_heap_ptr@JU__crt_internal_free_policy@@@@QEAA@XZ 000000018007dc50 f i libucrtd:initctype.obj
 0001:0007cc70       ?detach@?$__crt_unique_heap_ptr@GU__crt_internal_free_policy@@@@QEAAPEAGXZ 000000018007dc70 f i libucrtd:initctype.obj
 0001:0007cca0       ?detach@?$__crt_unique_heap_ptr@JU__crt_internal_free_policy@@@@QEAAPEAJXZ 000000018007dca0 f i libucrtd:initctype.obj
 0001:0007ccd0       ?release@?$__crt_unique_heap_ptr@GU__crt_internal_free_policy@@@@QEAAXXZ 000000018007dcd0 f i libucrtd:initctype.obj
 0001:0007cd00       ?release@?$__crt_unique_heap_ptr@JU__crt_internal_free_policy@@@@QEAAXXZ 000000018007dd00 f i libucrtd:initctype.obj
 0001:0007cd30       ___lc_codepage_func        000000018007dd30 f   libucrtd:initctype.obj
 0001:0007cd70       ___lc_collate_cp_func      000000018007dd70 f   libucrtd:initctype.obj
 0001:0007cdb0       ___lc_locale_name_func     000000018007ddb0 f   libucrtd:initctype.obj
 0001:0007cdf0       ___mb_cur_max_func         000000018007ddf0 f   libucrtd:initctype.obj
 0001:0007ce30       ___mb_cur_max_l_func       000000018007de30 f   libucrtd:initctype.obj
 0001:0007ce70       __acrt_locale_initialize_ctype 000000018007de70 f   libucrtd:initctype.obj
 0001:0007d920       ??$?RUlconv@@@__crt_internal_free_policy@@QEBAXQEBUlconv@@@Z 000000018007e920 f i libucrtd:initmon.obj
 0001:0007d950       ??0?$__crt_unique_heap_ptr@Ulconv@@U__crt_internal_free_policy@@@@QEAA@QEAUlconv@@@Z 000000018007e950 f i libucrtd:initmon.obj
 0001:0007d970       ??1?$__crt_unique_heap_ptr@Ulconv@@U__crt_internal_free_policy@@@@QEAA@XZ 000000018007e970 f i libucrtd:initmon.obj
 0001:0007d990       ?detach@?$__crt_unique_heap_ptr@Ulconv@@U__crt_internal_free_policy@@@@QEAAPEAUlconv@@XZ 000000018007e990 f i libucrtd:initmon.obj
 0001:0007d9c0       ?release@?$__crt_unique_heap_ptr@Ulconv@@U__crt_internal_free_policy@@@@QEAAXXZ 000000018007e9c0 f i libucrtd:initmon.obj
 0001:0007d9f0       __acrt_locale_free_monetary 000000018007e9f0 f   libucrtd:initmon.obj
 0001:0007dc00       __acrt_locale_initialize_monetary 000000018007ec00 f   libucrtd:initmon.obj
 0001:0007e5b0       __acrt_locale_free_numeric 000000018007f5b0 f   libucrtd:initnum.obj
 0001:0007e690       __acrt_locale_initialize_numeric 000000018007f690 f   libucrtd:initnum.obj
 0001:0007eca0       ??$?RU__crt_lc_time_data@@@__crt_internal_free_policy@@QEBAXQEBU__crt_lc_time_data@@@Z 000000018007fca0 f i libucrtd:inittime.obj
 0001:0007ed90       ??0?$__crt_unique_heap_ptr@U__crt_lc_time_data@@U__crt_internal_free_policy@@@@QEAA@QEAU__crt_lc_time_data@@@Z 000000018007fd90 f i libucrtd:inittime.obj
 0001:0007edb0       ??1?$__crt_unique_heap_ptr@U__crt_lc_time_data@@U__crt_internal_free_policy@@@@QEAA@XZ 000000018007fdb0 f i libucrtd:inittime.obj
 0001:0007edd0       ??B?$__crt_unique_heap_ptr@U__crt_lc_time_data@@U__crt_internal_free_policy@@@@QEBA_NXZ 000000018007fdd0 f i libucrtd:inittime.obj
 0001:0007edf0       ?detach@?$__crt_unique_heap_ptr@U__crt_lc_time_data@@U__crt_internal_free_policy@@@@QEAAPEAU__crt_lc_time_data@@XZ 000000018007fdf0 f i libucrtd:inittime.obj
 0001:0007ee80       ?get@?$__crt_unique_heap_ptr@U__crt_lc_time_data@@U__crt_internal_free_policy@@@@QEBAPEAU__crt_lc_time_data@@XZ 000000018007fe80 f i libucrtd:inittime.obj
 0001:0007f4f0       ?is_valid@?$__crt_unique_heap_ptr@U__crt_lc_time_data@@U__crt_internal_free_policy@@@@QEBA_NXZ 00000001800804f0 f i libucrtd:inittime.obj
 0001:0007f520       ?release@?$__crt_unique_heap_ptr@U__crt_lc_time_data@@U__crt_internal_free_policy@@@@QEAAXXZ 0000000180080520 f i libucrtd:inittime.obj
 0001:0007f550       __acrt_locale_free_time    0000000180080550 f   libucrtd:inittime.obj
 0001:0007f6c0       __acrt_locale_initialize_time 00000001800806c0 f   libucrtd:inittime.obj
 0001:0007fde0       wcscat_s                   0000000180080de0 f   libucrtd:wcscat_s.obj
 0001:000805a0       wcsncat_s                  00000001800815a0 f   libucrtd:wcsncat_s.obj
 0001:000805e0       wcscmp                     00000001800815e0 f   libucrtd:wcscmp.obj
 0001:00080680       wcscspn                    0000000180081680 f   libucrtd:wcscspn.obj
 0001:00081400       __acrt_get_qualified_locale 0000000180082400 f   libucrtd:get_qualified_locale.obj
 0001:00082520       __acrt_get_qualified_locale_downlevel 0000000180083520 f   libucrtd:getqloc_downlevel.obj
 0001:00082880       _set_error_mode            0000000180083880 f   libucrtd:set_error_mode.obj
 0001:00082980       __iswcsym                  0000000180083980 f i libucrtd:_wctype.obj
 0001:000829c0       __iswcsymf                 00000001800839c0 f i libucrtd:_wctype.obj
 0001:00082a00       _isleadbyte_l              0000000180083a00 f i libucrtd:_wctype.obj
 0001:00082a60       _iswalnum_l                0000000180083a60 f i libucrtd:_wctype.obj
 0001:00082a90       _iswalpha_l                0000000180083a90 f i libucrtd:_wctype.obj
 0001:00082ac0       _iswblank_l                0000000180083ac0 f i libucrtd:_wctype.obj
 0001:00082b00       _iswcntrl_l                0000000180083b00 f i libucrtd:_wctype.obj
 0001:00082b30       _iswcsym_l                 0000000180083b30 f i libucrtd:_wctype.obj
 0001:00082b80       _iswcsymf_l                0000000180083b80 f i libucrtd:_wctype.obj
 0001:00082bd0       _iswdigit_l                0000000180083bd0 f i libucrtd:_wctype.obj
 0001:00082c00       _iswgraph_l                0000000180083c00 f i libucrtd:_wctype.obj
 0001:00082c30       _iswlower_l                0000000180083c30 f i libucrtd:_wctype.obj
 0001:00082c60       _iswprint_l                0000000180083c60 f i libucrtd:_wctype.obj
 0001:00082c90       _iswpunct_l                0000000180083c90 f i libucrtd:_wctype.obj
 0001:00082cc0       _iswspace_l                0000000180083cc0 f i libucrtd:_wctype.obj
 0001:00082cf0       _iswupper_l                0000000180083cf0 f i libucrtd:_wctype.obj
 0001:00082d20       _iswxdigit_l               0000000180083d20 f i libucrtd:_wctype.obj
 0001:00082d50       isleadbyte                 0000000180083d50 f i libucrtd:_wctype.obj
 0001:00082d70       iswalnum                   0000000180083d70 f i libucrtd:_wctype.obj
 0001:00082d90       iswalpha                   0000000180083d90 f i libucrtd:_wctype.obj
 0001:00082db0       iswascii                   0000000180083db0 f i libucrtd:_wctype.obj
 0001:00082de0       iswblank                   0000000180083de0 f i libucrtd:_wctype.obj
 0001:00082e20       iswcntrl                   0000000180083e20 f i libucrtd:_wctype.obj
 0001:00082e40       iswdigit                   0000000180083e40 f i libucrtd:_wctype.obj
 0001:00082e60       iswgraph                   0000000180083e60 f i libucrtd:_wctype.obj
 0001:00082e80       iswlower                   0000000180083e80 f i libucrtd:_wctype.obj
 0001:00082ea0       iswprint                   0000000180083ea0 f i libucrtd:_wctype.obj
 0001:00082ec0       iswpunct                   0000000180083ec0 f i libucrtd:_wctype.obj
 0001:00082ee0       iswspace                   0000000180083ee0 f i libucrtd:_wctype.obj
 0001:00082f00       iswupper                   0000000180083f00 f i libucrtd:_wctype.obj
 0001:00082f20       iswxdigit                  0000000180083f20 f i libucrtd:_wctype.obj
 0001:00082fb0       ?__mbrtowc_utf8@__crt_mbstring@@YA_KPEA_WPEBD_KPEAU_Mbstatet@@@Z 0000000180083fb0 f   libucrtd:mbrtowc.obj
 0001:00083020       ?__mbsrtowcs_utf8@__crt_mbstring@@YA_KPEA_WPEAPEBD_KPEAU_Mbstatet@@@Z 0000000180084020 f   libucrtd:mbrtowc.obj
 0001:00083c90       btowc                      0000000180084c90 f   libucrtd:mbrtowc.obj
 0001:00083d30       mbrlen                     0000000180084d30 f   libucrtd:mbrtowc.obj
 0001:00083da0       mbrtowc                    0000000180084da0 f   libucrtd:mbrtowc.obj
 0001:00083e70       mbsrtowcs                  0000000180084e70 f   libucrtd:mbrtowc.obj
 0001:00083eb0       mbsrtowcs_s                0000000180084eb0 f   libucrtd:mbrtowc.obj
 0001:000843b0       ?__c32rtomb_utf8@__crt_mbstring@@YA_KPEAD_UPEAU_Mbstatet@@@Z 00000001800853b0 f   libucrtd:c32rtomb.obj
 0001:00084630       ?reset_and_return@__crt_mbstring@@YA_K_KPEAU_Mbstatet@@@Z 0000000180085630 f i libucrtd:c32rtomb.obj
 0001:00084670       ?return_illegal_sequence@__crt_mbstring@@YA_KPEAU_Mbstatet@@@Z 0000000180085670 f i libucrtd:c32rtomb.obj
 0001:000846b0       c32rtomb                   00000001800856b0 f   libucrtd:c32rtomb.obj
 0001:00084870       __acrt_fp_strflt_to_string 0000000180085870 f   libucrtd:_fptostr.obj
 0001:00085370       ??0big_integer@__crt_strtox@@QEAA@AEBU01@@Z 0000000180086370 f i libucrtd:cfout.obj
 0001:000853d0       ??0big_integer@__crt_strtox@@QEAA@XZ 00000001800863d0 f i libucrtd:cfout.obj
 0001:00085490       ??4big_integer@__crt_strtox@@QEAAAEAU01@AEBU01@@Z 0000000180086490 f i libucrtd:cfout.obj
 0001:000854f0       ??8__crt_strtox@@YA_NAEBUbig_integer@0@0@Z 00000001800864f0 f i libucrtd:cfout.obj
 0001:00085560       ??9__crt_strtox@@YA_NAEBUbig_integer@0@0@Z 0000000180086560 f i libucrtd:cfout.obj
 0001:000855a0       ?add_carry@__crt_strtox@@YAIAEAIII@Z 00000001800865a0 f i libucrtd:cfout.obj
 0001:000855f0       ?add_multiply_carry@__crt_strtox@@YAIAEAIIII@Z 00000001800865f0 f i libucrtd:cfout.obj
 0001:00085650       ?bit_scan_reverse@__crt_strtox@@YAII@Z 0000000180086650 f i libucrtd:cfout.obj
 0001:00085690       ?count_sequential_high_zeroes@__crt_strtox@@YAII@Z 0000000180086690 f i libucrtd:cfout.obj
 0001:000856d0       ?divide@__crt_strtox@@YA_KAEAUbig_integer@1@AEBU21@@Z 00000001800866d0 f i libucrtd:cfout.obj
 0001:000860a0       ?is_zero@__crt_strtox@@YA_NAEBUbig_integer@1@@Z 00000001800870a0 f i libucrtd:cfout.obj
 0001:000860d0       ?make_big_integer@__crt_strtox@@YA?AUbig_integer@1@_K@Z 00000001800870d0 f i libucrtd:cfout.obj
 0001:000861a0       ?make_big_integer_power_of_two@__crt_strtox@@YA?AUbig_integer@1@I@Z 00000001800871a0 f i libucrtd:cfout.obj
 0001:00086270       ?multiply@__crt_strtox@@YA_NAEAUbig_integer@1@AEBU21@@Z 0000000180087270 f i libucrtd:cfout.obj
 0001:000865f0       ?multiply@__crt_strtox@@YA_NAEAUbig_integer@1@I@Z 00000001800875f0 f i libucrtd:cfout.obj
 0001:00086710       ?multiply_64_32@__crt_strtox@@YA_K_KI@Z 0000000180087710 f i libucrtd:cfout.obj
 0001:00086730       ?multiply_by_power_of_ten@__crt_strtox@@YA_NAEAUbig_integer@1@I@Z 0000000180087730 f i libucrtd:cfout.obj
 0001:000868e0       ?multiply_core@__crt_strtox@@YAIQEAIII@Z 00000001800878e0 f i libucrtd:cfout.obj
 0001:00086960       ?shift_left@__crt_strtox@@YA_NAEAUbig_integer@1@I@Z 0000000180087960 f i libucrtd:cfout.obj
 0001:00086c40       __acrt_fltout              0000000180087c40 f   libucrtd:cfout.obj
 0001:00087130       __fpe_flt_rounds           0000000180088130 f   libucrtd:fegetround.obj
 0001:00087190       fegetround                 0000000180088190 f   libucrtd:fegetround.obj
 0001:00087ae0       ?has_big_buffer@__crt_stdio_stream@@QEBA_NXZ 0000000180088ae0 f i libucrtd:_flsbuf.obj
 0001:00087c00       __acrt_stdio_flush_and_write_narrow_nolock 0000000180088c00 f   libucrtd:_flsbuf.obj
 0001:00087c30       __acrt_stdio_flush_and_write_wide_nolock 0000000180088c30 f   libucrtd:_flsbuf.obj
 0001:00087c60       ?is_in_use@__crt_stdio_stream@@QEBA_NXZ 0000000180088c60 f i libucrtd:closeall.obj
 0001:00087ca0       _fcloseall                 0000000180088ca0 f   libucrtd:closeall.obj
 0001:00087db0       ?has_crt_buffer@__crt_stdio_stream@@QEBA_NXZ 0000000180088db0 f i libucrtd:_freebuf.obj
 0001:00087dd0       __acrt_stdio_free_buffer_nolock 0000000180088dd0 f   libucrtd:_freebuf.obj
 0001:000896f0       _i64toa                    000000018008a6f0 f   libucrtd:xtoa.obj
 0001:00089760       _i64toa_s                  000000018008a760 f   libucrtd:xtoa.obj
 0001:000897d0       _i64tow                    000000018008a7d0 f   libucrtd:xtoa.obj
 0001:00089840       _i64tow_s                  000000018008a840 f   libucrtd:xtoa.obj
 0001:000898b0       _itoa                      000000018008a8b0 f   libucrtd:xtoa.obj
 0001:00089920       _itoa_s                    000000018008a920 f   libucrtd:xtoa.obj
 0001:00089980       _itow                      000000018008a980 f   libucrtd:xtoa.obj
 0001:000899f0       _itow_s                    000000018008a9f0 f   libucrtd:xtoa.obj
 0001:00089a50       _ltoa                      000000018008aa50 f   libucrtd:xtoa.obj
 0001:00089ac0       _ltoa_s                    000000018008aac0 f   libucrtd:xtoa.obj
 0001:00089b20       _ltow                      000000018008ab20 f   libucrtd:xtoa.obj
 0001:00089b90       _ltow_s                    000000018008ab90 f   libucrtd:xtoa.obj
 0001:00089bf0       _ui64toa                   000000018008abf0 f   libucrtd:xtoa.obj
 0001:00089c30       _ui64toa_s                 000000018008ac30 f   libucrtd:xtoa.obj
 0001:00089c70       _ui64tow                   000000018008ac70 f   libucrtd:xtoa.obj
 0001:00089cb0       _ui64tow_s                 000000018008acb0 f   libucrtd:xtoa.obj
 0001:00089cf0       _ultoa                     000000018008acf0 f   libucrtd:xtoa.obj
 0001:00089d30       _ultoa_s                   000000018008ad30 f   libucrtd:xtoa.obj
 0001:00089d70       _ultow                     000000018008ad70 f   libucrtd:xtoa.obj
 0001:00089db0       _ultow_s                   000000018008adb0 f   libucrtd:xtoa.obj
 0001:0008a3d0       _mbstowcs_l                000000018008b3d0 f   libucrtd:mbstowcs.obj
 0001:0008a410       _mbstowcs_s_l              000000018008b410 f   libucrtd:mbstowcs.obj
 0001:0008a9e0       mbstowcs                   000000018008b9e0 f   libucrtd:mbstowcs.obj
 0001:0008aa40       mbstowcs_s                 000000018008ba40 f   libucrtd:mbstowcs.obj
 0001:0008b3d0       _wcstombs_l                000000018008c3d0 f   libucrtd:wcstombs.obj
 0001:0008b410       _wcstombs_s_l              000000018008c410 f   libucrtd:wcstombs.obj
 0001:0008b950       wcstombs                   000000018008c950 f   libucrtd:wcstombs.obj
 0001:0008b980       wcstombs_s                 000000018008c980 f   libucrtd:wcstombs.obj
 0001:0008c040       strcat_s                   000000018008d040 f   libucrtd:strcat_s.obj
 0001:0008c070       __acrt_OutputDebugStringA  000000018008d070 f   libucrtd:outputdebugstringa.obj
 0001:0008c130       __acrt_GetStringTypeW      000000018008d130 f   libucrtd:getstringtypew.obj
 0001:0008c170       _add_exp                   000000018008d170 f   libucrtd:util.obj
 0001:0008c1b0       _decomp                    000000018008d1b0 f   libucrtd:util.obj
 0001:0008c300       _get_exp                   000000018008d300 f   libucrtd:util.obj
 0001:0008c340       _set_bexp                  000000018008d340 f   libucrtd:util.obj
 0001:0008c380       _set_exp                   000000018008d380 f   libucrtd:util.obj
 0001:0008c3d0       _sptype                    000000018008d3d0 f   libucrtd:util.obj
 0001:0008c460       _get_fpsr                  000000018008d460 f   libucrtd:fpsr.obj
 0001:0008c470       _set_fpsr                  000000018008d470 f   libucrtd:fpsr.obj
 0001:0008c47a       _fclrf                     000000018008d47a f   libucrtd:fpsr.obj
 0001:0008c48e       _frnd                      000000018008d48e f   libucrtd:fpsr.obj
 0001:0008c4b0       __strncnt                  000000018008d4b0 f   libucrtd:strncnt.obj
 0001:0008c510       __acrt_CompareStringW      000000018008d510 f   libucrtd:comparestringw.obj
 0001:0008c640       __ascii_wcsnicmp           000000018008d640 f   libucrtd:wcsnicmp.obj
 0001:0008c710       _towlower_fast_internal    000000018008d710 f i libucrtd:wcsnicmp.obj
 0001:0008c760       _towlower_internal         000000018008d760 f i libucrtd:wcsnicmp.obj
 0001:0008c7a0       _wcsnicmp                  000000018008d7a0 f   libucrtd:wcsnicmp.obj
 0001:0008c950       _wcsnicmp_l                000000018008d950 f   libucrtd:wcsnicmp.obj
 0001:0008cc30       __ascii_strnicmp           000000018008dc30 f   libucrtd:strnicmp.obj
 0001:0008cd00       _strnicmp                  000000018008dd00 f   libucrtd:strnicmp.obj
 0001:0008cf50       _strnicmp_l                000000018008df50 f   libucrtd:strnicmp.obj
 0001:0008d920       __acrt_CompareStringA      000000018008e920 f   libucrtd:comparestringa.obj
 0001:0008dbd0       _commit                    000000018008ebd0 f   libucrtd:commit.obj
 0001:0008f7b0       _utf8_no_of_trailbytes     00000001800907b0 f i libucrtd:write.obj
 0001:0008f7d0       _write                     00000001800907d0 f   libucrtd:write.obj
 0001:0008fa70       _write_nolock              0000000180090a70 f   libucrtd:write.obj
 0001:00090250       __acrt_GetLocaleInfoA      0000000180091250 f   libucrtd:getlocaleinfoa.obj
 0001:000906b0       __ascii_wcsicmp            00000001800916b0 f   libucrtd:wcsicmp.obj
 0001:00090750       _wcsicmp                   0000000180091750 f   libucrtd:wcsicmp.obj
 0001:000908f0       _wcsicmp_l                 00000001800918f0 f   libucrtd:wcsicmp.obj
 0001:00090b90       ?__mbrtoc32_utf8@__crt_mbstring@@YA_KPEA_UPEBD_KPEAU_Mbstatet@@@Z 0000000180091b90 f   libucrtd:mbrtoc32.obj
 0001:00090f50       mbrtoc32                   0000000180091f50 f   libucrtd:mbrtoc32.obj
 0001:00090f90       log10                      0000000180091f90 f   libucrtd:log10.obj
 0001:00091540       ceil                       0000000180092540 f   libucrtd:ceil.obj
 0001:00091710       _controlfp_s               0000000180092710 f   libucrtd:contrlfp.obj
 0001:00091840       fegetenv                   0000000180092840 f   libucrtd:fegetenv.obj
 0001:00091870       fesetenv                   0000000180092870 f   libucrtd:fesetenv.obj
 0001:000918f0       feholdexcept               00000001800928f0 f   libucrtd:feholdexcept.obj
 0001:00091960       ??$__acrt_fenv_shift_bits@W4__acrt_fenv_abstract_control@@@@YA?AW4__acrt_fenv_abstract_control@@W40@0I@Z 0000000180092960 f i libucrtd:_fenvutils.obj
 0001:00091990       ??$__acrt_fenv_shift_bits@W4__acrt_fenv_abstract_status@@@@YA?AW4__acrt_fenv_abstract_status@@W40@0I@Z 0000000180092990 f i libucrtd:_fenvutils.obj
 0001:000919c0       ??$__acrt_fenv_translate_bit@W4__acrt_fenv_abstract_control@@W4__acrt_fenv_machine_sse_control@@@@YA?AW4__acrt_fenv_abstract_control@@W4__acrt_fenv_machine_sse_control@@0W40@1@Z 00000001800929c0 f i libucrtd:_fenvutils.obj
 0001:00091a20       ??$__acrt_fenv_translate_bit@W4__acrt_fenv_abstract_status@@W4__acrt_fenv_machine_sse_status@@@@YA?AW4__acrt_fenv_abstract_status@@W4__acrt_fenv_machine_sse_status@@0W40@1@Z 0000000180092a20 f i libucrtd:_fenvutils.obj
 0001:00091a70       ??$__acrt_fenv_translate_bit@W4__acrt_fenv_machine_sse_control@@W4__acrt_fenv_abstract_control@@@@YA?AW4__acrt_fenv_machine_sse_control@@W4__acrt_fenv_abstract_control@@0W40@1@Z 0000000180092a70 f i libucrtd:_fenvutils.obj
 0001:00091ad0       ??$__acrt_fenv_translate_bit@W4__acrt_fenv_machine_sse_status@@W4__acrt_fenv_abstract_status@@@@YA?AW4__acrt_fenv_machine_sse_status@@W4__acrt_fenv_abstract_status@@0W40@1@Z 0000000180092ad0 f i libucrtd:_fenvutils.obj
 0001:00091b20       ??$__acrt_fenv_unshift_bits@W4__acrt_fenv_abstract_control@@@@YA?AW4__acrt_fenv_abstract_control@@W40@0I@Z 0000000180092b20 f i libucrtd:_fenvutils.obj
 0001:00091b50       ??$__acrt_fenv_unshift_bits@W4__acrt_fenv_abstract_status@@@@YA?AW4__acrt_fenv_abstract_status@@W40@0I@Z 0000000180092b50 f i libucrtd:_fenvutils.obj
 0001:00092040       ??I@YA?AW4__acrt_fenv_abstract_control@@W40@0@Z 0000000180093040 f i libucrtd:_fenvutils.obj
 0001:00092060       ??I@YA?AW4__acrt_fenv_abstract_status@@W40@0@Z 0000000180093060 f i libucrtd:_fenvutils.obj
 0001:00092080       ??I@YA?AW4__acrt_fenv_machine_sse_control@@W40@0@Z 0000000180093080 f i libucrtd:_fenvutils.obj
 0001:000920a0       ??I@YA?AW4__acrt_fenv_machine_sse_status@@W40@0@Z 00000001800930a0 f i libucrtd:_fenvutils.obj
 0001:000920c0       ??U@YA?AW4__acrt_fenv_abstract_control@@W40@0@Z 00000001800930c0 f i libucrtd:_fenvutils.obj
 0001:000920e0       ??U@YA?AW4__acrt_fenv_abstract_status@@W40@0@Z 00000001800930e0 f i libucrtd:_fenvutils.obj
 0001:00092100       ??U@YA?AW4__acrt_fenv_machine_sse_control@@W40@0@Z 0000000180093100 f i libucrtd:_fenvutils.obj
 0001:00092120       ??_5@YAAEAW4__acrt_fenv_abstract_control@@AEAW40@W40@@Z 0000000180093120 f i libucrtd:_fenvutils.obj
 0001:00092150       ??_5@YAAEAW4__acrt_fenv_abstract_status@@AEAW40@W40@@Z 0000000180093150 f i libucrtd:_fenvutils.obj
 0001:00092180       ??_5@YAAEAW4__acrt_fenv_machine_sse_control@@AEAW40@W40@@Z 0000000180093180 f i libucrtd:_fenvutils.obj
 0001:000921b0       ??_5@YAAEAW4__acrt_fenv_machine_sse_status@@AEAW40@W40@@Z 00000001800931b0 f i libucrtd:_fenvutils.obj
 0001:000921e0       ?__acrt_fenv_shift_abstract_sse_control@@YA?AW4__acrt_fenv_abstract_control@@W41@@Z 00000001800931e0 f i libucrtd:_fenvutils.obj
 0001:00092230       ?__acrt_fenv_shift_abstract_sse_status@@YA?AW4__acrt_fenv_abstract_status@@W41@@Z 0000000180093230 f i libucrtd:_fenvutils.obj
 0001:00092260       ?__acrt_fenv_unshift_abstract_sse_control@@YA?AW4__acrt_fenv_abstract_control@@W41@@Z 0000000180093260 f i libucrtd:_fenvutils.obj
 0001:000922b0       ?__acrt_fenv_unshift_abstract_sse_status@@YA?AW4__acrt_fenv_abstract_status@@W41@@Z 00000001800932b0 f i libucrtd:_fenvutils.obj
 0001:00092580       __acrt_fenv_expand_round_control 0000000180093580 f   libucrtd:_fenvutils.obj
 0001:000925b0       __acrt_fenv_get_common_round_control 00000001800935b0 f   libucrtd:_fenvutils.obj
 0001:000925d0       __acrt_fenv_get_control    00000001800935d0 f   libucrtd:_fenvutils.obj
 0001:00092600       __acrt_fenv_get_fp_status_word_from_exception_mask 0000000180093600 f   libucrtd:_fenvutils.obj
 0001:00092630       __acrt_fenv_get_status     0000000180093630 f   libucrtd:_fenvutils.obj
 0001:00092660       __acrt_fenv_set_control    0000000180093660 f   libucrtd:_fenvutils.obj
 0001:00092680       __acrt_fenv_set_status     0000000180093680 f   libucrtd:_fenvutils.obj
 0001:00092f60       _lseek                     0000000180093f60 f   libucrtd:lseek.obj
 0001:00092f90       _lseek_nolock              0000000180093f90 f   libucrtd:lseek.obj
 0001:00092fc0       _lseeki64                  0000000180093fc0 f   libucrtd:lseek.obj
 0001:00092ff0       _lseeki64_nolock           0000000180093ff0 f   libucrtd:lseek.obj
 0001:00093020       __acrt_stdio_allocate_buffer_nolock 0000000180094020 f   libucrtd:_getbuf.obj
 0001:000931a0       _fclose_nolock             00000001800941a0 f   libucrtd:fclose.obj
 0001:00093330       fclose                     0000000180094330 f   libucrtd:fclose.obj
 0001:00093470       ?__wcsrtombs_utf8@__crt_mbstring@@YA_KPEADPEAPEB_W_KPEAU_Mbstatet@@@Z 0000000180094470 f   libucrtd:wcrtomb.obj
 0001:00093fc0       wcrtomb                    0000000180094fc0 f   libucrtd:wcrtomb.obj
 0001:00094030       wcrtomb_s                  0000000180095030 f   libucrtd:wcrtomb.obj
 0001:000941c0       wcsrtombs                  00000001800951c0 f   libucrtd:wcrtomb.obj
 0001:00094200       wcsrtombs_s                0000000180095200 f   libucrtd:wcrtomb.obj
 0001:00094700       wctob                      0000000180095700 f   libucrtd:wcrtomb.obj
 0001:000947b0       _towlower_l                00000001800957b0 f   libucrtd:towlower.obj
 0001:000948e0       towlower                   00000001800958e0 f   libucrtd:towlower.obj
 0001:00094998       _putwch                    0000000180095998 f   libucrtd:putwch.obj
 0001:000949d4       _putwch_nolock             00000001800959d4 f   libucrtd:putwch.obj
 0001:00095810       _read                      0000000180096810 f   libucrtd:read.obj
 0001:00095b60       _read_nolock               0000000180096b60 f   libucrtd:read.obj
 0001:00096910       __acrt_initialize_fma3     0000000180097910 f   libucrtd:fma3_available.obj
 0001:000969c0       _get_FMA3_enable           00000001800979c0 f   libucrtd:fma3_available.obj
 0001:000969d0       _set_FMA3_enable           00000001800979d0 f   libucrtd:fma3_available.obj
 0001:000969f0       _log10_special             00000001800979f0 f   libucrtd:log_special.obj
 0001:00096a40       _log10f_special            0000000180097a40 f   libucrtd:log_special.obj
 0001:00096a90       _log_special               0000000180097a90 f   libucrtd:log_special.obj
 0001:00096c00       _logf_special              0000000180097c00 f   libucrtd:log_special.obj
 0001:00096f90       _clearfp                   0000000180097f90 f   libucrtd:ieee.obj
 0001:00096fb0       _control87                 0000000180097fb0 f   libucrtd:ieee.obj
 0001:00096fd0       _controlfp                 0000000180097fd0 f   libucrtd:ieee.obj
 0001:00097000       _fpreset                   0000000180098000 f   libucrtd:ieee.obj
 0001:00097170       _set_controlfp             0000000180098170 f   libucrtd:ieee.obj
 0001:000971d0       _statusfp                  00000001800981d0 f   libucrtd:ieee.obj
 0001:000975e0       _close                     00000001800985e0 f   libucrtd:close.obj
 0001:000977d0       _close_nolock              00000001800987d0 f   libucrtd:close.obj
 0001:00097840       ??$?RU__crt_stdio_stream_data@@@__crt_internal_free_policy@@QEBAXQEBU__crt_stdio_stream_data@@@Z 0000000180098840 f i libucrtd:stream.obj
 0001:00097870       ??0?$__crt_unique_heap_ptr@U__crt_stdio_stream_data@@U__crt_internal_free_policy@@@@QEAA@QEAU__crt_stdio_stream_data@@@Z 0000000180098870 f i libucrtd:stream.obj
 0001:00097890       ??0__crt_stdio_stream@@QEAA@XZ 0000000180098890 f i libucrtd:stream.obj
 0001:000978b0       ??1?$__crt_unique_heap_ptr@U__crt_stdio_stream_data@@U__crt_internal_free_policy@@@@QEAA@XZ 00000001800988b0 f i libucrtd:stream.obj
 0001:000978d0       ?__acrt_stdio_allocate_stream@@YA?AV__crt_stdio_stream@@XZ 00000001800988d0 f   libucrtd:stream.obj
 0001:00097990       ?__acrt_stdio_free_stream@@YAXV__crt_stdio_stream@@@Z 0000000180098990 f   libucrtd:stream.obj
 0001:00097a30       ?deallocate@__crt_stdio_stream@@QEAAXXZ 0000000180098a30 f i libucrtd:stream.obj
 0001:00097a50       ?detach@?$__crt_unique_heap_ptr@U__crt_stdio_stream_data@@U__crt_internal_free_policy@@@@QEAAPEAU__crt_stdio_stream_data@@XZ 0000000180098a50 f i libucrtd:stream.obj
 0001:00097c30       ?lock@__crt_stdio_stream@@QEBAXXZ 0000000180098c30 f i libucrtd:stream.obj
 0001:00097c50       ?release@?$__crt_unique_heap_ptr@U__crt_stdio_stream_data@@U__crt_internal_free_policy@@@@QEAAXXZ 0000000180098c50 f i libucrtd:stream.obj
 0001:00097c80       ?try_allocate@__crt_stdio_stream@@QEAA_NXZ 0000000180098c80 f i libucrtd:stream.obj
 0001:00097cf0       ?unlock@__crt_stdio_stream@@QEBAXXZ 0000000180098cf0 f i libucrtd:stream.obj
 0001:00097d10       ?__c16rtomb_utf8@__crt_mbstring@@YA_KPEAD_SPEAU_Mbstatet@@@Z 0000000180098d10 f   libucrtd:c16rtomb.obj
 0001:00097f30       c16rtomb                   0000000180098f30 f   libucrtd:c16rtomb.obj
 0001:00097f60       __acrt_LCMapStringW        0000000180098f60 f   libucrtd:lcmapstringw.obj
 0001:00098144       __dcrt_lowio_ensure_console_output_initialized 0000000180099144 f   libucrtd:initcon.obj
 0001:00098198       __dcrt_terminate_console_output 0000000180099198 f   libucrtd:initcon.obj
 0001:000981b4       __dcrt_write_console       00000001800991b4 f   libucrtd:initcon.obj
 0001:00098280       _FindPESection             0000000180099280 f   LIBCMTD:pesect.obj
 0001:00098330       _IsNonwritableInCurrentImage 0000000180099330 f   LIBCMTD:pesect.obj
 0001:000983c0       _ValidateImageBase         00000001800993c0 f   LIBCMTD:pesect.obj
 0001:00098440       ??1type_info@@UEAA@XZ      0000000180099440 f   LIBCMTD:std_type_info_static.obj
 0001:00098460       ??_Etype_info@@UEAAPEAXI@Z 0000000180099460 f i LIBCMTD:std_type_info_static.obj
 0001:00098460       ??_Gtype_info@@UEAAPEAXI@Z 0000000180099460 f i LIBCMTD:std_type_info_static.obj
 0001:000984a0       ??3@YAXPEAX_K@Z            00000001800994a0 f   LIBCMTD:delete_scalar_size.obj
 0001:000984c0       __GSHandlerCheck_SEH       00000001800994c0 f   LIBCMTD:gshandlerseh.obj
 0001:00098590       __chkstk                   0000000180099590 f   LIBCMTD:chkstk.obj
 0001:00098590       _alloca_probe              0000000180099590 f   LIBCMTD:chkstk.obj
 0001:000985e0       __GSHandlerCheck_EH        00000001800995e0 f   LIBCMTD:gshandlereh.obj
 0001:00098690       ??3@YAXPEAX@Z              0000000180099690 f   LIBCMTD:delete_scalar.obj
 0001:000986ad       RtlUnwindEx                00000001800996ad f   kernel32:KERNEL32.dll
 0001:000986b3       InterlockedPushEntrySList  00000001800996b3 f   kernel32:KERNEL32.dll
 0001:000986b9       InterlockedFlushSList      00000001800996b9 f   kernel32:KERNEL32.dll
 0001:000986bf       GetLastError               00000001800996bf f   kernel32:KERNEL32.dll
 0001:000986c5       SetLastError               00000001800996c5 f   kernel32:KERNEL32.dll
 0001:000986cb       EnterCriticalSection       00000001800996cb f   kernel32:KERNEL32.dll
 0001:000986d1       LeaveCriticalSection       00000001800996d1 f   kernel32:KERNEL32.dll
 0001:000986d7       DeleteCriticalSection      00000001800996d7 f   kernel32:KERNEL32.dll
 0001:000986dd       InitializeCriticalSectionAndSpinCount 00000001800996dd f   kernel32:KERNEL32.dll
 0001:000986e3       TlsAlloc                   00000001800996e3 f   kernel32:KERNEL32.dll
 0001:000986e9       TlsGetValue                00000001800996e9 f   kernel32:KERNEL32.dll
 0001:000986ef       TlsSetValue                00000001800996ef f   kernel32:KERNEL32.dll
 0001:000986f5       TlsFree                    00000001800996f5 f   kernel32:KERNEL32.dll
 0001:000986fb       FreeLibrary                00000001800996fb f   kernel32:KERNEL32.dll
 0001:00098701       GetProcAddress             0000000180099701 f   kernel32:KERNEL32.dll
 0001:00098707       LoadLibraryExW             0000000180099707 f   kernel32:KERNEL32.dll
 0001:0009870d       EncodePointer              000000018009970d f   kernel32:KERNEL32.dll
 0001:00098713       RaiseException             0000000180099713 f   kernel32:KERNEL32.dll
 0001:00098719       RtlPcToFileHeader          0000000180099719 f   kernel32:KERNEL32.dll
 0001:0009871f       ExitProcess                000000018009971f f   kernel32:KERNEL32.dll
 0001:00098725       GetModuleHandleExW         0000000180099725 f   kernel32:KERNEL32.dll
 0001:0009872b       GetModuleFileNameW         000000018009972b f   kernel32:KERNEL32.dll
 0001:00098731       HeapAlloc                  0000000180099731 f   kernel32:KERNEL32.dll
 0001:00098737       HeapSize                   0000000180099737 f   kernel32:KERNEL32.dll
 0001:0009873d       HeapValidate               000000018009973d f   kernel32:KERNEL32.dll
 0001:00098743       GetSystemInfo              0000000180099743 f   kernel32:KERNEL32.dll
 0001:00098749       GetCurrentThread           0000000180099749 f   kernel32:KERNEL32.dll
 0001:0009874f       FindClose                  000000018009974f f   kernel32:KERNEL32.dll
 0001:00098755       FindFirstFileExW           0000000180099755 f   kernel32:KERNEL32.dll
 0001:0009875b       FindNextFileW              000000018009975b f   kernel32:KERNEL32.dll
 0001:00098761       IsValidCodePage            0000000180099761 f   kernel32:KERNEL32.dll
 0001:00098767       GetACP                     0000000180099767 f   kernel32:KERNEL32.dll
 0001:0009876d       GetOEMCP                   000000018009976d f   kernel32:KERNEL32.dll
 0001:00098773       GetCPInfo                  0000000180099773 f   kernel32:KERNEL32.dll
 0001:00098779       GetCommandLineA            0000000180099779 f   kernel32:KERNEL32.dll
 0001:0009877f       GetCommandLineW            000000018009977f f   kernel32:KERNEL32.dll
 0001:00098785       MultiByteToWideChar        0000000180099785 f   kernel32:KERNEL32.dll
 0001:0009878b       WideCharToMultiByte        000000018009978b f   kernel32:KERNEL32.dll
 0001:00098791       GetEnvironmentStringsW     0000000180099791 f   kernel32:KERNEL32.dll
 0001:00098797       FreeEnvironmentStringsW    0000000180099797 f   kernel32:KERNEL32.dll
 0001:0009879d       SetEnvironmentVariableW    000000018009979d f   kernel32:KERNEL32.dll
 0001:000987a3       GetDateFormatW             00000001800997a3 f   kernel32:KERNEL32.dll
 0001:000987a9       GetTimeFormatW             00000001800997a9 f   kernel32:KERNEL32.dll
 0001:000987af       CompareStringW             00000001800997af f   kernel32:KERNEL32.dll
 0001:000987b5       LCMapStringW               00000001800997b5 f   kernel32:KERNEL32.dll
 0001:000987bb       GetLocaleInfoW             00000001800997bb f   kernel32:KERNEL32.dll
 0001:000987c1       IsValidLocale              00000001800997c1 f   kernel32:KERNEL32.dll
 0001:000987c7       GetUserDefaultLCID         00000001800997c7 f   kernel32:KERNEL32.dll
 0001:000987cd       EnumSystemLocalesW         00000001800997cd f   kernel32:KERNEL32.dll
 0001:000987d3       GetProcessHeap             00000001800997d3 f   kernel32:KERNEL32.dll
 0001:000987d9       GetStdHandle               00000001800997d9 f   kernel32:KERNEL32.dll
 0001:000987df       GetFileType                00000001800997df f   kernel32:KERNEL32.dll
 0001:000987e5       SetConsoleCtrlHandler      00000001800997e5 f   kernel32:KERNEL32.dll
 0001:000987eb       HeapFree                   00000001800997eb f   kernel32:KERNEL32.dll
 0001:000987f1       HeapReAlloc                00000001800997f1 f   kernel32:KERNEL32.dll
 0001:000987f7       HeapQueryInformation       00000001800997f7 f   kernel32:KERNEL32.dll
 0001:000987fd       WriteFile                  00000001800997fd f   kernel32:KERNEL32.dll
 0001:00098803       OutputDebugStringW         0000000180099803 f   kernel32:KERNEL32.dll
 0001:00098809       WriteConsoleW              0000000180099809 f   kernel32:KERNEL32.dll
 0001:0009880f       GetStringTypeW             000000018009980f f   kernel32:KERNEL32.dll
 0001:00098815       SetStdHandle               0000000180099815 f   kernel32:KERNEL32.dll
 0001:0009881b       GetFileSizeEx              000000018009981b f   kernel32:KERNEL32.dll
 0001:00098821       SetFilePointerEx           0000000180099821 f   kernel32:KERNEL32.dll
 0001:00098827       FlushFileBuffers           0000000180099827 f   kernel32:KERNEL32.dll
 0001:0009882d       GetConsoleOutputCP         000000018009982d f   kernel32:KERNEL32.dll
 0001:00098833       GetConsoleMode             0000000180099833 f   kernel32:KERNEL32.dll
 0001:00098839       ReadFile                   0000000180099839 f   kernel32:KERNEL32.dll
 0001:0009883f       ReadConsoleW               000000018009983f f   kernel32:KERNEL32.dll
 0001:00098845       CloseHandle                0000000180099845 f   kernel32:KERNEL32.dll
 0001:0009884b       CreateFileW                000000018009984b f   kernel32:KERNEL32.dll
 0001:00098860       strchr                     0000000180099860 f   libvcruntimed:strchr.obj
 0001:000989f0       wcschr                     00000001800999f0 f   libvcruntimed:wcschr.obj
 0001:00098b60       memcmp                     0000000180099b60 f   libvcruntimed:memcmp.obj
 0001:00098c30       strrchr                    0000000180099c30 f   libvcruntimed:strrchr.obj
 0001:00099050       _local_unwind              000000018009a050 f   libvcruntimed:jmpuwind.obj
 0001:00099079       RtlUnwind                  000000018009a079 f   kernel32:KERNEL32.dll
 0001:00099090       _guard_dispatch_icall_nop  000000018009a090 f   LIBCMTD:guard_dispatch.obj
 0001:000990b0       _guard_xfg_dispatch_icall_nop 000000018009a0b0 f   LIBCMTD:guard_xfg_dispatch.obj
 0002:00000000       __imp_RtlCaptureContext    000000018009c000     kernel32:KERNEL32.dll
 0002:00000008       __imp_RtlLookupFunctionEntry 000000018009c008     kernel32:KERNEL32.dll
 0002:00000010       __imp_RtlVirtualUnwind     000000018009c010     kernel32:KERNEL32.dll
 0002:00000018       __imp_UnhandledExceptionFilter 000000018009c018     kernel32:KERNEL32.dll
 0002:00000020       __imp_SetUnhandledExceptionFilter 000000018009c020     kernel32:KERNEL32.dll
 0002:00000028       __imp_GetCurrentProcess    000000018009c028     kernel32:KERNEL32.dll
 0002:00000030       __imp_TerminateProcess     000000018009c030     kernel32:KERNEL32.dll
 0002:00000038       __imp_IsProcessorFeaturePresent 000000018009c038     kernel32:KERNEL32.dll
 0002:00000040       __imp_QueryPerformanceCounter 000000018009c040     kernel32:KERNEL32.dll
 0002:00000048       __imp_GetCurrentProcessId  000000018009c048     kernel32:KERNEL32.dll
 0002:00000050       __imp_GetCurrentThreadId   000000018009c050     kernel32:KERNEL32.dll
 0002:00000058       __imp_GetSystemTimeAsFileTime 000000018009c058     kernel32:KERNEL32.dll
 0002:00000060       __imp_InitializeSListHead  000000018009c060     kernel32:KERNEL32.dll
 0002:00000068       __imp_IsDebuggerPresent    000000018009c068     kernel32:KERNEL32.dll
 0002:00000070       __imp_GetStartupInfoW      000000018009c070     kernel32:KERNEL32.dll
 0002:00000078       __imp_GetModuleHandleW     000000018009c078     kernel32:KERNEL32.dll
 0002:00000080       __imp_CreateFileW          000000018009c080     kernel32:KERNEL32.dll
 0002:00000088       __imp_RtlUnwindEx          000000018009c088     kernel32:KERNEL32.dll
 0002:00000090       __imp_InterlockedPushEntrySList 000000018009c090     kernel32:KERNEL32.dll
 0002:00000098       __imp_InterlockedFlushSList 000000018009c098     kernel32:KERNEL32.dll
 0002:000000a0       __imp_GetLastError         000000018009c0a0     kernel32:KERNEL32.dll
 0002:000000a8       __imp_SetLastError         000000018009c0a8     kernel32:KERNEL32.dll
 0002:000000b0       __imp_EnterCriticalSection 000000018009c0b0     kernel32:KERNEL32.dll
 0002:000000b8       __imp_LeaveCriticalSection 000000018009c0b8     kernel32:KERNEL32.dll
 0002:000000c0       __imp_DeleteCriticalSection 000000018009c0c0     kernel32:KERNEL32.dll
 0002:000000c8       __imp_InitializeCriticalSectionAndSpinCount 000000018009c0c8     kernel32:KERNEL32.dll
 0002:000000d0       __imp_TlsAlloc             000000018009c0d0     kernel32:KERNEL32.dll
 0002:000000d8       __imp_TlsGetValue          000000018009c0d8     kernel32:KERNEL32.dll
 0002:000000e0       __imp_TlsSetValue          000000018009c0e0     kernel32:KERNEL32.dll
 0002:000000e8       __imp_TlsFree              000000018009c0e8     kernel32:KERNEL32.dll
 0002:000000f0       __imp_FreeLibrary          000000018009c0f0     kernel32:KERNEL32.dll
 0002:000000f8       __imp_GetProcAddress       000000018009c0f8     kernel32:KERNEL32.dll
 0002:00000100       __imp_LoadLibraryExW       000000018009c100     kernel32:KERNEL32.dll
 0002:00000108       __imp_EncodePointer        000000018009c108     kernel32:KERNEL32.dll
 0002:00000110       __imp_RaiseException       000000018009c110     kernel32:KERNEL32.dll
 0002:00000118       __imp_RtlPcToFileHeader    000000018009c118     kernel32:KERNEL32.dll
 0002:00000120       __imp_ExitProcess          000000018009c120     kernel32:KERNEL32.dll
 0002:00000128       __imp_GetModuleHandleExW   000000018009c128     kernel32:KERNEL32.dll
 0002:00000130       __imp_GetModuleFileNameW   000000018009c130     kernel32:KERNEL32.dll
 0002:00000138       __imp_HeapAlloc            000000018009c138     kernel32:KERNEL32.dll
 0002:00000140       __imp_HeapSize             000000018009c140     kernel32:KERNEL32.dll
 0002:00000148       __imp_HeapValidate         000000018009c148     kernel32:KERNEL32.dll
 0002:00000150       __imp_GetSystemInfo        000000018009c150     kernel32:KERNEL32.dll
 0002:00000158       __imp_GetCurrentThread     000000018009c158     kernel32:KERNEL32.dll
 0002:00000160       __imp_FindClose            000000018009c160     kernel32:KERNEL32.dll
 0002:00000168       __imp_FindFirstFileExW     000000018009c168     kernel32:KERNEL32.dll
 0002:00000170       __imp_FindNextFileW        000000018009c170     kernel32:KERNEL32.dll
 0002:00000178       __imp_IsValidCodePage      000000018009c178     kernel32:KERNEL32.dll
 0002:00000180       __imp_GetACP               000000018009c180     kernel32:KERNEL32.dll
 0002:00000188       __imp_GetOEMCP             000000018009c188     kernel32:KERNEL32.dll
 0002:00000190       __imp_GetCPInfo            000000018009c190     kernel32:KERNEL32.dll
 0002:00000198       __imp_GetCommandLineA      000000018009c198     kernel32:KERNEL32.dll
 0002:000001a0       __imp_GetCommandLineW      000000018009c1a0     kernel32:KERNEL32.dll
 0002:000001a8       __imp_MultiByteToWideChar  000000018009c1a8     kernel32:KERNEL32.dll
 0002:000001b0       __imp_WideCharToMultiByte  000000018009c1b0     kernel32:KERNEL32.dll
 0002:000001b8       __imp_GetEnvironmentStringsW 000000018009c1b8     kernel32:KERNEL32.dll
 0002:000001c0       __imp_FreeEnvironmentStringsW 000000018009c1c0     kernel32:KERNEL32.dll
 0002:000001c8       __imp_SetEnvironmentVariableW 000000018009c1c8     kernel32:KERNEL32.dll
 0002:000001d0       __imp_GetDateFormatW       000000018009c1d0     kernel32:KERNEL32.dll
 0002:000001d8       __imp_GetTimeFormatW       000000018009c1d8     kernel32:KERNEL32.dll
 0002:000001e0       __imp_CompareStringW       000000018009c1e0     kernel32:KERNEL32.dll
 0002:000001e8       __imp_LCMapStringW         000000018009c1e8     kernel32:KERNEL32.dll
 0002:000001f0       __imp_GetLocaleInfoW       000000018009c1f0     kernel32:KERNEL32.dll
 0002:000001f8       __imp_IsValidLocale        000000018009c1f8     kernel32:KERNEL32.dll
 0002:00000200       __imp_GetUserDefaultLCID   000000018009c200     kernel32:KERNEL32.dll
 0002:00000208       __imp_EnumSystemLocalesW   000000018009c208     kernel32:KERNEL32.dll
 0002:00000210       __imp_GetProcessHeap       000000018009c210     kernel32:KERNEL32.dll
 0002:00000218       __imp_GetStdHandle         000000018009c218     kernel32:KERNEL32.dll
 0002:00000220       __imp_GetFileType          000000018009c220     kernel32:KERNEL32.dll
 0002:00000228       __imp_SetConsoleCtrlHandler 000000018009c228     kernel32:KERNEL32.dll
 0002:00000230       __imp_HeapFree             000000018009c230     kernel32:KERNEL32.dll
 0002:00000238       __imp_HeapReAlloc          000000018009c238     kernel32:KERNEL32.dll
 0002:00000240       __imp_HeapQueryInformation 000000018009c240     kernel32:KERNEL32.dll
 0002:00000248       __imp_WriteFile            000000018009c248     kernel32:KERNEL32.dll
 0002:00000250       __imp_OutputDebugStringW   000000018009c250     kernel32:KERNEL32.dll
 0002:00000258       __imp_WriteConsoleW        000000018009c258     kernel32:KERNEL32.dll
 0002:00000260       __imp_GetStringTypeW       000000018009c260     kernel32:KERNEL32.dll
 0002:00000268       __imp_SetStdHandle         000000018009c268     kernel32:KERNEL32.dll
 0002:00000270       __imp_GetFileSizeEx        000000018009c270     kernel32:KERNEL32.dll
 0002:00000278       __imp_SetFilePointerEx     000000018009c278     kernel32:KERNEL32.dll
 0002:00000280       __imp_FlushFileBuffers     000000018009c280     kernel32:KERNEL32.dll
 0002:00000288       __imp_GetConsoleOutputCP   000000018009c288     kernel32:KERNEL32.dll
 0002:00000290       __imp_GetConsoleMode       000000018009c290     kernel32:KERNEL32.dll
 0002:00000298       __imp_ReadFile             000000018009c298     kernel32:KERNEL32.dll
 0002:000002a0       __imp_ReadConsoleW         000000018009c2a0     kernel32:KERNEL32.dll
 0002:000002a8       __imp_CloseHandle          000000018009c2a8     kernel32:KERNEL32.dll
 0002:000002b0       __imp_RtlUnwind            000000018009c2b0     kernel32:KERNEL32.dll
 0002:000002b8       \177KERNEL32_NULL_THUNK_DATA 000000018009c2b8     kernel32:KERNEL32.dll
 0002:000002c0       __guard_check_icall_fptr   000000018009c2c0     LIBCMTD:guard_support.obj
 0002:000002c8       __guard_xfg_check_icall_fptr 000000018009c2c8     LIBCMTD:guard_support.obj
 0002:000002d0       __guard_dispatch_icall_fptr 000000018009c2d0     LIBCMTD:guard_support.obj
 0002:000002d8       __guard_xfg_dispatch_icall_fptr 000000018009c2d8     LIBCMTD:guard_support.obj
 0002:000002e0       __guard_xfg_table_dispatch_icall_fptr 000000018009c2e0     LIBCMTD:guard_support.obj
 0002:000002e8       __xc_a                     000000018009c2e8     LIBCMTD:initializers.obj
 0002:000002f0       __xc_z                     000000018009c2f0     LIBCMTD:initializers.obj
 0002:000002f8       __xi_a                     000000018009c2f8     LIBCMTD:initializers.obj
 0002:00000300       __acrt_multibyte_initializer 000000018009c300     libucrtd:multibyte_initializer.obj
 0002:00000308       __acrt_stdio_initializer   000000018009c308     libucrtd:stdio_initializer.obj
 0002:00000310       __acrt_tran_fma3_initializer 000000018009c310     libucrtd:fma3_initializer.obj
 0002:00000318       __xi_z                     000000018009c318     LIBCMTD:initializers.obj
 0002:00000320       __xp_a                     000000018009c320     LIBCMTD:initializers.obj
 0002:00000328       __acrt_locale_terminator   000000018009c328     libucrtd:locale_initializer.obj
 0002:00000330       __dcrt_console_output_terminator 000000018009c330     libucrtd:console_output_initializer.obj
 0002:00000338       __acrt_stdio_terminator    000000018009c338     libucrtd:stdio_initializer.obj
 0002:00000340       __xp_z                     000000018009c340     LIBCMTD:initializers.obj
 0002:00000348       __xt_a                     000000018009c348     LIBCMTD:initializers.obj
 0002:00000350       __xt_z                     000000018009c350     LIBCMTD:initializers.obj
 0002:00000360       __real@00000000            000000018009c360     engine.obj
 0002:00000364       __real@3f000000            000000018009c364     engine.obj
 0002:00000368       __real@3f400000            000000018009c368     engine.obj
 0002:0000036c       __real@3f800000            000000018009c36c     engine.obj
 0002:00000370       __real@3fb33333            000000018009c370     engine.obj
 0002:00000374       __real@40000000            000000018009c374     engine.obj
 0002:00000378       __real@42800000            000000018009c378     engine.obj
 0002:0000037c       __real@43160000            000000018009c37c     engine.obj
 0002:00000380       __real@432f0000            000000018009c380     engine.obj
 0002:00000384       __real@437f0000            000000018009c384     engine.obj
 0002:00000388       __real@bf800000            000000018009c388     engine.obj
 0002:00000390       __xmm@80000000800000008000000080000000 000000018009c390     engine.obj
 0002:000003a0       _pRawDllMain               000000018009c3a0     LIBCMTD:dll_dllmain.obj
 0002:000003a0       _pDefaultRawDllMain        000000018009c3a0     LIBCMTD:dll_dllmain.obj
 0002:000003c0       ??_C@_0EG@HLCHIJEL@d?3?2agent?2_work?24?2s?2src?2vctools?2@ 000000018009c3c0     libvcruntimed:std_type_info.obj
 0002:00000408       _pDestructExceptionObject  000000018009c408     libvcruntimed:ehhelpers.obj
 0002:00000b10       ??_C@_08EHJDFFNH@__based?$CI@ 000000018009cb10     libvcruntimed:undname.obj
 0002:00000b20       ??_C@_07KOLFKCDI@__cdecl@  000000018009cb20     libvcruntimed:undname.obj
 0002:00000b28       ??_C@_08GHMPAG@__pascal@   000000018009cb28     libvcruntimed:undname.obj
 0002:00000b38       ??_C@_09IFJBGAPI@__stdcall@ 000000018009cb38     libvcruntimed:undname.obj
 0002:00000b48       ??_C@_0L@NPHFGOKO@__thiscall@ 000000018009cb48     libvcruntimed:undname.obj
 0002:00000b58       ??_C@_0L@JMKHOMEK@__fastcall@ 000000018009cb58     libvcruntimed:undname.obj
 0002:00000b68       ??_C@_0N@BCKKPABJ@__vectorcall@ 000000018009cb68     libvcruntimed:undname.obj
 0002:00000b78       ??_C@_09HIJEGCPM@__clrcall@ 000000018009cb78     libvcruntimed:undname.obj
 0002:00000b84       ??_C@_06GHPCKEAG@__eabi@   000000018009cb84     libvcruntimed:undname.obj
 0002:00000b90       ??_C@_09IOPIDJLG@__swift_1@ 000000018009cb90     libvcruntimed:undname.obj
 0002:00000ba0       ??_C@_09KFNFGKHF@__swift_2@ 000000018009cba0     libvcruntimed:undname.obj
 0002:00000bb0       ??_C@_07JOMMBBKO@__ptr64@  000000018009cbb0     libvcruntimed:undname.obj
 0002:00000bb8       ??_C@_0L@PILCLIHE@__restrict@ 000000018009cbb8     libvcruntimed:undname.obj
 0002:00000bc8       ??_C@_0M@GFIIJFMG@__unaligned@ 000000018009cbc8     libvcruntimed:undname.obj
 0002:00000bd8       ??_C@_09DHDLOLLB@restrict?$CI@ 000000018009cbd8     libvcruntimed:undname.obj
 0002:00000be2       ??_C@_00CNPNBAHC@@         000000018009cbe2     libvcruntimed:undname.obj
 0002:00000be4       ??_C@_04NIHEBCM@?5new@     000000018009cbe4     libvcruntimed:undname.obj
 0002:00000bf0       ??_C@_07FPCDHGMM@?5delete@ 000000018009cbf0     libvcruntimed:undname.obj
 0002:00000bf8       ??_C@_01NEMOKFLO@?$DN@     000000018009cbf8     libvcruntimed:undname.obj
 0002:00000bfc       ??_C@_02GPIOPFAK@?$DO?$DO@ 000000018009cbfc     libvcruntimed:undname.obj
 0002:00000c00       ??_C@_02FODMEDOG@?$DM?$DM@ 000000018009cc00     libvcruntimed:undname.obj
 0002:00000c04       ??_C@_01DCLJPIOD@?$CB@     000000018009cc04     libvcruntimed:undname.obj
 0002:00000c08       ??_C@_02EGOFBIJA@?$DN?$DN@ 000000018009cc08     libvcruntimed:undname.obj
 0002:00000c0c       ??_C@_02FDNJECIE@?$CB?$DN@ 000000018009cc0c     libvcruntimed:undname.obj
 0002:00000c10       ??_C@_02GPECMEKF@?$FL?$FN@ 000000018009cc10     libvcruntimed:undname.obj
 0002:00000c18       ??_C@_08LHJFAFGD@operator@ 000000018009cc18     libvcruntimed:undname.obj
 0002:00000c24       ??_C@_02HBOOOICD@?9?$DO@   000000018009cc24     libvcruntimed:undname.obj
 0002:00000c28       ??_C@_01NBENCBCI@?$CK@     000000018009cc28     libvcruntimed:undname.obj
 0002:00000c2c       ??_C@_02ECNGHCIF@?$CL?$CL@ 000000018009cc2c     libvcruntimed:undname.obj
 0002:00000c30       ??_C@_02BAABKJLB@?9?9@     000000018009cc30     libvcruntimed:undname.obj
 0002:00000c34       ??_C@_01JOAMLHOP@?9@       000000018009cc34     libvcruntimed:undname.obj
 0002:00000c38       ??_C@_01MIFGBAGJ@?$CL@     000000018009cc38     libvcruntimed:undname.obj
 0002:00000c3c       ??_C@_01HNPIGOCE@?$CG@     000000018009cc3c     libvcruntimed:undname.obj
 0002:00000c40       ??_C@_03MNHNFDLC@?9?$DO?$CK@ 000000018009cc40     libvcruntimed:undname.obj
 0002:00000c44       ??_C@_01KMDKNFGN@?1@       000000018009cc44     libvcruntimed:undname.obj
 0002:00000c48       ??_C@_01FGNFDNOH@?$CF@     000000018009cc48     libvcruntimed:undname.obj
 0002:00000c4c       ??_C@_01MNNFJEPP@?$DM@     000000018009cc4c     libvcruntimed:undname.obj
 0002:00000c50       ??_C@_02EHCHHCKH@?$DM?$DN@ 000000018009cc50     libvcruntimed:undname.obj
 0002:00000c54       ??_C@_01PPODPGHN@?$DO@     000000018009cc54     libvcruntimed:undname.obj
 0002:00000c58       ??_C@_02EEKDKGMJ@?$DO?$DN@ 000000018009cc58     libvcruntimed:undname.obj
 0002:00000c5c       ??_C@_01IHBHIGKO@?0@       000000018009cc5c     libvcruntimed:undname.obj
 0002:00000c60       ??_C@_02HCKGKOFO@?$CI?$CJ@ 000000018009cc60     libvcruntimed:undname.obj
 0002:00000c64       ??_C@_01PJKLJHI@?$HO@      000000018009cc64     libvcruntimed:undname.obj
 0002:00000c68       ??_C@_01JKBOJNNK@?$FO@     000000018009cc68     libvcruntimed:undname.obj
 0002:00000c6c       ??_C@_01DNKMNLPK@?$HM@     000000018009cc6c     libvcruntimed:undname.obj
 0002:00000c70       ??_C@_02PPKAJPJL@?$CG?$CG@ 000000018009cc70     libvcruntimed:undname.obj
 0002:00000c74       ??_C@_02NONPIBCD@?$HM?$HM@ 000000018009cc74     libvcruntimed:undname.obj
 0002:00000c78       ??_C@_02FPIMKNGF@?$CK?$DN@ 000000018009cc78     libvcruntimed:undname.obj
 0002:00000c7c       ??_C@_02FOEOMHFC@?$CL?$DN@ 000000018009cc7c     libvcruntimed:undname.obj
 0002:00000c80       ??_C@_02FKMDLLOA@?9?$DN@   000000018009cc80     libvcruntimed:undname.obj
 0002:00000c84       ??_C@_02FJEHGPIO@?1?$DN@   000000018009cc84     libvcruntimed:undname.obj
 0002:00000c88       ??_C@_02FENAOKFI@?$CF?$DN@ 000000018009cc88     libvcruntimed:undname.obj
 0002:00000c8c       ??_C@_03IKFCCPFF@?$DO?$DO?$DN@ 000000018009cc8c     libvcruntimed:undname.obj
 0002:00000c90       ??_C@_03CDNPDDLA@?$DM?$DM?$DN@ 000000018009cc90     libvcruntimed:undname.obj
 0002:00000c94       ??_C@_02FGJGFEAB@?$CG?$DN@ 000000018009cc94     libvcruntimed:undname.obj
 0002:00000c98       ??_C@_02DHLNPPGH@?$HM?$DN@ 000000018009cc98     libvcruntimed:undname.obj
 0002:00000c9c       ??_C@_02MHEGNOJ@?$FO?$DN@  000000018009cc9c     libvcruntimed:undname.obj
 0002:00000ca0       ??_C@_09IFPLHPGF@?$GAvftable?8@ 000000018009cca0     libvcruntimed:undname.obj
 0002:00000cb0       ??_C@_09BLBHBJP@?$GAvbtable?8@ 000000018009ccb0     libvcruntimed:undname.obj
 0002:00000cc0       ??_C@_07FEEIOKP@?$GAvcall?8@ 000000018009ccc0     libvcruntimed:undname.obj
 0002:00000cc8       ??_C@_08LLFFHHDJ@?$GAtypeof?8@ 000000018009ccc8     libvcruntimed:undname.obj
 0002:00000cd8       ??_C@_0BF@KDPPACIK@?$GAlocal?5static?5guard?8@ 000000018009ccd8     libvcruntimed:undname.obj
 0002:00000cf0       ??_C@_08OBABFOLI@?$GAstring?8@ 000000018009ccf0     libvcruntimed:undname.obj
 0002:00000d00       ??_C@_0BD@JDLKDPAB@?$GAvbase?5destructor?8@ 000000018009cd00     libvcruntimed:undname.obj
 0002:00000d18       ??_C@_0BN@DEGPLNFK@?$GAvector?5deleting?5destructor?8@ 000000018009cd18     libvcruntimed:undname.obj
 0002:00000d38       ??_C@_0BO@OBMKPJIG@?$GAdefault?5constructor?5closure?8@ 000000018009cd38     libvcruntimed:undname.obj
 0002:00000d58       ??_C@_0BN@IMDCHIKM@?$GAscalar?5deleting?5destructor?8@ 000000018009cd58     libvcruntimed:undname.obj
 0002:00000d78       ??_C@_0BO@PFGOCPJJ@?$GAvector?5constructor?5iterator?8@ 000000018009cd78     libvcruntimed:undname.obj
 0002:00000d98       ??_C@_0BN@LFPFMEDL@?$GAvector?5destructor?5iterator?8@ 000000018009cd98     libvcruntimed:undname.obj
 0002:00000db8       ??_C@_0CE@IKBNEHA@?$GAvector?5vbase?5constructor?5itera@ 000000018009cdb8     libvcruntimed:undname.obj
 0002:00000de0       ??_C@_0BL@NILFHHPC@?$GAvirtual?5displacement?5map?8@ 000000018009cde0     libvcruntimed:undname.obj
 0002:00000e00       ??_C@_0CB@JONCMFFK@?$GAeh?5vector?5constructor?5iterator@ 000000018009ce00     libvcruntimed:undname.obj
 0002:00000e28       ??_C@_0CA@GCEOPDGL@?$GAeh?5vector?5destructor?5iterator?8@ 000000018009ce28     libvcruntimed:undname.obj
 0002:00000e48       ??_C@_0CH@OOJPLCPH@?$GAeh?5vector?5vbase?5constructor?5it@ 000000018009ce48     libvcruntimed:undname.obj
 0002:00000e70       ??_C@_0BL@LLKPOHJI@?$GAcopy?5constructor?5closure?8@ 000000018009ce70     libvcruntimed:undname.obj
 0002:00000e90       ??_C@_0BA@KBCDOMBN@?$GAudt?5returning?8@ 000000018009ce90     libvcruntimed:undname.obj
 0002:00000ea0       ??_C@_03KLGMFNMG@?$GAEH@   000000018009cea0     libvcruntimed:undname.obj
 0002:00000ea4       ??_C@_05KHLCHHI@?$GARTTI@  000000018009cea4     libvcruntimed:undname.obj
 0002:00000eb0       ??_C@_0BA@KKLDJDLB@?$GAlocal?5vftable?8@ 000000018009ceb0     libvcruntimed:undname.obj
 0002:00000ec0       ??_C@_0CE@IIHCMGGL@?$GAlocal?5vftable?5constructor?5clos@ 000000018009cec0     libvcruntimed:undname.obj
 0002:00000ee4       ??_C@_06FHBGPFGH@?5new?$FL?$FN@ 000000018009cee4     libvcruntimed:undname.obj
 0002:00000ef0       ??_C@_09LBNFPBCA@?5delete?$FL?$FN@ 000000018009cef0     libvcruntimed:undname.obj
 0002:00000f00       ??_C@_0P@HJKNJFNN@?$GAomni?5callsig?8@ 000000018009cf00     libvcruntimed:undname.obj
 0002:00000f10       ??_C@_0BL@CNOONJFP@?$GAplacement?5delete?5closure?8@ 000000018009cf10     libvcruntimed:undname.obj
 0002:00000f30       ??_C@_0BN@CKNJLHMB@?$GAplacement?5delete?$FL?$FN?5closure?8@ 000000018009cf30     libvcruntimed:undname.obj
 0002:00000f50       ??_C@_0CG@CFDHKGGD@?$GAmanaged?5vector?5constructor?5ite@ 000000018009cf50     libvcruntimed:undname.obj
 0002:00000f78       ??_C@_0CF@IMGKMJNO@?$GAmanaged?5vector?5destructor?5iter@ 000000018009cf78     libvcruntimed:undname.obj
 0002:00000fa0       ??_C@_0CG@HLDDJMAG@?$GAeh?5vector?5copy?5constructor?5ite@ 000000018009cfa0     libvcruntimed:undname.obj
 0002:00000fc8       ??_C@_0CM@FCBBDIGB@?$GAeh?5vector?5vbase?5copy?5construct@ 000000018009cfc8     libvcruntimed:undname.obj
 0002:00000ff8       ??_C@_0BL@CLIPGLGB@?$GAdynamic?5initializer?5for?5?8@ 000000018009cff8     libvcruntimed:undname.obj
 0002:00001018       ??_C@_0CB@PDBIFEP@?$GAdynamic?5atexit?5destructor?5for?5@ 000000018009d018     libvcruntimed:undname.obj
 0002:00001040       ??_C@_0CD@CGAJBKEJ@?$GAvector?5copy?5constructor?5iterat@ 000000018009d040     libvcruntimed:undname.obj
 0002:00001068       ??_C@_0CJ@GJELGAMM@?$GAvector?5vbase?5copy?5constructor?5@ 000000018009d068     libvcruntimed:undname.obj
 0002:00001098       ??_C@_0CL@FGIJHLCE@?$GAmanaged?5vector?5copy?5constructo@ 000000018009d098     libvcruntimed:undname.obj
 0002:000010c8       ??_C@_0BM@PMGGMLDN@?$GAlocal?5static?5thread?5guard?8@ 000000018009d0c8     libvcruntimed:undname.obj
 0002:000010e8       ??_C@_0N@BDNMDMOL@operator?5?$CC?$CC?5@ 000000018009d0e8     libvcruntimed:undname.obj
 0002:000010f8       ??_C@_0BC@GGEBGALA@operator?5co_await@ 000000018009d0f8     libvcruntimed:undname.obj
 0002:00001110       ??_C@_0M@GAAIMMOH@operator?$DM?$DN?$DO@ 000000018009d110     libvcruntimed:undname.obj
 0002:00001120       ??_C@_0BC@DAFEJGAK@?5Type?5Descriptor?8@ 000000018009d120     libvcruntimed:undname.obj
 0002:00001138       ??_C@_0BM@LDKODKLH@?5Base?5Class?5Descriptor?5at?5?$CI@ 000000018009d138     libvcruntimed:undname.obj
 0002:00001158       ??_C@_0BD@LGICGFMM@?5Base?5Class?5Array?8@ 000000018009d158     libvcruntimed:undname.obj
 0002:00001170       ??_C@_0BN@MECKDCOJ@?5Class?5Hierarchy?5Descriptor?8@ 000000018009d170     libvcruntimed:undname.obj
 0002:00001190       ??_C@_0BK@CFCOFLF@?5Complete?5Object?5Locator?8@ 000000018009d190     libvcruntimed:undname.obj
 0002:000011b0       ??_C@_0BG@JNJLAMPM@?$GAanonymous?5namespace?8@ 000000018009d1b0     libvcruntimed:undname.obj
 0002:000011c6       ?in_place@std@@3Uin_place_t@1@B 000000018009d1c6     libvcruntimed:undname.obj
 0002:000011c8       ??_C@_02DKCKIIND@?$CFs@    000000018009d1c8     libvcruntimed:undname.obj
 0002:000011cc       ??_C@_04HEJADOOB@CV?3?5@   000000018009d1cc     libvcruntimed:undname.obj
 0002:000011d4       ??_C@_03GDILBHBJ@$$h@      000000018009d1d4     libvcruntimed:undname.obj
 0002:000011d8       ??_C@_02MOLJINC@?3?3@      000000018009d1d8     libvcruntimed:undname.obj
 0002:000011e0       ??_C@_0BE@JAEOCHPE@template?9parameter?9@ 000000018009d1e0     libvcruntimed:undname.obj
 0002:000011f8       ??_C@_0BF@LNLGBBNL@?$GAtemplate?9parameter?9@ 000000018009d1f8     libvcruntimed:undname.obj
 0002:00001210       ??_C@_0O@KHGCOMHP@generic?9type?9@ 000000018009d210     libvcruntimed:undname.obj
 0002:00001220       ??_C@_0P@ODDENDLM@?$GAgeneric?9type?9@ 000000018009d220     libvcruntimed:undname.obj
 0002:00001230       ??_C@_02OHHJMEON@?8?8@     000000018009d230     libvcruntimed:undname.obj
 0002:00001238       ??_C@_0BN@IBLMMFAP@?$GAnon?9type?9template?9parameter@ 000000018009d238     libvcruntimed:undname.obj
 0002:00001258       ??_C@_03DLDNIBIK@?$CFlf@   000000018009d258     libvcruntimed:undname.obj
 0002:0000125c       ??_C@_04OFALKAJ@?$DP?$DP_C@ 000000018009d25c     libvcruntimed:undname.obj
 0002:00001264       ??_C@_03KHICJKCI@?4?4?4@   000000018009d264     libvcruntimed:undname.obj
 0002:00001268       ??_C@_04HIBGFPH@NULL@      000000018009d268     libvcruntimed:undname.obj
 0002:00001270       ??_C@_02DPKJAMEF@?$CFd@    000000018009d270     libvcruntimed:undname.obj
 0002:00001278       ??_C@_0BK@IHCCFNEL@?$GAtemplate?9type?9parameter?9@ 000000018009d278     libvcruntimed:undname.obj
 0002:00001298       ??_C@_0BK@OFCNNNKO@?$GAgeneric?9class?9parameter?9@ 000000018009d298     libvcruntimed:undname.obj
 0002:000012b8       ??_C@_0BL@NGJBLFIL@?$GAgeneric?9method?9parameter?9@ 000000018009d2b8     libvcruntimed:undname.obj
 0002:000012d8       ??_C@_07OHNGEDJK@nullptr@  000000018009d2d8     libvcruntimed:undname.obj
 0002:000012e0       ??_C@_04GKJNKENE@void@     000000018009d2e0     libvcruntimed:undname.obj
 0002:000012e8       ??_C@_0BE@EODMJLIF@?$GAtemplate?9parameter@ 000000018009d2e8     libvcruntimed:undname.obj
 0002:000012fc       ??_C@_03OPGICMGF@?$HN?8?5@ 000000018009d2fc     libvcruntimed:undname.obj
 0002:00001300       ??_C@_02IGFCGPIL@?$HN?8@   000000018009d300     libvcruntimed:undname.obj
 0002:00001308       ??_C@_0N@CBHHHENL@?$GAvtordispex?$HL@ 000000018009d308     libvcruntimed:undname.obj
 0002:00001318       ??_C@_0L@GHPFDFH@?$GAvtordisp?$HL@ 000000018009d318     libvcruntimed:undname.obj
 0002:00001328       ??_C@_0L@HNGCOGAE@?$GAadjustor?$HL@ 000000018009d328     libvcruntimed:undname.obj
 0002:00001338       ??_C@_0CB@KJDOOODE@?$GAlocal?5static?5destructor?5helper@ 000000018009d338     libvcruntimed:undname.obj
 0002:00001360       ??_C@_0DB@ILEFOCIJ@?$GAtemplate?5static?5data?5member?5co@ 000000018009d360     libvcruntimed:undname.obj
 0002:00001398       ??_C@_0DA@HGFJFBBE@?$GAtemplate?5static?5data?5member?5de@ 000000018009d398     libvcruntimed:undname.obj
 0002:000013c8       ??_C@_07PGOEDBHP@static?5@ 000000018009d3c8     libvcruntimed:undname.obj
 0002:000013d0       ??_C@_08NIEOINHE@virtual?5@ 000000018009d3d0     libvcruntimed:undname.obj
 0002:000013e0       ??_C@_09LAPHOOG@private?3?5@ 000000018009d3e0     libvcruntimed:undname.obj
 0002:000013f0       ??_C@_0M@GAIFPFIP@protected?3?5@ 000000018009d3f0     libvcruntimed:undname.obj
 0002:00001400       ??_C@_08GPDDCMKI@public?3?5@ 000000018009d400     libvcruntimed:undname.obj
 0002:00001410       ??_C@_08KJLFOPNE@?$FLthunk?$FN?3@ 000000018009d410     libvcruntimed:undname.obj
 0002:00001420       ??_C@_0M@DHNBOJMP@extern?5?$CCC?$CC?5@ 000000018009d420     libvcruntimed:undname.obj
 0002:0000142c       ??_C@_02KCKGHPCA@?$CJ?5@   000000018009d42c     libvcruntimed:undname.obj
 0002:00001430       ??_C@_05CIHEBHNO@char?5@   000000018009d430     libvcruntimed:undname.obj
 0002:00001438       ??_C@_06EHJMALKF@short?5@  000000018009d438     libvcruntimed:undname.obj
 0002:00001440       ??_C@_04LAHKHJMA@int?5@    000000018009d440     libvcruntimed:undname.obj
 0002:00001448       ??_C@_05CJIMAING@long?5@   000000018009d448     libvcruntimed:undname.obj
 0002:00001450       ??_C@_09EBBEKKIH@unsigned?5@ 000000018009d450     libvcruntimed:undname.obj
 0002:0000145c       ??_C@_05BEFAKPML@void?5@   000000018009d45c     libvcruntimed:undname.obj
 0002:00001468       ??_C@_09GAIEOBLP@volatile?5@ 000000018009d468     libvcruntimed:undname.obj
 0002:00001478       ??_C@_08PABEKFH@volatile@  000000018009d478     libvcruntimed:undname.obj
 0002:00001488       ??_C@_0BA@LKIJLKPP@std?3?3nullptr_t?5@ 000000018009d488     libvcruntimed:undname.obj
 0002:00001498       ??_C@_0P@GCOCNKDM@std?3?3nullptr_t@ 000000018009d498     libvcruntimed:undname.obj
 0002:000014a8       ??_C@_0L@EGPHHEKN@?$DMellipsis?$DO@ 000000018009d4a8     libvcruntimed:undname.obj
 0002:000014b4       ??_C@_04EENFHACM@?0?4?4?4@ 000000018009d4b4     libvcruntimed:undname.obj
 0002:000014c0       ??_C@_0M@ELJOJFFH@?0?$DMellipsis?$DO@ 000000018009d4c0     libvcruntimed:undname.obj
 0002:000014d0       ??_C@_09DNHFEOJI@?5noexcept@ 000000018009d4d0     libvcruntimed:undname.obj
 0002:000014dc       ??_C@_03PBJBJNON@cpu@      000000018009d4dc     libvcruntimed:undname.obj
 0002:000014e0       ??_C@_03DCBBJBAA@amp@      000000018009d4e0     libvcruntimed:undname.obj
 0002:000014e4       ??_C@_02KEGNLNML@?0?5@     000000018009d4e4     libvcruntimed:undname.obj
 0002:000014e8       ??_C@_04ENMBGAPA@char@     000000018009d4e8     libvcruntimed:undname.obj
 0002:000014f0       ??_C@_05BFKKPKCG@short@    000000018009d4f0     libvcruntimed:undname.obj
 0002:000014f8       ??_C@_03JBIPMCLC@int@      000000018009d4f8     libvcruntimed:undname.obj
 0002:000014fc       ??_C@_04GOKPGOLB@long@     000000018009d4fc     libvcruntimed:undname.obj
 0002:00001504       ??_C@_05KNFBNCOH@float@    000000018009d504     libvcruntimed:undname.obj
 0002:0000150c       ??_C@_06BNJCAIGJ@double@   000000018009d50c     libvcruntimed:undname.obj
 0002:00001514       ??_C@_04DDKJGDCM@bool@     000000018009d514     libvcruntimed:undname.obj
 0002:0000151c       ??_C@_06EBGKOKIG@__int8@   000000018009d51c     libvcruntimed:undname.obj
 0002:00001528       ??_C@_07ICFHOGAF@__int16@  000000018009d528     libvcruntimed:undname.obj
 0002:00001530       ??_C@_07OFLPPHGP@__int32@  000000018009d530     libvcruntimed:undname.obj
 0002:00001538       ??_C@_07LFCOJCAC@__int64@  000000018009d538     libvcruntimed:undname.obj
 0002:00001540       ??_C@_08GAHOLHEO@__int128@ 000000018009d540     libvcruntimed:undname.obj
 0002:00001550       ??_C@_09EEKGDCPH@?$DMunknown?$DO@ 000000018009d550     libvcruntimed:undname.obj
 0002:00001560       ??_C@_07CFHGOPCN@char8_t@  000000018009d560     libvcruntimed:undname.obj
 0002:00001568       ??_C@_08HBIPOFJB@char16_t@ 000000018009d568     libvcruntimed:undname.obj
 0002:00001578       ??_C@_08IECNCBKG@char32_t@ 000000018009d578     libvcruntimed:undname.obj
 0002:00001588       ??_C@_07CLGGIAMF@wchar_t@  000000018009d588     libvcruntimed:undname.obj
 0002:00001590       ??_C@_04HAPDLBFF@auto@     000000018009d590     libvcruntimed:undname.obj
 0002:00001598       ??_C@_0P@LHCGKIGK@decltype?$CIauto?$CJ@ 000000018009d598     libvcruntimed:undname.obj
 0002:000015a8       ??_C@_06GCICPBLB@__w64?5@  000000018009d5a8     libvcruntimed:undname.obj
 0002:000015b0       ??_C@_07NFANNNEC@UNKNOWN@  000000018009d5b0     libvcruntimed:undname.obj
 0002:000015b8       ??_C@_07EDHNAJHC@signed?5@ 000000018009d5b8     libvcruntimed:undname.obj
 0002:000015c0       ??_C@_05BNCCCJPP@const@    000000018009d5c0     libvcruntimed:undname.obj
 0002:000015c8       ??_C@_09EFNPDFFP@?5volatile@ 000000018009d5c8     libvcruntimed:undname.obj
 0002:000015d8       ??_C@_0P@GCIFDJCJ@?$GAunknown?5ecsu?8@ 000000018009d5d8     libvcruntimed:undname.obj
 0002:000015e8       ??_C@_06MOJHIBMG@union?5@  000000018009d5e8     libvcruntimed:undname.obj
 0002:000015f0       ??_C@_07DIBCDNGL@struct?5@ 000000018009d5f0     libvcruntimed:undname.obj
 0002:000015f8       ??_C@_06LJBABKPM@class?5@  000000018009d5f8     libvcruntimed:undname.obj
 0002:00001600       ??_C@_08KOFANOFK@coclass?5@ 000000018009d600     libvcruntimed:undname.obj
 0002:00001610       ??_C@_0N@DLIEFKNA@cointerface?5@ 000000018009d610     libvcruntimed:undname.obj
 0002:00001620       ??_C@_05LJGMCFOG@enum?5@   000000018009d620     libvcruntimed:undname.obj
 0002:00001628       ??_C@_06LIJLOJAG@const?5@  000000018009d628     libvcruntimed:undname.obj
 0002:00001630       ??_C@_02KJPKDIBN@?$CG?5@   000000018009d630     libvcruntimed:undname.obj
 0002:00001634       ??_C@_03PCKGMOPB@?$CG?$CG?5@ 000000018009d634     libvcruntimed:undname.obj
 0002:00001638       ??_C@_0M@EALIELKG@cli?3?3array?$DM@ 000000018009d638     libvcruntimed:undname.obj
 0002:00001648       ??_C@_0O@GKABPPIF@cli?3?3pin_ptr?$DM@ 000000018009d648     libvcruntimed:undname.obj
 0002:00001658       ??_C@_02GOGNNPBN@?$CJ?$FL@ 000000018009d658     libvcruntimed:undname.obj
 0002:0000165c       ??_C@_06EEGAIFAK@?$HLflat?$HN@ 000000018009d65c     libvcruntimed:undname.obj
 0002:00001664       ??_C@_05JIBOFOHK@?$HLfor?5@ 000000018009d664     libvcruntimed:undname.obj
 0002:0000166c       ??_C@_02MDINNEEG@s?5@      000000018009d66c     libvcruntimed:undname.obj
 0002:00001678       ??_7DNameNode@@6B@         000000018009d678     libvcruntimed:undname.obj
 0002:000016a0       ??_7charNode@@6B@          000000018009d6a0     libvcruntimed:undname.obj
 0002:000016c8       ??_7pcharNode@@6B@         000000018009d6c8     libvcruntimed:undname.obj
 0002:000016f0       ??_7pDNameNode@@6B@        000000018009d6f0     libvcruntimed:undname.obj
 0002:00001718       ??_7DNameStatusNode@@6B@   000000018009d718     libvcruntimed:undname.obj
 0002:00001740       ??_7pairNode@@6B@          000000018009d740     libvcruntimed:undname.obj
 0002:00001860       ??_C@_04OKOHEJBO@?5?$DP?$DP?5@ 000000018009d860     libvcruntimed:undname.obj
 0002:00001870       ?nodes@?1??make@DNameStatusNode@@SAPEBV2@W4DNameStatus@@@Z@4QBV2@B 000000018009d870     libvcruntimed:undname.obj
 0002:000018b0       ??_C@_0CG@LKEBOLJI@Cannot?5access?5value?5of?5empty?5op@ 000000018009d8b0     libvcruntimed:undname.obj
 0002:000018d8       ??_C@_0DL@HOGOEGBB@d?3?2agent?2_work?24?2s?2src?2vctools?2@ 000000018009d8d8     libvcruntimed:undname.obj
 0002:00001920       ??_C@_1HG@IBBAGMOJ@?$AAd?$AA?3?$AA?2?$AAa?$AAg?$AAe?$AAn?$AAt?$AA?2?$AA_?$AAw?$AAo?$AAr?$AAk?$AA?2@ 000000018009d920     libvcruntimed:undname.obj
 0002:000019a0       ??_C@_1FI@FIJPKNCH@?$AAs?$AAt?$AAd?$AA?3?$AA?3?$AAo?$AAp?$AAt?$AAi?$AAo?$AAn?$AAa?$AAl?$AA?$DM?$AAu@ 000000018009d9a0     libvcruntimed:undname.obj
 0002:00001a00       ??_C@_1FA@DPIDPJCB@?$AA?$CC?$AAC?$AAa?$AAn?$AAn?$AAo?$AAt?$AA?5?$AAa?$AAc?$AAc?$AAe?$AAs?$AAs?$AA?5@ 000000018009da00     libvcruntimed:undname.obj
 0002:00001a50       ??_C@_0EO@IMACLHHO@d?3?2agent?2_work?24?2s?2src?2vctools?2@ 000000018009da50     libvcruntimed:per_thread_data.obj
 0002:00001aa0       ?s_negLengthTab@FH4@@3QBCB 000000018009daa0     libvcruntimed:risctrnsctrl.obj
 0002:00001ab0       ?s_shiftTab@FH4@@3QBEB     000000018009dab0     libvcruntimed:risctrnsctrl.obj
 0002:00001c10       ??_C@_1DM@KHCHBNEB@?$AAa?$AAp?$AAi?$AA?9?$AAm?$AAs?$AA?9?$AAw?$AAi?$AAn?$AA?9?$AAc?$AAo?$AAr?$AAe@ 000000018009dc10     libvcruntimed:winapi_downlevel.obj
 0002:00001c50       ??_C@_1DK@LPPGFMPP@?$AAa?$AAp?$AAi?$AA?9?$AAm?$AAs?$AA?9?$AAw?$AAi?$AAn?$AA?9?$AAc?$AAo?$AAr?$AAe@ 000000018009dc50     libvcruntimed:winapi_downlevel.obj
 0002:00001c90       ??_C@_1BC@GDMECMAK@?$AAk?$AAe?$AAr?$AAn?$AAe?$AAl?$AA3?$AA2@ 000000018009dc90     libvcruntimed:winapi_downlevel.obj
 0002:00001ca8       ??_C@_17CNPHIMPH@?$AA?$CF?$AAl?$AAs@ 000000018009dca8     libvcruntimed:winapi_downlevel.obj
 0002:00001cb0       ??_C@_1BA@PFFKHIOG@?$AAa?$AAp?$AAi?$AA?9?$AAm?$AAs?$AA?9@ 000000018009dcb0     libvcruntimed:winapi_downlevel.obj
 0002:00001cc0       ??_C@_1EM@LBIFGLGH@?$AAc?$AAa?$AAc?$AAh?$AAe?$AAd?$AA_?$AAh?$AAa?$AAn?$AAd?$AAl?$AAe?$AA?5?$AA?$DN@ 000000018009dcc0     libvcruntimed:winapi_downlevel.obj
 0002:00001d10       ??_C@_1JO@IKCMCKBI@?$AAd?$AA?3?$AA?2?$AAa?$AAg?$AAe?$AAn?$AAt?$AA?2?$AA_?$AAw?$AAo?$AAr?$AAk?$AA?2@ 000000018009dd10     libvcruntimed:winapi_downlevel.obj
 0002:00001db0       ??_C@_1DI@MAHEDLDB@?$AAc?$AAa?$AAc?$AAh?$AAe?$AAd?$AA_?$AAh?$AAa?$AAn?$AAd?$AAl?$AAe?$AA?5?$AA?$DN@ 000000018009ddb0     libvcruntimed:winapi_downlevel.obj
 0002:00001df0       ??_C@_1FC@IBNCGNKL@?$AAc?$AAa?$AAc?$AAh?$AAe?$AAd?$AA_?$AAf?$AAp?$AA?5?$AA?$DN?$AA?$DN?$AA?5?$AAi?$AAn@ 000000018009ddf0     libvcruntimed:winapi_downlevel.obj
 0002:00001e48       ??_C@_1CI@GDJBAGLP@?$AAc?$AAa?$AAc?$AAh?$AAe?$AAd?$AA_?$AAf?$AAp?$AA?5?$AA?$DN?$AA?$DN?$AA?5?$AAn?$AAe@ 000000018009de48     libvcruntimed:winapi_downlevel.obj
 0002:00001e78       ??_C@_08KNHFBNJ@FlsAlloc@  000000018009de78     libvcruntimed:winapi_downlevel.obj
 0002:00001e90       ??_C@_07PEJMOBNF@FlsFree@  000000018009de90     libvcruntimed:winapi_downlevel.obj
 0002:00001ea0       ??_C@_0M@GDNOONDI@FlsGetValue@ 000000018009dea0     libvcruntimed:winapi_downlevel.obj
 0002:00001eb8       ??_C@_0M@JCPCPOEF@FlsSetValue@ 000000018009deb8     libvcruntimed:winapi_downlevel.obj
 0002:00001ed0       ??_C@_0BM@HCFOFFN@InitializeCriticalSectionEx@ 000000018009ded0     libvcruntimed:winapi_downlevel.obj
 0002:00001ef8       ??_7exception@std@@6B@     000000018009def8     libvcruntimed:frame.obj
 0002:00001f08       ??_C@_0BC@EOODALEL@Unknown?5exception@ 000000018009df08     libvcruntimed:frame.obj
 0002:00001f28       ??_7bad_exception@std@@6B@ 000000018009df28     libvcruntimed:frame.obj
 0002:00001f38       ??_C@_0O@DPKOEFFH@bad?5exception@ 000000018009df38     libvcruntimed:frame.obj
 0002:00001f50       ??_C@_1FK@OACNEHHA@?$AAt?$AAo?$AA?9?$AA?$DO?$AA_?$AAW?$AAh?$AAa?$AAt?$AA?5?$AA?$DN?$AA?$DN?$AA?5?$AAn?$AAu@ 000000018009df50     libvcruntimed:std_exception.obj
 0002:00001fb0       ??_C@_1IM@CBBCJHKN@?$AAd?$AA?3?$AA?2?$AAa?$AAg?$AAe?$AAn?$AAt?$AA?2?$AA_?$AAw?$AAo?$AAr?$AAk?$AA?2@ 000000018009dfb0     libvcruntimed:std_exception.obj
 0002:00002040       __acrt_exception_action_table 000000018009e040     libucrtd:exception_filter.obj
 0002:00002100       __acrt_signal_action_table_count 000000018009e100     libucrtd:exception_filter.obj
 0002:00002108       __acrt_signal_action_table_size 000000018009e108     libucrtd:exception_filter.obj
 0002:00002110       __acrt_signal_action_first_fpe_index 000000018009e110     libucrtd:exception_filter.obj
 0002:00002118       __acrt_signal_action_fpe_count 000000018009e118     libucrtd:exception_filter.obj
 0002:00002120       RtlNtPathSeperatorString   000000018009e120     libucrtd:exit.obj
 0002:00002130       ??_C@_13FPGAJAPJ@?$AA?2@   000000018009e130     libucrtd:exit.obj
 0002:00002138       RtlDosPathSeperatorsString 000000018009e138     libucrtd:exit.obj
 0002:00002148       ??_C@_15MNCACJLI@?$AA?2?$AA?1@ 000000018009e148     libucrtd:exit.obj
 0002:00002150       RtlAlternateDosPathSeperatorString 000000018009e150     libucrtd:exit.obj
 0002:00002160       ??_C@_13CGOKJPIL@?$AA?1@   000000018009e160     libucrtd:exit.obj
 0002:00002168       ??_C@_1BI@BGOHAHKC@?$AAm?$AAs?$AAc?$AAo?$AAr?$AAe?$AAe?$AA?4?$AAd?$AAl?$AAl@ 000000018009e168     libucrtd:exit.obj
 0002:00002180       ??_C@_0P@MIGLKIOC@CorExitProcess@ 000000018009e180     libucrtd:exit.obj
 0002:00002190       ??_C@_0DI@KNDIGDEP@minkernel?2crts?2ucrt?2src?2appcrt?2@ 000000018009e190     libucrtd:argv_parsing.obj
 0002:000021d0       ??_C@_1JO@PGBIJBAM@?$AAm?$AAo?$AAd?$AAe?$AA?5?$AA?$DN?$AA?$DN?$AA?5?$AA_?$AAc?$AAr?$AAt?$AA_?$AAa?$AAr@ 000000018009e1d0     libucrtd:argv_parsing.obj
 0002:00002270       ??_C@_1HA@JMLCANEE@?$AAm?$AAi?$AAn?$AAk?$AAe?$AAr?$AAn?$AAe?$AAl?$AA?2?$AAc?$AAr?$AAt?$AAs?$AA?2@ 000000018009e270     libucrtd:argv_parsing.obj
 0002:000022e0       ??_C@_1CM@LHOJELIC@?$AAc?$AAo?$AAm?$AAm?$AAo?$AAn?$AA_?$AAc?$AAo?$AAn?$AAf?$AAi?$AAg?$AAu?$AAr@ 000000018009e2e0     libucrtd:argv_parsing.obj
 0002:00002310       ??_C@_0EG@LEHKHOEH@minkernel?2crts?2ucrt?2src?2desktop@ 000000018009e310     libucrtd:environment_initialization.obj
 0002:00002360       ??_C@_1IM@IMOFFPLG@?$AAm?$AAi?$AAn?$AAk?$AAe?$AAr?$AAn?$AAe?$AAl?$AA?2?$AAc?$AAr?$AAt?$AAs?$AA?2@ 000000018009e360     libucrtd:environment_initialization.obj
 0002:000023f0       ??_C@_1CG@MNNNBNAK@?$AAc?$AAr?$AAe?$AAa?$AAt?$AAe?$AA_?$AAe?$AAn?$AAv?$AAi?$AAr?$AAo?$AAn?$AAm@ 000000018009e3f0     libucrtd:environment_initialization.obj
 0002:00002420       ??_C@_1HI@OOPIFFGA@?$AAt?$AAr?$AAa?$AAi?$AAt?$AAs?$AA?3?$AA?3?$AAt?$AAc?$AAs?$AAc?$AAp?$AAy?$AA_@ 000000018009e420     libucrtd:environment_initialization.obj
 0002:000024c0       ??_C@_0DC@NBHMIIKL@minkernel?2crts?2ucrt?2src?2appcrt?2@ 000000018009e4c0     libucrtd:onexit.obj
 0002:00002628       ??_C@_04HJMOFLDF@Free@     000000018009e628     libucrtd:debug_heap.obj
 0002:00002630       ??_C@_06EFAGIKOH@Normal@   000000018009e630     libucrtd:debug_heap.obj
 0002:00002638       ??_C@_03OGPFLFLO@CRT@      000000018009e638     libucrtd:debug_heap.obj
 0002:0000263c       ??_C@_06KMEJCCGM@Ignore@   000000018009e63c     libucrtd:debug_heap.obj
 0002:00002644       ??_C@_06PJIGMIJB@Client@   000000018009e644     libucrtd:debug_heap.obj
 0002:00002650       ??_C@_1CE@LJFEPPMP@?$AA_?$AAC?$AAr?$AAt?$AAC?$AAh?$AAe?$AAc?$AAk?$AAM?$AAe?$AAm?$AAo?$AAr?$AAy@ 000000018009e650     libucrtd:debug_heap.obj
 0002:00002680       ??_C@_1GG@OCLHPJPK@?$AAm?$AAi?$AAn?$AAk?$AAe?$AAr?$AAn?$AAe?$AAl?$AA?2?$AAc?$AAr?$AAt?$AAs?$AA?2@ 000000018009e680     libucrtd:debug_heap.obj
 0002:000026e8       ??_C@_0DF@BBEGIFEK@Client?5hook?5allocation?5failure?5@ 000000018009e6e8     libucrtd:debug_heap.obj
 0002:00002720       ??_C@_0CB@CCLOLAHO@Client?5hook?5allocation?5failure?4@ 000000018009e720     libucrtd:debug_heap.obj
 0002:00002748       ??_C@_0DC@JEMAGEKG@Error?3?5memory?5allocation?3?5bad?5m@ 000000018009e748     libucrtd:debug_heap.obj
 0002:00002780       ??_C@_0DI@KKJPDPGM@Client?5hook?5re?9allocation?5failu@ 000000018009e780     libucrtd:debug_heap.obj
 0002:000027b8       ??_C@_0CE@DOFMDOL@Client?5hook?5re?9allocation?5failu@ 000000018009e7b8     libucrtd:debug_heap.obj
 0002:000027e0       ??_C@_0FA@EFEIGJKG@Error?3?5memory?5allocation?3?5bad?5m@ 000000018009e7e0     libucrtd:debug_heap.obj
 0002:00002830       ??_C@_0EM@LGFLMAGJ@The?5Block?5at?50x?$CFp?5was?5allocated@ 000000018009e830     libucrtd:debug_heap.obj
 0002:00002880       ??_C@_1DM@DEDLGNML@?$AA_?$AAC?$AAr?$AAt?$AAI?$AAs?$AAV?$AAa?$AAl?$AAi?$AAd?$AAH?$AAe?$AAa?$AAp@ 000000018009e880     libucrtd:debug_heap.obj
 0002:000028c0       ??_C@_1PC@MCGKJLN@?$AAo?$AAl?$AAd?$AA_?$AAh?$AAe?$AAa?$AAd?$AA?9?$AA?$DO?$AA_?$AAl?$AAi?$AAn?$AAe@ 000000018009e8c0     libucrtd:debug_heap.obj
 0002:000029b8       ??_C@_0DA@HFBKENN@Error?3?5possible?5heap?5corruption@ 000000018009e9b8     libucrtd:debug_heap.obj
 0002:000029f0       ??_C@_1JM@MCMEPJEP@?$AAr?$AAe?$AAa?$AAl?$AAl?$AAo?$AAc?$AAa?$AAt?$AAi?$AAo?$AAn?$AA_?$AAi?$AAs@ 000000018009e9f0     libucrtd:debug_heap.obj
 0002:00002a90       ??_C@_1DM@LNOPKAIJ@?$AA_?$AA_?$AAa?$AAc?$AAr?$AAt?$AA_?$AAl?$AAa?$AAs?$AAt?$AA_?$AAb?$AAl?$AAo@ 000000018009ea90     libucrtd:debug_heap.obj
 0002:00002ad0       ??_C@_1DO@HABCJBHO@?$AA_?$AA_?$AAa?$AAc?$AAr?$AAt?$AA_?$AAf?$AAi?$AAr?$AAs?$AAt?$AA_?$AAb?$AAl@ 000000018009ead0     libucrtd:debug_heap.obj
 0002:00002b10       ??_C@_1CC@CKEAHJPH@?$AAb?$AAl?$AAo?$AAc?$AAk?$AA?5?$AA?$CB?$AA?$DN?$AA?5?$AAn?$AAu?$AAl?$AAl?$AAp?$AAt@ 000000018009eb10     libucrtd:debug_heap.obj
 0002:00002b38       ??_C@_1BI@HAPNGHDP@?$AA_?$AAe?$AAx?$AAp?$AAa?$AAn?$AAd?$AA_?$AAd?$AAb?$AAg@ 000000018009eb38     libucrtd:debug_heap.obj
 0002:00002b50       ??_C@_0EJ@HEIBCIMJ@The?5Block?5at?50x?$CFp?5was?5allocated@ 000000018009eb50     libucrtd:debug_heap.obj
 0002:00002ba0       ??_C@_0BL@KEIPLFAC@Client?5hook?5free?5failure?4?6@ 000000018009eba0     libucrtd:debug_heap.obj
 0002:00002bc0       ??_C@_1FA@KDNEBILF@?$AAi?$AAs?$AA_?$AAb?$AAl?$AAo?$AAc?$AAk?$AA_?$AAt?$AAy?$AAp?$AAe?$AA_?$AAv@ 000000018009ebc0     libucrtd:debug_heap.obj
 0002:00002c10       ??_C@_0KI@JGFOHMEB@HEAP?5CORRUPTION?5DETECTED?3?5befor@ 000000018009ec10     libucrtd:debug_heap.obj
 0002:00002cc0       ??_C@_0IK@PJCGLBOB@HEAP?5CORRUPTION?5DETECTED?3?5befor@ 000000018009ecc0     libucrtd:debug_heap.obj
 0002:00002d50       ??_C@_0KE@MBMNHHHN@HEAP?5CORRUPTION?5DETECTED?3?5after@ 000000018009ed50     libucrtd:debug_heap.obj
 0002:00002e00       ??_C@_0IG@LEMBDCJK@HEAP?5CORRUPTION?5DETECTED?3?5after@ 000000018009ee00     libucrtd:debug_heap.obj
 0002:00002e90       ??_C@_1OK@GFEOEJAF@?$AAh?$AAe?$AAa?$AAd?$AAe?$AAr?$AA?9?$AA?$DO?$AA_?$AAl?$AAi?$AAn?$AAe?$AA_?$AAn@ 000000018009ee90     libucrtd:debug_heap.obj
 0002:00002f80       ??_C@_1ME@GFALMLNA@?$AAh?$AAe?$AAa?$AAd?$AAe?$AAr?$AA?9?$AA?$DO?$AA_?$AAb?$AAl?$AAo?$AAc?$AAk?$AA_@ 000000018009ef80     libucrtd:debug_heap.obj
 0002:00003048       ??_C@_1DI@ILNOPEPI@?$AA_?$AA_?$AAa?$AAc?$AAr?$AAt?$AA_?$AAl?$AAa?$AAs?$AAt?$AA_?$AAb?$AAl?$AAo@ 000000018009f048     libucrtd:debug_heap.obj
 0002:00003080       ??_C@_1DK@KEHFGDIJ@?$AA_?$AA_?$AAa?$AAc?$AAr?$AAt?$AA_?$AAf?$AAi?$AAr?$AAs?$AAt?$AA_?$AAb?$AAl@ 000000018009f080     libucrtd:debug_heap.obj
 0002:000030c0       ??_C@_1BG@MBKOGDLD@?$AA_?$AAm?$AAs?$AAi?$AAz?$AAe?$AA_?$AAd?$AAb?$AAg@ 000000018009f0c0     libucrtd:debug_heap.obj
 0002:000030d8       ??_C@_07OHKEFPKJ@DAMAGED@  000000018009f0d8     libucrtd:debug_heap.obj
 0002:000030e0       ??_C@_0KA@IHNJJKPL@HEAP?5CORRUPTION?5DETECTED?3?5on?5to@ 000000018009f0e0     libucrtd:debug_heap.obj
 0002:00003180       ??_C@_0IC@BBJIOOJH@HEAP?5CORRUPTION?5DETECTED?3?5on?5to@ 000000018009f180     libucrtd:debug_heap.obj
 0002:00003210       ??_C@_0EG@DGJMPDBH@?$CFhs?5located?5at?50x?$CFp?5is?5?$CFIu?5byte@ 000000018009f210     libucrtd:debug_heap.obj
 0002:00003258       ??_C@_0CI@JMLBEDHJ@?$CFhs?5located?5at?50x?$CFp?5is?5?$CFIu?5byte@ 000000018009f258     libucrtd:debug_heap.obj
 0002:00003280       ??_C@_0EG@GPFHANHO@Cycle?5in?5block?5list?5detected?5wh@ 000000018009f280     libucrtd:debug_heap.obj
 0002:000032c8       ??_C@_0BJ@ELMAOCAJ@Heap?5validation?5failed?4?6@ 000000018009f2c8     libucrtd:debug_heap.obj
 0002:000032f0       ??_C@_1IE@BBIFDGEB@?$AAn?$AAe?$AAw?$AA_?$AAb?$AAi?$AAt?$AAs?$AA?5?$AA?$DN?$AA?$DN?$AA?5?$AA_?$AAC?$AAR@ 000000018009f2f0     libucrtd:debug_heap.obj
 0002:00003378       ??_C@_1BO@GJFDNMNF@?$AA_?$AAC?$AAr?$AAt?$AAS?$AAe?$AAt?$AAD?$AAb?$AAg?$AAF?$AAl?$AAa?$AAg@ 000000018009f378     libucrtd:debug_heap.obj
 0002:00003398       ??_C@_1CI@CEIBPAIA@?$AAc?$AAa?$AAl?$AAl?$AAb?$AAa?$AAc?$AAk?$AA?5?$AA?$CB?$AA?$DN?$AA?5?$AAn?$AAu?$AAl@ 000000018009f398     libucrtd:debug_heap.obj
 0002:000033c0       ??_C@_1DE@GJCKCKEC@?$AA_?$AAC?$AAr?$AAt?$AAD?$AAo?$AAF?$AAo?$AAr?$AAA?$AAl?$AAl?$AAC?$AAl?$AAi@ 000000018009f3c0     libucrtd:debug_heap.obj
 0002:000033f8       ??_C@_1CC@BBKMONGA@?$AAs?$AAt?$AAa?$AAt?$AAe?$AA?5?$AA?$CB?$AA?$DN?$AA?5?$AAn?$AAu?$AAl?$AAl?$AAp?$AAt@ 000000018009f3f8     libucrtd:debug_heap.obj
 0002:00003420       ??_C@_1CE@NJJKELF@?$AA_?$AAC?$AAr?$AAt?$AAM?$AAe?$AAm?$AAC?$AAh?$AAe?$AAc?$AAk?$AAp?$AAo?$AAi@ 000000018009f420     libucrtd:debug_heap.obj
 0002:00003448       ??_C@_0DP@LEFMFBOD@Bad?5memory?5block?5found?5at?50x?$CFp?4@ 000000018009f448     libucrtd:debug_heap.obj
 0002:00003488       ??_C@_0CB@EAAIGELO@Bad?5memory?5block?5found?5at?50x?$CFp?4@ 000000018009f488     libucrtd:debug_heap.obj
 0002:000034b0       ??_C@_1CE@PDIENACM@?$AA_?$AAC?$AAr?$AAt?$AAM?$AAe?$AAm?$AAD?$AAi?$AAf?$AAf?$AAe?$AAr?$AAe?$AAn@ 000000018009f4b0     libucrtd:debug_heap.obj
 0002:000034d8       ??_C@_1CK@FFKLBHMD@?$AAo?$AAl?$AAd?$AA_?$AAs?$AAt?$AAa?$AAt?$AAe?$AA?5?$AA?$CB?$AA?$DN?$AA?5?$AAn?$AAu@ 000000018009f4d8     libucrtd:debug_heap.obj
 0002:00003508       ??_C@_1CK@NJPPHDJP@?$AAn?$AAe?$AAw?$AA_?$AAs?$AAt?$AAa?$AAt?$AAe?$AA?5?$AA?$CB?$AA?$DN?$AA?5?$AAn?$AAu@ 000000018009f508     libucrtd:debug_heap.obj
 0002:00003534       ??_C@_05MKKEDADM@?$CF?42X?5@ 000000018009f534     libucrtd:debug_heap.obj
 0002:00003540       ??_C@_1CC@DIJAHFFJ@?$AAp?$AAr?$AAi?$AAn?$AAt?$AA_?$AAb?$AAl?$AAo?$AAc?$AAk?$AA_?$AAd?$AAa?$AAt@ 000000018009f540     libucrtd:debug_heap.obj
 0002:00003568       ??_C@_1BI@KALLJECN@?$AA?$CI?$AA?$CK?$AA_?$AAe?$AAr?$AAr?$AAn?$AAo?$AA?$CI?$AA?$CJ?$AA?$CJ@ 000000018009f568     libucrtd:debug_heap.obj
 0002:00003580       ??_C@_0BA@HJBKCELP@?5Data?3?5?$DM?$CFs?$DO?5?$CFs?6@ 000000018009f580     libucrtd:debug_heap.obj
 0002:00003590       ??_C@_0BE@KCIPKCIA@Dumping?5objects?5?9?$DO?6@ 000000018009f590     libucrtd:debug_heap.obj
 0002:000035a8       ??_C@_0BE@OIEFNFL@?$CDFile?5Error?$CD?$CI?$CFd?$CJ?5?3?5@ 000000018009f5a8     libucrtd:debug_heap.obj
 0002:000035c0       ??_C@_0L@JMEFFCCJ@?$CFhs?$CI?$CFd?$CJ?5?3?5@ 000000018009f5c0     libucrtd:debug_heap.obj
 0002:000035cc       ??_C@_06PKLGBFGM@?$HL?$CFld?$HN?5@ 000000018009f5cc     libucrtd:debug_heap.obj
 0002:000035d8       ??_C@_0DD@GHNAAKBB@client?5block?5at?50x?$CFp?0?5subtype?5?$CF@ 000000018009f5d8     libucrtd:debug_heap.obj
 0002:00003610       ??_C@_0CH@FAGDDGPN@normal?5block?5at?50x?$CFp?0?5?$CFIu?5bytes@ 000000018009f610     libucrtd:debug_heap.obj
 0002:00003638       ??_C@_0DA@MDLBNIBM@crt?5block?5at?50x?$CFp?0?5subtype?5?$CFx?0?5@ 000000018009f638     libucrtd:debug_heap.obj
 0002:00003668       ??_C@_0BH@GFGKJDCO@Object?5dump?5complete?4?6@ 000000018009f668     libucrtd:debug_heap.obj
 0002:00003680       ??_C@_0BI@JBFPOEJA@Detected?5memory?5leaks?$CB?6@ 000000018009f680     libucrtd:debug_heap.obj
 0002:00003698       ??_C@_1CM@MPNIBKGK@?$AA_?$AAC?$AAr?$AAt?$AAM?$AAe?$AAm?$AAD?$AAu?$AAm?$AAp?$AAS?$AAt?$AAa?$AAt@ 000000018009f698     libucrtd:debug_heap.obj
 0002:000036c8       ??_C@_0BO@DACNIABB@?$CFId?5bytes?5in?5?$CFId?5?$CFhs?5Blocks?4?6@ 000000018009f6c8     libucrtd:debug_heap.obj
 0002:000036e8       ??_C@_0CB@BLHDAFNE@Largest?5number?5used?3?5?$CFId?5bytes?4@ 000000018009f6e8     libucrtd:debug_heap.obj
 0002:00003710       ??_C@_0BP@DEDHGGGI@Total?5allocations?3?5?$CFId?5bytes?4?6@ 000000018009f710     libucrtd:debug_heap.obj
 0002:00003730       ??_C@_1CM@JKMDHENJ@?$AAI?$AAS?$AA_?$AA2?$AA_?$AAP?$AAO?$AAW?$AA_?$AAN?$AA?$CI?$AAa?$AAl?$AAi?$AAg@ 000000018009f730     libucrtd:debug_heap.obj
 0002:00003760       ??_C@_1DG@DONCJBBJ@?$AA_?$AAa?$AAl?$AAi?$AAg?$AAn?$AAe?$AAd?$AA_?$AAo?$AAf?$AAf?$AAs?$AAe?$AAt@ 000000018009f760     libucrtd:debug_heap.obj
 0002:00003798       ??_C@_1DK@LFLKFPDA@?$AAo?$AAf?$AAf?$AAs?$AAe?$AAt?$AA?5?$AA?$DN?$AA?$DN?$AA?5?$AA0?$AA?5?$AA?$HM?$AA?$HM?$AA?5@ 000000018009f798     libucrtd:debug_heap.obj
 0002:000037e0       ??_C@_0EI@NDNJMAJK@The?5block?5at?50x?$CFp?5was?5not?5alloc@ 000000018009f7e0     libucrtd:debug_heap.obj
 0002:00003828       ??_C@_0DL@PGHMMKNE@Damage?5before?50x?$CFp?5which?5was?5al@ 000000018009f828     libucrtd:debug_heap.obj
 0002:00003868       ??_C@_1DI@NINIKFFK@?$AA_?$AAa?$AAl?$AAi?$AAg?$AAn?$AAe?$AAd?$AA_?$AAo?$AAf?$AAf?$AAs?$AAe?$AAt@ 000000018009f868     libucrtd:debug_heap.obj
 0002:000038a0       ??_C@_1CG@CEGMHIMN@?$AA_?$AAa?$AAl?$AAi?$AAg?$AAn?$AAe?$AAd?$AA_?$AAm?$AAs?$AAi?$AAz?$AAe?$AA_@ 000000018009f8a0     libucrtd:debug_heap.obj
 0002:000038d0       ??_C@_0EF@PGELACII@The?5block?5at?50x?$CFp?5was?5not?5alloc@ 000000018009f8d0     libucrtd:debug_heap.obj
 0002:00003920       ??_C@_1GI@BBAEIKL@?$AA?$CI?$AA?$CI?$AAd?$AAe?$AAs?$AAt?$AAi?$AAn?$AAa?$AAt?$AAi?$AAo?$AAn?$AA?$CJ?$AA?$CJ@ 000000018009f920     libucrtd:strcpy_s.obj
 0002:00003990       ??_C@_1HI@PBJPCEBC@?$AAm?$AAi?$AAn?$AAk?$AAe?$AAr?$AAn?$AAe?$AAl?$AA?2?$AAc?$AAr?$AAt?$AAs?$AA?2@ 000000018009f990     libucrtd:strcpy_s.obj
 0002:00003a08       ??_C@_1CA@FHIAGDFH@?$AAc?$AAo?$AAm?$AAm?$AAo?$AAn?$AA_?$AAt?$AAc?$AAs?$AAc?$AAp?$AAy?$AA_?$AAs@ 000000018009fa08     libucrtd:strcpy_s.obj
 0002:00003a28       ??_C@_1CK@EIOKGPJL@?$AA?$CI?$AA?$CI?$AA?$CI?$AAs?$AAo?$AAu?$AAr?$AAc?$AAe?$AA?$CJ?$AA?$CJ?$AA?$CJ?$AA?5?$AA?$CB?$AA?$DN@ 000000018009fa28     libucrtd:strcpy_s.obj
 0002:00003a58       ??_C@_1CI@HCPHDDLE@?$AAB?$AAu?$AAf?$AAf?$AAe?$AAr?$AA?5?$AAi?$AAs?$AA?5?$AAt?$AAo?$AAo?$AA?5?$AAs@ 000000018009fa58     libucrtd:strcpy_s.obj
 0002:00003a80       ??_C@_1DM@MADKGDLO@?$AA?$CI?$AAL?$AA?$CC?$AAB?$AAu?$AAf?$AAf?$AAe?$AAr?$AA?5?$AAi?$AAs?$AA?5?$AAt?$AAo@ 000000018009fa80     libucrtd:strcpy_s.obj
 0002:00003ac0       ??_C@_1DA@LLLMNMKI@?$AAa?$AAb?$AAo?$AAr?$AAt?$AA?$CI?$AA?$CJ?$AA?5?$AAh?$AAa?$AAs?$AA?5?$AAb?$AAe?$AAe@ 000000018009fac0     libucrtd:abort.obj
 0002:00003af0       ?standard_lookup_table_spectre@__crt_stdio_output@@3V?$spectre_mitigated_lookup_table@Ustate_transition_pair@__crt_stdio_output@@$0IA@@1@B 000000018009faf0     libucrtd:output.obj
 0002:00003ef0       ?format_validation_lookup_table_spectre@__crt_stdio_output@@3V?$spectre_mitigated_lookup_table@Ustate_transition_pair@__crt_stdio_output@@$0IA@@1@B 000000018009fef0     libucrtd:output.obj
 0002:000042f0       ??_C@_1BDG@MKBKGHOH@?$AA?$CI?$AA?5?$AA?$CI?$AA_?$AAS?$AAt?$AAr?$AAe?$AAa?$AAm?$AA?4?$AAi?$AAs?$AA_?$AAs@ 00000001800a02f0     libucrtd:output.obj
 0002:00004430       ??_C@_1GC@LCDLABEA@?$AAm?$AAi?$AAn?$AAk?$AAe?$AAr?$AAn?$AAe?$AAl?$AA?2?$AAc?$AAr?$AAt?$AAs?$AA?2@ 00000001800a0430     libucrtd:output.obj
 0002:000044a0       ??_C@_1II@DIIMCJOK@?$AA_?$AA_?$AAa?$AAc?$AAr?$AAt?$AA_?$AAs?$AAt?$AAd?$AAi?$AAo?$AA_?$AAc?$AAh@ 00000001800a04a0     libucrtd:output.obj
 0002:00004528       ??_C@_1CE@JLIJLEKO@?$AAs?$AAt?$AAr?$AAe?$AAa?$AAm?$AA?5?$AA?$CB?$AA?$DN?$AA?5?$AAn?$AAu?$AAl?$AAl?$AAp@ 00000001800a0528     libucrtd:output.obj
 0002:00004550       ??_C@_1GA@MOBAPGIO@?$AAm?$AAi?$AAn?$AAk?$AAe?$AAr?$AAn?$AAe?$AAl?$AA?2?$AAc?$AAr?$AAt?$AAs?$AA?2@ 00000001800a0550     libucrtd:output.obj
 0002:000045b0       ??_C@_1CA@GELIJBMC@?$AAc?$AAo?$AAm?$AAm?$AAo?$AAn?$AA_?$AAv?$AAf?$AAp?$AAr?$AAi?$AAn?$AAt?$AAf@ 00000001800a05b0     libucrtd:output.obj
 0002:000045d0       ??_C@_1CE@EAKLPBKK@?$AAf?$AAo?$AAr?$AAm?$AAa?$AAt?$AA?5?$AA?$CB?$AA?$DN?$AA?5?$AAn?$AAu?$AAl?$AAl?$AAp@ 00000001800a05d0     libucrtd:output.obj
 0002:000045f8       ??_C@_1CA@PIMGHCEK@?$AAc?$AAo?$AAm?$AAm?$AAo?$AAn?$AA_?$AAv?$AAs?$AAp?$AAr?$AAi?$AAn?$AAt?$AAf@ 00000001800a05f8     libucrtd:output.obj
 0002:00004620       ??_C@_1EO@EGEEFEFM@?$AAb?$AAu?$AAf?$AAf?$AAe?$AAr?$AA_?$AAc?$AAo?$AAu?$AAn?$AAt?$AA?5?$AA?$DN?$AA?$DN@ 00000001800a0620     libucrtd:output.obj
 0002:00004670       ??_C@_1CE@JEILLNB@?$AAc?$AAo?$AAm?$AAm?$AAo?$AAn?$AA_?$AAv?$AAs?$AAp?$AAr?$AAi?$AAn?$AAt?$AAf@ 00000001800a0670     libucrtd:output.obj
 0002:000046a0       ??_C@_1EM@OAFHAOLH@?$AAb?$AAu?$AAf?$AAf?$AAe?$AAr?$AA?5?$AA?$CB?$AA?$DN?$AA?5?$AAn?$AAu?$AAl?$AAl?$AAp@ 00000001800a06a0     libucrtd:output.obj
 0002:000046f0       ??_C@_1DA@HPBFKMEB@?$AA?$CI?$AA?$CC?$AAB?$AAu?$AAf?$AAf?$AAe?$AAr?$AA?5?$AAt?$AAo?$AAo?$AA?5?$AAs?$AAm@ 00000001800a06f0     libucrtd:output.obj
 0002:00004720       ??_C@_1CG@LHFJHFBB@?$AAc?$AAo?$AAm?$AAm?$AAo?$AAn?$AA_?$AAv?$AAs?$AAn?$AAp?$AAr?$AAi?$AAn?$AAt@ 00000001800a0720     libucrtd:output.obj
 0002:00004748       ??_C@_1CM@JOIJBMEM@?$AA_?$AAf?$AAo?$AAr?$AAm?$AAa?$AAt?$AA_?$AAi?$AAt?$AA?5?$AA?$CB?$AA?$DN?$AA?5?$AAn@ 00000001800a0748     libucrtd:output.obj
 0002:00004780       ??_C@_1HA@DMAAKIJP@?$AAm?$AAi?$AAn?$AAk?$AAe?$AAr?$AAn?$AAe?$AAl?$AA?2?$AAc?$AAr?$AAt?$AAs?$AA?2@ 00000001800a0780     libucrtd:output.obj
 0002:000047f0       ??_C@_1BNA@OIIAGHJI@?$AA_?$AA_?$AAc?$AAr?$AAt?$AA_?$AAs?$AAt?$AAd?$AAi?$AAo?$AA_?$AAo?$AAu?$AAt@ 00000001800a07f0     libucrtd:output.obj
 0002:000049c0       ??_C@_1EE@DMAIGNBG@?$AA?$CI?$AA?$CC?$AAI?$AAn?$AAc?$AAo?$AAr?$AAr?$AAe?$AAc?$AAt?$AA?5?$AAf?$AAo?$AAr@ 00000001800a09c0     libucrtd:output.obj
 0002:00004a10       ??_C@_1BLI@EGFICANE@?$AA_?$AA_?$AAc?$AAr?$AAt?$AA_?$AAs?$AAt?$AAd?$AAi?$AAo?$AA_?$AAo?$AAu?$AAt@ 00000001800a0a10     libucrtd:output.obj
 0002:00004bd0       ??_C@_1BLI@IKDKMDHI@?$AA_?$AA_?$AAc?$AAr?$AAt?$AA_?$AAs?$AAt?$AAd?$AAi?$AAo?$AA_?$AAo?$AAu?$AAt@ 00000001800a0bd0     libucrtd:output.obj
 0002:00004d90       ??_C@_1BKA@DNADAJMC@?$AA_?$AA_?$AAc?$AAr?$AAt?$AA_?$AAs?$AAt?$AAd?$AAi?$AAo?$AA_?$AAo?$AAu?$AAt@ 00000001800a0d90     libucrtd:output.obj
 0002:00004f30       ??_C@_1BNA@HGLCOOBP@?$AA_?$AA_?$AAc?$AAr?$AAt?$AA_?$AAs?$AAt?$AAd?$AAi?$AAo?$AA_?$AAo?$AAu?$AAt@ 00000001800a0f30     libucrtd:output.obj
 0002:00005100       ??_C@_1BLI@FOCNEPKJ@?$AA_?$AA_?$AAc?$AAr?$AAt?$AA_?$AAs?$AAt?$AAd?$AAi?$AAo?$AA_?$AAo?$AAu?$AAt@ 00000001800a1100     libucrtd:output.obj
 0002:000052c0       ??_C@_1BMK@CPBKHDIH@?$AA_?$AA_?$AAc?$AAr?$AAt?$AA_?$AAs?$AAt?$AAd?$AAi?$AAo?$AA_?$AAo?$AAu?$AAt@ 00000001800a12c0     libucrtd:output.obj
 0002:00005490       ??_C@_1BLC@PMCLHHAE@?$AA_?$AA_?$AAc?$AAr?$AAt?$AA_?$AAs?$AAt?$AAd?$AAi?$AAo?$AA_?$AAo?$AAu?$AAt@ 00000001800a1490     libucrtd:output.obj
 0002:00005650       ??_C@_1BLI@EEAAPJD@?$AA_?$AA_?$AAc?$AAr?$AAt?$AA_?$AAs?$AAt?$AAd?$AAi?$AAo?$AA_?$AAo?$AAu?$AAt@ 00000001800a1650     libucrtd:output.obj
 0002:00005810       ??_C@_1BKA@IIAAOGBO@?$AA_?$AA_?$AAc?$AAr?$AAt?$AA_?$AAs?$AAt?$AAd?$AAi?$AAo?$AA_?$AAo?$AAu?$AAt@ 00000001800a1810     libucrtd:output.obj
 0002:000059b0       ??_C@_1FG@OBJBDPAC@?$AA?$CI?$AA?$CC?$AAN?$AA?5?$AAl?$AAe?$AAn?$AAg?$AAt?$AAh?$AA?5?$AAm?$AAo?$AAd?$AAi@ 00000001800a19b0     libucrtd:output.obj
 0002:00005a10       ??_C@_1BOA@BMEGDMHF@?$AA_?$AA_?$AAc?$AAr?$AAt?$AA_?$AAs?$AAt?$AAd?$AAi?$AAo?$AA_?$AAo?$AAu?$AAt@ 00000001800a1a10     libucrtd:output.obj
 0002:00005bf0       ??_C@_1EC@GJPNJDCN@?$AA_?$AAl?$AAe?$AAn?$AAg?$AAt?$AAh?$AA?5?$AA?$DN?$AA?$DN?$AA?5?$AAl?$AAe?$AAn?$AAg@ 00000001800a1bf0     libucrtd:output.obj
 0002:00005c38       ??_C@_1DG@CEJKFDMO@?$AAs?$AAt?$AAa?$AAt?$AAe?$AA_?$AAc?$AAa?$AAs?$AAe?$AA_?$AAn?$AAo?$AAr?$AAm@ 00000001800a1c38     libucrtd:output.obj
 0002:00005c70       ??_C@_1BOE@IPKNNOEE@?$AA_?$AA_?$AAc?$AAr?$AAt?$AA_?$AAs?$AAt?$AAd?$AAi?$AAo?$AA_?$AAo?$AAu?$AAt@ 00000001800a1c70     libucrtd:output.obj
 0002:00005e60       ??_C@_1IC@NLEOMCDL@?$AA_?$AAt?$AAy?$AAp?$AAe?$AA_?$AAi?$AAn?$AAd?$AAe?$AAx?$AA?5?$AA?$DO?$AA?$DN?$AA?5@ 00000001800a1e60     libucrtd:output.obj
 0002:00005ef0       ??_C@_1BFK@KNCMELHH@?$AA_?$AA_?$AAc?$AAr?$AAt?$AA_?$AAs?$AAt?$AAd?$AAi?$AAo?$AA_?$AAo?$AAu?$AAt@ 00000001800a1ef0     libucrtd:output.obj
 0002:00006050       ??_C@_1FK@BCPANIEK@?$AA?$CI?$AA?$CC?$AAM?$AAi?$AAs?$AAs?$AAi?$AAn?$AAg?$AA?5?$AAp?$AAo?$AAs?$AAi?$AAt@ 00000001800a2050     libucrtd:output.obj
 0002:000060b0       ??_C@_1BEI@IHLBHMLJ@?$AA_?$AA_?$AAc?$AAr?$AAt?$AA_?$AAs?$AAt?$AAd?$AAi?$AAo?$AA_?$AAo?$AAu?$AAt@ 00000001800a20b0     libucrtd:output.obj
 0002:00006200       ??_C@_1BMI@LKDDDFDL@?$AA_?$AA_?$AAc?$AAr?$AAt?$AA_?$AAs?$AAt?$AAd?$AAi?$AAo?$AA_?$AAo?$AAu?$AAt@ 00000001800a2200     libucrtd:output.obj
 0002:000063d0       ??_C@_1BMM@JGEKEBKL@?$AA_?$AA_?$AAc?$AAr?$AAt?$AA_?$AAs?$AAt?$AAd?$AAi?$AAo?$AA_?$AAo?$AAu?$AAt@ 00000001800a23d0     libucrtd:output.obj
 0002:000065a0       ??_C@_1BEO@ODGKIOAL@?$AA_?$AA_?$AAc?$AAr?$AAt?$AA_?$AAs?$AAt?$AAd?$AAi?$AAo?$AA_?$AAo?$AAu?$AAt@ 00000001800a25a0     libucrtd:output.obj
 0002:000066f0       ??_C@_1BDM@GFCGMNL@?$AA_?$AA_?$AAc?$AAr?$AAt?$AA_?$AAs?$AAt?$AAd?$AAi?$AAo?$AA_?$AAo?$AAu?$AAt@ 00000001800a26f0     libucrtd:output.obj
 0002:00006830       ??_C@_1BMI@KBPJOJJI@?$AA_?$AA_?$AAc?$AAr?$AAt?$AA_?$AAs?$AAt?$AAd?$AAi?$AAo?$AA_?$AAo?$AAu?$AAt@ 00000001800a2830     libucrtd:output.obj
 0002:00006a00       ??_C@_1BMM@PGHHMNDM@?$AA_?$AA_?$AAc?$AAr?$AAt?$AA_?$AAs?$AAt?$AAd?$AAi?$AAo?$AA_?$AAo?$AAu?$AAt@ 00000001800a2a00     libucrtd:output.obj
 0002:00006bd0       ??_C@_1CI@DDKMNCPP@?$AA_?$AAc?$AAo?$AAn?$AAt?$AAe?$AAx?$AAt?$AA?5?$AA?$CB?$AA?$DN?$AA?5?$AAn?$AAu?$AAl@ 00000001800a2bd0     libucrtd:output.obj
 0002:00006c00       ??_C@_1HK@IIPGOADH@?$AA_?$AA_?$AAc?$AAr?$AAt?$AA_?$AAs?$AAt?$AAd?$AAi?$AAo?$AA_?$AAo?$AAu?$AAt@ 00000001800a2c00     libucrtd:output.obj
 0002:00006c80       ??_C@_1BLA@MEDMHIOH@?$AA_?$AA_?$AAc?$AAr?$AAt?$AA_?$AAs?$AAt?$AAd?$AAi?$AAo?$AA_?$AAo?$AAu?$AAt@ 00000001800a2c80     libucrtd:output.obj
 0002:00006e30       ??_C@_1BLE@LCKPBJON@?$AA_?$AA_?$AAc?$AAr?$AAt?$AA_?$AAs?$AAt?$AAd?$AAi?$AAo?$AA_?$AAo?$AAu?$AAt@ 00000001800a2e30     libucrtd:output.obj
 0002:00006ff0       ??_C@_1HE@IACOMEJF@?$AA_?$AA_?$AAc?$AAr?$AAt?$AA_?$AAs?$AAt?$AAd?$AAi?$AAo?$AA_?$AAo?$AAu?$AAt@ 00000001800a2ff0     libucrtd:output.obj
 0002:00007070       ??_C@_1BOA@CBIEMBEE@?$AA_?$AA_?$AAc?$AAr?$AAt?$AA_?$AAs?$AAt?$AAd?$AAi?$AAo?$AA_?$AAo?$AAu?$AAt@ 00000001800a3070     libucrtd:output.obj
 0002:00007250       ??_C@_1BOE@NLICFINO@?$AA_?$AA_?$AAc?$AAr?$AAt?$AA_?$AAs?$AAt?$AAd?$AAi?$AAo?$AA_?$AAo?$AAu?$AAt@ 00000001800a3250     libucrtd:output.obj
 0002:00007440       ??_C@_1BFK@IOIDDMPJ@?$AA_?$AA_?$AAc?$AAr?$AAt?$AA_?$AAs?$AAt?$AAd?$AAi?$AAo?$AA_?$AAo?$AAu?$AAt@ 00000001800a3440     libucrtd:output.obj
 0002:000075a0       ??_C@_1BEI@JNJAFAD@?$AA_?$AA_?$AAc?$AAr?$AAt?$AA_?$AAs?$AAt?$AAd?$AAi?$AAo?$AA_?$AAo?$AAu?$AAt@ 00000001800a35a0     libucrtd:output.obj
 0002:000076f0       ??_C@_1BMI@PKGBOKJK@?$AA_?$AA_?$AAc?$AAr?$AAt?$AA_?$AAs?$AAt?$AAd?$AAi?$AAo?$AA_?$AAo?$AAu?$AAt@ 00000001800a36f0     libucrtd:output.obj
 0002:000078c0       ??_C@_1BMM@BLBJDDIA@?$AA_?$AA_?$AAc?$AAr?$AAt?$AA_?$AAs?$AAt?$AAd?$AAi?$AAo?$AA_?$AAo?$AAu?$AAt@ 00000001800a38c0     libucrtd:output.obj
 0002:00007a90       ??_C@_1BEO@JEHLMMKB@?$AA_?$AA_?$AAc?$AAr?$AAt?$AA_?$AAs?$AAt?$AAd?$AAi?$AAo?$AA_?$AAo?$AAu?$AAt@ 00000001800a3a90     libucrtd:output.obj
 0002:00007be0       ??_C@_1BDM@FDOLKCHK@?$AA_?$AA_?$AAc?$AAr?$AAt?$AA_?$AAs?$AAt?$AAd?$AAi?$AAo?$AA_?$AAo?$AAu?$AAt@ 00000001800a3be0     libucrtd:output.obj
 0002:00007d20       ??_C@_1BNK@ONPHCEAM@?$AA_?$AA_?$AAc?$AAr?$AAt?$AA_?$AAs?$AAt?$AAd?$AAi?$AAo?$AA_?$AAo?$AAu?$AAt@ 00000001800a3d20     libucrtd:output.obj
 0002:00007f00       ??_C@_1BNO@LMMLJOOJ@?$AA_?$AA_?$AAc?$AAr?$AAt?$AA_?$AAs?$AAt?$AAd?$AAi?$AAo?$AA_?$AAo?$AAu?$AAt@ 00000001800a3f00     libucrtd:output.obj
 0002:000080e0       ??_C@_1GC@BNMHNGKM@?$AA_?$AAs?$AAt?$AAa?$AAt?$AAe?$AA?5?$AA?$DN?$AA?$DN?$AA?5?$AAs?$AAt?$AAa?$AAt?$AAe@ 00000001800a40e0     libucrtd:output.obj
 0002:00008150       ??_C@_1BEC@FNIGNBHI@?$AA_?$AA_?$AAc?$AAr?$AAt?$AA_?$AAs?$AAt?$AAd?$AAi?$AAo?$AA_?$AAo?$AAu?$AAt@ 00000001800a4150     libucrtd:output.obj
 0002:000082a0       ??_C@_1BMC@DAENMDAD@?$AA_?$AA_?$AAc?$AAr?$AAt?$AA_?$AAs?$AAt?$AAd?$AAi?$AAo?$AA_?$AAo?$AAu?$AAt@ 00000001800a42a0     libucrtd:output.obj
 0002:00008470       ??_C@_1BMG@KOENKAMB@?$AA_?$AA_?$AAc?$AAr?$AAt?$AA_?$AAs?$AAt?$AAd?$AAi?$AAo?$AA_?$AAo?$AAu?$AAt@ 00000001800a4470     libucrtd:output.obj
 0002:00008640       ??_C@_1BDG@PLANJEFE@?$AA_?$AA_?$AAc?$AAr?$AAt?$AA_?$AAs?$AAt?$AAd?$AAi?$AAo?$AA_?$AAo?$AAu?$AAt@ 00000001800a4640     libucrtd:output.obj
 0002:00008780       ??_C@_1BMI@DNMDMAAN@?$AA_?$AA_?$AAc?$AAr?$AAt?$AA_?$AAs?$AAt?$AAd?$AAi?$AAo?$AA_?$AAo?$AAu?$AAt@ 00000001800a4780     libucrtd:output.obj
 0002:00008950       ??_C@_1BMM@JHGFKAND@?$AA_?$AA_?$AAc?$AAr?$AAt?$AA_?$AAs?$AAt?$AAd?$AAi?$AAo?$AA_?$AAo?$AAu?$AAt@ 00000001800a4950     libucrtd:output.obj
 0002:00008b20       ??_C@_1CA@ONEGMNAN@?$AA_?$AAs?$AAt?$AAr?$AAe?$AAa?$AAm?$AA?4?$AAv?$AAa?$AAl?$AAi?$AAd?$AA?$CI?$AA?$CJ@ 00000001800a4b20     libucrtd:output.obj
 0002:00008b40       ??_C@_1HK@MPBCDOK@?$AA_?$AA_?$AAc?$AAr?$AAt?$AA_?$AAs?$AAt?$AAd?$AAi?$AAo?$AA_?$AAo?$AAu?$AAt@ 00000001800a4b40     libucrtd:output.obj
 0002:00008bc0       ??_C@_1BLA@GJNGKGIK@?$AA_?$AA_?$AAc?$AAr?$AAt?$AA_?$AAs?$AAt?$AAd?$AAi?$AAo?$AA_?$AAo?$AAu?$AAt@ 00000001800a4bc0     libucrtd:output.obj
 0002:00008d70       ??_C@_1BLE@PAACOKDK@?$AA_?$AA_?$AAc?$AAr?$AAt?$AA_?$AAs?$AAt?$AAd?$AAi?$AAo?$AA_?$AAo?$AAu?$AAt@ 00000001800a4d70     libucrtd:output.obj
 0002:00008f30       ??_C@_1HE@FGKHNBNL@?$AA_?$AA_?$AAc?$AAr?$AAt?$AA_?$AAs?$AAt?$AAd?$AAi?$AAo?$AA_?$AAo?$AAu?$AAt@ 00000001800a4f30     libucrtd:output.obj
 0002:00008fb0       ??_C@_1BEC@NDOOKIMC@?$AA_?$AA_?$AAc?$AAr?$AAt?$AA_?$AAs?$AAt?$AAd?$AAi?$AAo?$AA_?$AAo?$AAu?$AAt@ 00000001800a4fb0     libucrtd:output.obj
 0002:00009100       ??_C@_1EK@PNGFDECN@?$AA?$CI?$AA?$CC?$AA?8?$AAn?$AA?8?$AA?5?$AAf?$AAo?$AAr?$AAm?$AAa?$AAt?$AA?5?$AAs?$AAp@ 00000001800a5100     libucrtd:output.obj
 0002:00009150       ??_C@_1BNI@OPBGCNOB@?$AA_?$AA_?$AAc?$AAr?$AAt?$AA_?$AAs?$AAt?$AAd?$AAi?$AAo?$AA_?$AAo?$AAu?$AAt@ 00000001800a5150     libucrtd:output.obj
 0002:00009330       ??_C@_1EO@GHKFGFKL@?$AA?$CI?$AA?$CC?$AAI?$AAn?$AAv?$AAa?$AAl?$AAi?$AAd?$AA?5?$AAi?$AAn?$AAt?$AAe?$AAg@ 00000001800a5330     libucrtd:output.obj
 0002:00009380       ??_C@_1JC@PMCLKCOC@?$AAp?$AAr?$AAe?$AAc?$AAi?$AAs?$AAi?$AAo?$AAn?$AA_?$AAi?$AAn?$AAd?$AAe?$AAx@ 00000001800a5380     libucrtd:output.obj
 0002:00009420       ??_C@_1BAG@GKCGGKOF@?$AA_?$AA_?$AAc?$AAr?$AAt?$AA_?$AAs?$AAt?$AAd?$AAi?$AAo?$AA_?$AAo?$AAu?$AAt@ 00000001800a5420     libucrtd:output.obj
 0002:00009530       ??_C@_1IC@KGDNLBNC@?$AAw?$AAi?$AAd?$AAt?$AAh?$AA_?$AAi?$AAn?$AAd?$AAe?$AAx?$AA?5?$AA?$DO?$AA?$DN?$AA?5@ 00000001800a5530     libucrtd:output.obj
 0002:000095c0       ??_C@_1BAK@CDLANFGA@?$AA_?$AA_?$AAc?$AAr?$AAt?$AA_?$AAs?$AAt?$AAd?$AAi?$AAo?$AA_?$AAo?$AAu?$AAt@ 00000001800a55c0     libucrtd:output.obj
 0002:000096d0       ??_C@_1BDG@KOLEFKPF@?$AA_?$AA_?$AAc?$AAr?$AAt?$AA_?$AAs?$AAt?$AAd?$AAi?$AAo?$AA_?$AAo?$AAu?$AAt@ 00000001800a56d0     libucrtd:output.obj
 0002:00009810       ??_C@_1BMA@CBPCAOAB@?$AA_?$AA_?$AAc?$AAr?$AAt?$AA_?$AAs?$AAt?$AAd?$AAi?$AAo?$AA_?$AAo?$AAu?$AAt@ 00000001800a5810     libucrtd:output.obj
 0002:000099d0       ??_C@_1PK@KBJLALII@?$AA_?$AA_?$AAc?$AAr?$AAt?$AA_?$AAs?$AAt?$AAd?$AAi?$AAo?$AA_?$AAo?$AAu?$AAt@ 00000001800a59d0     libucrtd:output.obj
 0002:00009ad0       ??_C@_1PO@PODEJAGE@?$AA_?$AA_?$AAc?$AAr?$AAt?$AA_?$AAs?$AAt?$AAd?$AAi?$AAo?$AA_?$AAo?$AAu?$AAt@ 00000001800a5ad0     libucrtd:output.obj
 0002:00009bd0       ??_C@_1BMA@IHIBOLMD@?$AA_?$AA_?$AAc?$AAr?$AAt?$AA_?$AAs?$AAt?$AAd?$AAi?$AAo?$AA_?$AAo?$AAu?$AAt@ 00000001800a5bd0     libucrtd:output.obj
 0002:00009d90       ??_C@_1BKI@CJEIGDAI@?$AA_?$AA_?$AAc?$AAr?$AAt?$AA_?$AAs?$AAt?$AAd?$AAi?$AAo?$AA_?$AAo?$AAu?$AAt@ 00000001800a5d90     libucrtd:output.obj
 0002:00009f40       ??_C@_1BNI@IMOCDBNE@?$AA_?$AA_?$AAc?$AAr?$AAt?$AA_?$AAs?$AAt?$AAd?$AAi?$AAo?$AA_?$AAo?$AAu?$AAt@ 00000001800a5f40     libucrtd:output.obj
 0002:0000a120       ??_C@_1BAG@DOFNHDMF@?$AA_?$AA_?$AAc?$AAr?$AAt?$AA_?$AAs?$AAt?$AAd?$AAi?$AAo?$AA_?$AAo?$AAu?$AAt@ 00000001800a6120     libucrtd:output.obj
 0002:0000a230       ??_C@_1BAK@DALINHHB@?$AA_?$AA_?$AAc?$AAr?$AAt?$AA_?$AAs?$AAt?$AAd?$AAi?$AAo?$AA_?$AAo?$AAu?$AAt@ 00000001800a6230     libucrtd:output.obj
 0002:0000a340       ??_C@_1BMA@GACGPGHN@?$AA_?$AA_?$AAc?$AAr?$AAt?$AA_?$AAs?$AAt?$AAd?$AAi?$AAo?$AA_?$AAo?$AAu?$AAt@ 00000001800a6340     libucrtd:output.obj
 0002:0000a500       ??_C@_1PK@KBJECIEM@?$AA_?$AA_?$AAc?$AAr?$AAt?$AA_?$AAs?$AAt?$AAd?$AAi?$AAo?$AA_?$AAo?$AAu?$AAt@ 00000001800a6500     libucrtd:output.obj
 0002:0000a600       ??_C@_1PO@LKIIANED@?$AA_?$AA_?$AAc?$AAr?$AAt?$AA_?$AAs?$AAt?$AAd?$AAi?$AAo?$AA_?$AAo?$AAu?$AAt@ 00000001800a6600     libucrtd:output.obj
 0002:0000a700       ??_C@_1BNC@DONELHFF@?$AA_?$AA_?$AAc?$AAr?$AAt?$AA_?$AAs?$AAt?$AAd?$AAi?$AAo?$AA_?$AAo?$AAu?$AAt@ 00000001800a6700     libucrtd:output.obj
 0002:0000a8e0       ??_C@_1BLK@BGFMMAPO@?$AA_?$AA_?$AAc?$AAr?$AAt?$AA_?$AAs?$AAt?$AAd?$AAi?$AAo?$AA_?$AAo?$AAu?$AAt@ 00000001800a68e0     libucrtd:output.obj
 0002:0000aaa0       ??_C@_1BMA@PGOJAHFP@?$AA_?$AA_?$AAc?$AAr?$AAt?$AA_?$AAs?$AAt?$AAd?$AAi?$AAo?$AA_?$AAo?$AAu?$AAt@ 00000001800a6aa0     libucrtd:output.obj
 0002:0000ac60       ??_C@_1BKI@NDKBCDGP@?$AA_?$AA_?$AAc?$AAr?$AAt?$AA_?$AAs?$AAt?$AAd?$AAi?$AAo?$AA_?$AAo?$AAu?$AAt@ 00000001800a6c60     libucrtd:output.obj
 0002:0000ae08       ??_C@_1O@CEDCILHN@?$AA?$CI?$AAn?$AAu?$AAl?$AAl?$AA?$CJ@ 00000001800a6e08     libucrtd:output.obj
 0002:0000ae18       ??_C@_06OJHGLDPL@?$CInull?$CJ@ 00000001800a6e18     libucrtd:output.obj
 0002:0000ae20       ??_C@_1BOE@LIBLDKPN@?$AA_?$AA_?$AAc?$AAr?$AAt?$AA_?$AAs?$AAt?$AAd?$AAi?$AAo?$AA_?$AAo?$AAu?$AAt@ 00000001800a6e20     libucrtd:output.obj
 0002:0000b010       ??_C@_1LO@HECDHMMI@?$AAi?$AAs?$AA_?$AAp?$AAo?$AAs?$AAi?$AAt?$AAi?$AAo?$AAn?$AAa?$AAl?$AA_?$AAp@ 00000001800a7010     libucrtd:output.obj
 0002:0000b0d0       ??_C@_1BCI@OBMMNJKK@?$AA_?$AA_?$AAc?$AAr?$AAt?$AA_?$AAs?$AAt?$AAd?$AAi?$AAo?$AA_?$AAo?$AAu?$AAt@ 00000001800a70d0     libucrtd:output.obj
 0002:0000b200       ??_C@_1FE@IAFJEKN@?$AA_?$AAt?$AAy?$AAp?$AAe?$AA_?$AAi?$AAn?$AAd?$AAe?$AAx?$AA?5?$AA?$DO?$AA?$DN?$AA?5@ 00000001800a7200     libucrtd:output.obj
 0002:0000b260       ??_C@_1BCC@GJLKCHIG@?$AA_?$AA_?$AAc?$AAr?$AAt?$AA_?$AAs?$AAt?$AAd?$AAi?$AAo?$AA_?$AAo?$AAu?$AAt@ 00000001800a7260     libucrtd:output.obj
 0002:0000b390       ??_C@_1BMM@KBPMKFBC@?$AA_?$AA_?$AAc?$AAr?$AAt?$AA_?$AAs?$AAt?$AAd?$AAi?$AAo?$AA_?$AAo?$AAu?$AAt@ 00000001800a7390     libucrtd:output.obj
 0002:0000b560       ??_C@_1CK@LGDCECDH@?$AA_?$AAf?$AAo?$AAr?$AAm?$AAa?$AAt?$AA_?$AAc?$AAh?$AAa?$AAr?$AA?5?$AA?$CB?$AA?$DN@ 00000001800a7560     libucrtd:output.obj
 0002:0000b590       ??_C@_1BNI@EDCGAPJB@?$AA_?$AA_?$AAc?$AAr?$AAt?$AA_?$AAs?$AAt?$AAd?$AAi?$AAo?$AA_?$AAo?$AAu?$AAt@ 00000001800a7590     libucrtd:output.obj
 0002:0000b770       ??_C@_1BBM@CBBAFMPJ@?$AA_?$AA_?$AAc?$AAr?$AAt?$AA_?$AAs?$AAt?$AAd?$AAi?$AAo?$AA_?$AAo?$AAu?$AAt@ 00000001800a7770     libucrtd:output.obj
 0002:0000b890       ??_C@_1BBG@KIHCHFIM@?$AA_?$AA_?$AAc?$AAr?$AAt?$AA_?$AAs?$AAt?$AAd?$AAi?$AAo?$AA_?$AAo?$AAu?$AAt@ 00000001800a7890     libucrtd:output.obj
 0002:0000b9b0       ??_C@_1BMM@MBMBCJIF@?$AA_?$AA_?$AAc?$AAr?$AAt?$AA_?$AAs?$AAt?$AAd?$AAi?$AAo?$AA_?$AAo?$AAu?$AAt@ 00000001800a79b0     libucrtd:output.obj
 0002:0000bb80       ??_C@_1BLE@IFBJPNFE@?$AA_?$AA_?$AAc?$AAr?$AAt?$AA_?$AAs?$AAt?$AAd?$AAi?$AAo?$AA_?$AAo?$AAu?$AAt@ 00000001800a7b80     libucrtd:output.obj
 0002:0000bd40       ??_C@_1BMA@FANDDEHK@?$AA_?$AA_?$AAc?$AAr?$AAt?$AA_?$AAs?$AAt?$AAd?$AAi?$AAo?$AA_?$AAo?$AAu?$AAt@ 00000001800a7d40     libucrtd:output.obj
 0002:0000bf00       ??_C@_1BOE@OMDELMGH@?$AA_?$AA_?$AAc?$AAr?$AAt?$AA_?$AAs?$AAt?$AAd?$AAi?$AAo?$AA_?$AAo?$AAu?$AAt@ 00000001800a7f00     libucrtd:output.obj
 0002:0000c0f0       ??_C@_1BCI@ILAANKJG@?$AA_?$AA_?$AAc?$AAr?$AAt?$AA_?$AAs?$AAt?$AAd?$AAi?$AAo?$AA_?$AAo?$AAu?$AAt@ 00000001800a80f0     libucrtd:output.obj
 0002:0000c220       ??_C@_1BCC@PDNLFIHK@?$AA_?$AA_?$AAc?$AAr?$AAt?$AA_?$AAs?$AAt?$AAd?$AAi?$AAo?$AA_?$AAo?$AAu?$AAt@ 00000001800a8220     libucrtd:output.obj
 0002:0000c350       ??_C@_1BMM@CMKPNHDJ@?$AA_?$AA_?$AAc?$AAr?$AAt?$AA_?$AAs?$AAt?$AAd?$AAi?$AAo?$AA_?$AAo?$AAu?$AAt@ 00000001800a8350     libucrtd:output.obj
 0002:0000c520       ??_C@_1BNI@EJPCEBAG@?$AA_?$AA_?$AAc?$AAr?$AAt?$AA_?$AAs?$AAt?$AAd?$AAi?$AAo?$AA_?$AAo?$AAu?$AAt@ 00000001800a8520     libucrtd:output.obj
 0002:0000c700       ??_C@_1BBM@LLHBCDAF@?$AA_?$AA_?$AAc?$AAr?$AAt?$AA_?$AAs?$AAt?$AAd?$AAi?$AAo?$AA_?$AAo?$AAu?$AAt@ 00000001800a8700     libucrtd:output.obj
 0002:0000c820       ??_C@_1BBG@JLLDGFML@?$AA_?$AA_?$AAc?$AAr?$AAt?$AA_?$AAs?$AAt?$AAd?$AAi?$AAo?$AA_?$AAo?$AAu?$AAt@ 00000001800a8820     libucrtd:output.obj
 0002:0000c940       ??_C@_1BNO@ILHNHKFA@?$AA_?$AA_?$AAc?$AAr?$AAt?$AA_?$AAs?$AAt?$AAd?$AAi?$AAo?$AA_?$AAo?$AAu?$AAt@ 00000001800a8940     libucrtd:output.obj
 0002:0000cb20       ??_C@_1BMG@JJPLEEHI@?$AA_?$AA_?$AAc?$AAr?$AAt?$AA_?$AAs?$AAt?$AAd?$AAi?$AAo?$AA_?$AAo?$AAu?$AAt@ 00000001800a8b20     libucrtd:output.obj
 0002:0000ccf0       ??_C@_1BNC@BAMNIOCM@?$AA_?$AA_?$AAc?$AAr?$AAt?$AA_?$AAs?$AAt?$AAd?$AAi?$AAo?$AA_?$AAo?$AAu?$AAt@ 00000001800a8cf0     libucrtd:output.obj
 0002:0000ced0       ??_C@_1BMM@KANDEEGK@?$AA_?$AA_?$AAc?$AAr?$AAt?$AA_?$AAs?$AAt?$AAd?$AAi?$AAo?$AA_?$AAo?$AAu?$AAt@ 00000001800a8ed0     libucrtd:output.obj
 0002:0000d0a0       ??_C@_1BLE@MHLEAOID@?$AA_?$AA_?$AAc?$AAr?$AAt?$AA_?$AAs?$AAt?$AAd?$AAi?$AAo?$AA_?$AAo?$AAu?$AAt@ 00000001800a90a0     libucrtd:output.obj
 0002:0000d260       ??_C@_1BMA@MEBEEDJE@?$AA_?$AA_?$AAc?$AAr?$AAt?$AA_?$AAs?$AAt?$AAd?$AAi?$AAo?$AA_?$AAo?$AAu?$AAt@ 00000001800a9260     libucrtd:output.obj
 0002:0000d420       ??_C@_1BCA@HCPCJFGA@?$AA_?$AA_?$AAc?$AAr?$AAt?$AA_?$AAs?$AAt?$AAd?$AAi?$AAo?$AA_?$AAo?$AAu?$AAt@ 00000001800a9420     libucrtd:output.obj
 0002:0000d540       ??_C@_0DI@KIFBHMNO@minkernel?2crts?2ucrt?2inc?2corecrt@ 00000001800a9540     libucrtd:output.obj
 0002:0000d580       ??_C@_1BBE@IBPNPIIM@?$AA_?$AA_?$AAc?$AAr?$AAt?$AA_?$AAs?$AAt?$AAd?$AAi?$AAo?$AA_?$AAo?$AAu?$AAt@ 00000001800a9580     libucrtd:output.obj
 0002:0000d6a0       ??_C@_1BCA@FCGNBIN@?$AA_?$AA_?$AAc?$AAr?$AAt?$AA_?$AAs?$AAt?$AAd?$AAi?$AAo?$AA_?$AAo?$AAu?$AAt@ 00000001800a96a0     libucrtd:output.obj
 0002:0000d7c0       ??_C@_1BBE@FLKADCDA@?$AA_?$AA_?$AAc?$AAr?$AAt?$AA_?$AAs?$AAt?$AAd?$AAi?$AAo?$AA_?$AAo?$AAu?$AAt@ 00000001800a97c0     libucrtd:output.obj
 0002:0000d8e0       ??_C@_1BMK@JGIBNIA@?$AA_?$AA_?$AAc?$AAr?$AAt?$AA_?$AAs?$AAt?$AAd?$AAi?$AAo?$AA_?$AAo?$AAu?$AAt@ 00000001800a98e0     libucrtd:output.obj
 0002:0000dab0       ??_C@_1BLC@INKIGOCN@?$AA_?$AA_?$AAc?$AAr?$AAt?$AA_?$AAs?$AAt?$AAd?$AAi?$AAo?$AA_?$AAo?$AAu?$AAt@ 00000001800a9ab0     libucrtd:output.obj
 0002:0000dc70       ??_C@_1BNK@KHNJGCCP@?$AA_?$AA_?$AAc?$AAr?$AAt?$AA_?$AAs?$AAt?$AAd?$AAi?$AAo?$AA_?$AAo?$AAu?$AAt@ 00000001800a9c70     libucrtd:output.obj
 0002:0000de50       ??_C@_1BNO@OHFFMOOJ@?$AA_?$AA_?$AAc?$AAr?$AAt?$AA_?$AAs?$AAt?$AAd?$AAi?$AAo?$AA_?$AAo?$AAu?$AAt@ 00000001800a9e50     libucrtd:output.obj
 0002:0000e030       ??_C@_1BMC@FAGJFBLI@?$AA_?$AA_?$AAc?$AAr?$AAt?$AA_?$AAs?$AAt?$AAd?$AAi?$AAo?$AA_?$AAo?$AAu?$AAt@ 00000001800aa030     libucrtd:output.obj
 0002:0000e200       ??_C@_1BMG@CGPDIFDK@?$AA_?$AA_?$AAc?$AAr?$AAt?$AA_?$AAs?$AAt?$AAd?$AAi?$AAo?$AA_?$AAo?$AAu?$AAt@ 00000001800aa200     libucrtd:output.obj
 0002:0000e3d0       ??_C@_1BNC@OHPDPPJK@?$AA_?$AA_?$AAc?$AAr?$AAt?$AA_?$AAs?$AAt?$AAd?$AAi?$AAo?$AA_?$AAo?$AAu?$AAt@ 00000001800aa3d0     libucrtd:output.obj
 0002:0000e5b0       ??_C@_1BLK@FOLFMPJH@?$AA_?$AA_?$AAc?$AAr?$AAt?$AA_?$AAs?$AAt?$AAd?$AAi?$AAo?$AA_?$AAo?$AAu?$AAt@ 00000001800aa5b0     libucrtd:output.obj
 0002:0000e770       ??_C@_1BNO@NAODCKFA@?$AA_?$AA_?$AAc?$AAr?$AAt?$AA_?$AAs?$AAt?$AAd?$AAi?$AAo?$AA_?$AAo?$AAu?$AAt@ 00000001800aa770     libucrtd:output.obj
 0002:0000e950       ??_C@_1BMG@BBEFGBID@?$AA_?$AA_?$AAc?$AAr?$AAt?$AA_?$AAs?$AAt?$AAd?$AAi?$AAo?$AA_?$AAo?$AAu?$AAt@ 00000001800aa950     libucrtd:output.obj
 0002:0000eb20       ??_C@_1BNC@JPKLPOHO@?$AA_?$AA_?$AAc?$AAr?$AAt?$AA_?$AAs?$AAt?$AAd?$AAi?$AAo?$AA_?$AAo?$AAu?$AAt@ 00000001800aab20     libucrtd:output.obj
 0002:0000ed10       ??_C@_1BA@GLMCNLEM@?$AAW?$AAa?$AAr?$AAn?$AAi?$AAn?$AAg@ 00000001800aad10     libucrtd:dbgrpt.obj
 0002:0000ed20       ??_C@_1M@ILHOPKA@?$AAE?$AAr?$AAr?$AAo?$AAr@ 00000001800aad20     libucrtd:dbgrpt.obj
 0002:0000ed30       ??_C@_1CC@CGHMNGDG@?$AAA?$AAs?$AAs?$AAe?$AAr?$AAt?$AAi?$AAo?$AAn?$AA?5?$AAF?$AAa?$AAi?$AAl?$AAe@ 00000001800aad30     libucrtd:dbgrpt.obj
 0002:0000ed60       ??_C@_1OG@PMPPFHAF@?$AA?6?$AA?6?$AAF?$AAo?$AAr?$AA?5?$AAi?$AAn?$AAf?$AAo?$AAr?$AAm?$AAa?$AAt?$AAi@ 00000001800aad60     libucrtd:dbgrpt.obj
 0002:0000ee50       ??_C@_1MG@LJLILFFD@?$AAD?$AAe?$AAb?$AAu?$AAg?$AA?5?$AA?$CF?$AAl?$AAs?$AA?$CB?$AA?6?$AA?6?$AAP?$AAr?$AAo@ 00000001800aae50     libucrtd:dbgrpt.obj
 0002:0000ef20       ??_C@_1MG@OODCADGL@?$AAD?$AAe?$AAb?$AAu?$AAg?$AA?5?$AA?$CF?$AAl?$AAs?$AA?$CB?$AA?6?$AA?6?$AAP?$AAr?$AAo@ 00000001800aaf20     libucrtd:dbgrpt.obj
 0002:0000efe8       ??_C@_0BH@DNAGHKFM@?$DMprogram?5name?5unknown?$DO@ 00000001800aafe8     libucrtd:dbgrpt.obj
 0002:0000f000       ??_C@_1CO@EAEJAADC@?$AA?$DM?$AAp?$AAr?$AAo?$AAg?$AAr?$AAa?$AAm?$AA?5?$AAn?$AAa?$AAm?$AAe?$AA?5?$AAu@ 00000001800ab000     libucrtd:dbgrpt.obj
 0002:0000f030       ??_C@_1FK@BNNDOGMN@?$AA?$CI?$AA?$CC?$AAT?$AAh?$AAe?$AA?5?$AAh?$AAo?$AAo?$AAk?$AA?5?$AAf?$AAu?$AAn?$AAc@ 00000001800ab030     libucrtd:dbgrpt.obj
 0002:0000f090       ??_C@_1FO@GMJDLAJD@?$AAm?$AAi?$AAn?$AAk?$AAe?$AAr?$AAn?$AAe?$AAl?$AA?2?$AAc?$AAr?$AAt?$AAs?$AA?2@ 00000001800ab090     libucrtd:dbgrpt.obj
 0002:0000f0f0       ??_C@_0CP@HDJNPEFB@minkernel?2crts?2ucrt?2src?2appcrt?2@ 00000001800ab0f0     libucrtd:dbgrpt.obj
 0002:0000f120       ??_C@_1HI@OFEHGPPC@?$AAm?$AAo?$AAd?$AAe?$AA?5?$AA?$DN?$AA?$DN?$AA?5?$AA_?$AAC?$AAR?$AAT?$AA_?$AAR?$AAP@ 00000001800ab120     libucrtd:dbgrpt.obj
 0002:0000f198       ??_C@_1CO@FFNKOJOG@?$AAc?$AAo?$AAm?$AAm?$AAo?$AAn?$AA_?$AAs?$AAe?$AAt?$AA_?$AAr?$AAe?$AAp?$AAo@ 00000001800ab198     libucrtd:dbgrpt.obj
 0002:0000f1c8       ??_C@_1CI@ONEHFNHD@?$AAn?$AAe?$AAw?$AA_?$AAh?$AAo?$AAo?$AAk?$AA?5?$AA?$CB?$AA?$DN?$AA?5?$AAn?$AAu?$AAl@ 00000001800ab1c8     libucrtd:dbgrpt.obj
 0002:0000f1f8       ??_C@_1CM@EHMOGBJJ@?$AAc?$AAo?$AAm?$AAm?$AAo?$AAn?$AA_?$AAm?$AAe?$AAs?$AAs?$AAa?$AAg?$AAe?$AA_@ 00000001800ab1f8     libucrtd:dbgrpt.obj
 0002:0000f230       ??_C@_1PE@ECNALGCA@?$AAt?$AAr?$AAa?$AAi?$AAt?$AAs?$AA?3?$AA?3?$AAt?$AAc?$AAs?$AAc?$AAp?$AAy?$AA_@ 00000001800ab230     libucrtd:dbgrpt.obj
 0002:0000f324       ??_C@_11LOCGONAA@@         00000001800ab324     libucrtd:dbgrpt.obj
 0002:0000f328       ??_C@_1BK@PEDCIPMA@?$AAE?$AAx?$AAp?$AAr?$AAe?$AAs?$AAs?$AAi?$AAo?$AAn?$AA?3?$AA?5@ 00000001800ab328     libucrtd:dbgrpt.obj
 0002:0000f344       ??_C@_15IABLJNFO@?$AA?6?$AA?6@ 00000001800ab344     libucrtd:dbgrpt.obj
 0002:0000f350       ??_C@_1BA@GLLGCPCK@?$AA?6?$AAL?$AAi?$AAn?$AAe?$AA?3?$AA?5@ 00000001800ab350     libucrtd:dbgrpt.obj
 0002:0000f360       ??_C@_1BA@LNHECFIM@?$AA?6?$AAF?$AAi?$AAl?$AAe?$AA?3?$AA?5@ 00000001800ab360     libucrtd:dbgrpt.obj
 0002:0000f370       ??_C@_17LGKOMLJ@?$AA?4?$AA?4?$AA?4@ 00000001800ab370     libucrtd:dbgrpt.obj
 0002:0000f378       ??_C@_1BE@CGCJKGHI@?$AA?6?$AAM?$AAo?$AAd?$AAu?$AAl?$AAe?$AA?3?$AA?5@ 00000001800ab378     libucrtd:dbgrpt.obj
 0002:0000f390       ??_C@_1JM@IBOIJEOO@?$AAw?$AAc?$AAs?$AAc?$AAp?$AAy?$AA_?$AAs?$AA?$CI?$AAm?$AAe?$AAs?$AAs?$AAa?$AAg@ 00000001800ab390     libucrtd:dbgrpt.obj
 0002:0000f430       ??_C@_1FG@BBOLDHGF@?$AA_?$AAC?$AAr?$AAt?$AAD?$AAb?$AAg?$AAR?$AAe?$AAp?$AAo?$AAr?$AAt?$AA?3?$AA?5@ 00000001800ab430     libucrtd:dbgrpt.obj
 0002:0000f490       ??_C@_1EK@MBDPDCGA@?$AAM?$AAi?$AAc?$AAr?$AAo?$AAs?$AAo?$AAf?$AAt?$AA?5?$AAV?$AAi?$AAs?$AAu?$AAa@ 00000001800ab490     libucrtd:dbgrpt.obj
 0002:0000f4e0       _Fenv1                     00000001800ab4e0     libucrtd:atox.obj
 0002:0000f4f0       ??_C@_1GE@DPGDJKLM@?$AAm?$AAi?$AAn?$AAk?$AAe?$AAr?$AAn?$AAe?$AAl?$AA?2?$AAc?$AAr?$AAt?$AAs?$AA?2@ 00000001800ab4f0     libucrtd:atox.obj
 0002:0000f560       ??_C@_1EO@MLJCKPIB@?$AAb?$AAa?$AAs?$AAe?$AA?5?$AA?$DN?$AA?$DN?$AA?5?$AA0?$AA?5?$AA?$HM?$AA?$HM?$AA?5?$AA?$CI?$AA2@ 00000001800ab560     libucrtd:atox.obj
 0002:0000f5b0       ??_C@_1DI@BANODKFL@?$AA_?$AA_?$AAc?$AAr?$AAt?$AA_?$AAs?$AAt?$AAr?$AAt?$AAo?$AAx?$AA?3?$AA?3?$AAp@ 00000001800ab5b0     libucrtd:atox.obj
 0002:0000f5e8       ??_C@_1CM@GJENOOEJ@?$AAc?$AA?5?$AA?$DN?$AA?$DN?$AA?5?$AA?8?$AA?2?$AA0?$AA?8?$AA?5?$AA?$HM?$AA?$HM?$AA?5?$AA?$CK?$AA_@ 00000001800ab5e8     libucrtd:atox.obj
 0002:0000f620       ??_C@_1HA@CONLANFI@?$AA_?$AA_?$AAc?$AAr?$AAt?$AA_?$AAs?$AAt?$AAr?$AAt?$AAo?$AAx?$AA?3?$AA?3?$AAc@ 00000001800ab620     libucrtd:atox.obj
 0002:0000f690       ??_C@_1BM@PNEBBBDO@?$AA_?$AAp?$AA?5?$AA?$CB?$AA?$DN?$AA?5?$AAn?$AAu?$AAl?$AAl?$AAp?$AAt?$AAr@ 00000001800ab690     libucrtd:atox.obj
 0002:0000f6b0       ??_C@_1HG@FCDBLOEG@?$AA_?$AA_?$AAc?$AAr?$AAt?$AA_?$AAs?$AAt?$AAr?$AAt?$AAo?$AAx?$AA?3?$AA?3?$AAc@ 00000001800ab6b0     libucrtd:atox.obj
 0002:0000f730       ??_C@_1GK@MNHIDABG@?$AA_?$AA_?$AAc?$AAr?$AAt?$AA_?$AAs?$AAt?$AAr?$AAt?$AAo?$AAx?$AA?3?$AA?3?$AAc@ 00000001800ab730     libucrtd:atox.obj
 0002:0000f7a0       ??_C@_1HA@MKKIHBHP@?$AA_?$AA_?$AAc?$AAr?$AAt?$AA_?$AAs?$AAt?$AAr?$AAt?$AAo?$AAx?$AA?3?$AA?3?$AAc@ 00000001800ab7a0     libucrtd:atox.obj
 0002:0000f810       ??_C@_0DM@DKIFNNOL@minkernel?2crts?2ucrt?2src?2appcrt?2@ 00000001800ab810     libucrtd:per_thread_data.obj
 0002:0000f850       ??_C@_1FO@NMANMHOD@?$AAc?$AAa?$AAc?$AAh?$AAe?$AAd?$AA_?$AAs?$AAt?$AAa?$AAt?$AAe?$AA?5?$AA?$DN?$AA?$DN@ 00000001800ab850     libucrtd:win_policies.obj
 0002:0000f8b0       ??_C@_1HC@GHLNKBJK@?$AAm?$AAi?$AAn?$AAk?$AAe?$AAr?$AAn?$AAe?$AAl?$AA?2?$AAc?$AAr?$AAt?$AAs?$AA?2@ 00000001800ab8b0     libucrtd:win_policies.obj
 0002:0000fa98       ??_C@_1CE@JMFACANE@?$AAr?$AAe?$AAs?$AAu?$AAl?$AAt?$AA?5?$AA?$CB?$AA?$DN?$AA?5?$AAn?$AAu?$AAl?$AAl?$AAp@ 00000001800aba98     libucrtd:errno.obj
 0002:0000fac0       ??_C@_1FM@MJJGEFKM@?$AAm?$AAi?$AAn?$AAk?$AAe?$AAr?$AAn?$AAe?$AAl?$AA?2?$AAc?$AAr?$AAt?$AAs?$AA?2@ 00000001800abac0     libucrtd:errno.obj
 0002:0000fb20       ??_C@_1BG@KCMPBBDK@?$AA_?$AAg?$AAe?$AAt?$AA_?$AAe?$AAr?$AAr?$AAn?$AAo@ 00000001800abb20     libucrtd:errno.obj
 0002:0000fb38       ??_C@_1BM@INIPHHDD@?$AA_?$AAg?$AAe?$AAt?$AA_?$AAd?$AAo?$AAs?$AAe?$AAr?$AAr?$AAn?$AAo@ 00000001800abb38     libucrtd:errno.obj
 0002:0000fba8       ??_C@_0DI@DNFGFCIK@minkernel?2crts?2ucrt?2inc?2corecrt@ 00000001800abba8     libucrtd:argv_wildcards.obj
 0002:0000fbe0       ??_C@_1HE@CEMHPOHH@?$AAm?$AAi?$AAn?$AAk?$AAe?$AAr?$AAn?$AAe?$AAl?$AA?2?$AAc?$AAr?$AAt?$AAs?$AA?2@ 00000001800abbe0     libucrtd:argv_wildcards.obj
 0002:0000fc58       ??_C@_1DK@IBFFOJGB@?$AAc?$AAo?$AAm?$AAm?$AAo?$AAn?$AA_?$AAe?$AAx?$AAp?$AAa?$AAn?$AAd?$AA_?$AAa@ 00000001800abc58     libucrtd:argv_wildcards.obj
 0002:0000fca0       ??_C@_1MC@FLPKOFON@?$AAt?$AAr?$AAa?$AAi?$AAt?$AAs?$AA?3?$AA?3?$AAt?$AAc?$AAs?$AAn?$AAc?$AAp?$AAy@ 00000001800abca0     libucrtd:argv_wildcards.obj
 0002:0000fd68       ??_C@_0DK@FPFMIIJB@minkernel?2crts?2ucrt?2src?2appcrt?2@ 00000001800abd68     libucrtd:argv_wildcards.obj
 0002:0000fdb0       ??_C@_1EA@KOCCBLAD@?$AAc?$AAo?$AAp?$AAy?$AA_?$AAa?$AAn?$AAd?$AA_?$AAa?$AAd?$AAd?$AA_?$AAa?$AAr@ 00000001800abdb0     libucrtd:argv_wildcards.obj
 0002:0000fdf0       ??_C@_1KM@GDJIGAGL@?$AAt?$AAr?$AAa?$AAi?$AAt?$AAs?$AA?3?$AA?3?$AAt?$AAc?$AAs?$AAn?$AAc?$AAp?$AAy@ 00000001800abdf0     libucrtd:argv_wildcards.obj
 0002:0000fea0       ??_C@_1PI@FGFLAGCC@?$AAt?$AAr?$AAa?$AAi?$AAt?$AAs?$AA?3?$AA?3?$AAt?$AAc?$AAs?$AAn?$AAc?$AAp?$AAy@ 00000001800abea0     libucrtd:argv_wildcards.obj
 0002:0000ffe0       ??_C@_1M@HPNHIDJI@?$AAj?$AAa?$AA?9?$AAJ?$AAP@ 00000001800abfe0     libucrtd:mbctype.obj
 0002:0000fff0       ??_C@_1M@BIBDDEMK@?$AAz?$AAh?$AA?9?$AAC?$AAN@ 00000001800abff0     libucrtd:mbctype.obj
 0002:00010000       ??_C@_1M@JLOOOEGK@?$AAk?$AAo?$AA?9?$AAK?$AAR@ 00000001800ac000     libucrtd:mbctype.obj
 0002:00010010       ??_C@_1M@CLNBBOPM@?$AAz?$AAh?$AA?9?$AAT?$AAW@ 00000001800ac010     libucrtd:mbctype.obj
 0002:00010020       ??_C@_0DE@HGDKNBFD@minkernel?2crts?2ucrt?2src?2appcrt?2@ 00000001800ac020     libucrtd:mbctype.obj
 0002:00010060       ??_C@_1GK@EMNILMBI@?$AAm?$AAi?$AAn?$AAk?$AAe?$AAr?$AAn?$AAe?$AAl?$AA?2?$AAc?$AAr?$AAt?$AAs?$AA?2@ 00000001800ac060     libucrtd:argv_data.obj
 0002:000100d0       ??_C@_1BK@PNLDCCDP@?$AA_?$AAg?$AAe?$AAt?$AA_?$AAw?$AAp?$AAg?$AAm?$AAp?$AAt?$AAr@ 00000001800ac0d0     libucrtd:argv_data.obj
 0002:000100f0       ??_C@_1CI@ENCADPBF@?$AA_?$AAw?$AAp?$AAg?$AAm?$AAp?$AAt?$AAr?$AA?5?$AA?$CB?$AA?$DN?$AA?5?$AAn?$AAu?$AAl@ 00000001800ac0f0     libucrtd:argv_data.obj
 0002:00010118       ??_C@_1BI@COAAPHJK@?$AA_?$AAg?$AAe?$AAt?$AA_?$AAp?$AAg?$AAm?$AAp?$AAt?$AAr@ 00000001800ac118     libucrtd:argv_data.obj
 0002:00010130       ??_C@_1CG@CKJHPBDG@?$AA_?$AAp?$AAg?$AAm?$AAp?$AAt?$AAr?$AA?5?$AA?$CB?$AA?$DN?$AA?5?$AAn?$AAu?$AAl?$AAl@ 00000001800ac130     libucrtd:argv_data.obj
 0002:00010160       ??_C@_0ED@BLPEHJAI@minkernel?2crts?2ucrt?2src?2desktop@ 00000001800ac160     libucrtd:get_environment_from_os.obj
 0002:000101a8       ??_C@_1DO@PANKIJNP@?$AAe?$AAq?$AAu?$AAa?$AAl?$AA_?$AAs?$AAi?$AAg?$AAn?$AA?5?$AA?9?$AA?5?$AAo?$AAp@ 00000001800ac1a8     libucrtd:setenv.obj
 0002:000101f0       ??_C@_1GE@MMOHBENP@?$AAm?$AAi?$AAn?$AAk?$AAe?$AAr?$AAn?$AAe?$AAl?$AA?2?$AAc?$AAr?$AAt?$AAs?$AA?2@ 00000001800ac1f0     libucrtd:setenv.obj
 0002:00010260       ??_C@_1GK@KBABANDM@?$AAt?$AAr?$AAa?$AAi?$AAt?$AAs?$AA?3?$AA?3?$AAt?$AAc?$AAs?$AAn?$AAl?$AAe?$AAn@ 00000001800ac260     libucrtd:setenv.obj
 0002:000102d0       ??_C@_0DC@NJKMKCIL@minkernel?2crts?2ucrt?2src?2desktop@ 00000001800ac2d0     libucrtd:setenv.obj
 0002:00010310       ??_C@_1EC@IKJPFBIM@?$AA?$CI?$AA?$CC?$AAC?$AAR?$AAT?$AA?5?$AAl?$AAo?$AAg?$AAi?$AAc?$AA?5?$AAe?$AAr?$AAr@ 00000001800ac310     libucrtd:setenv.obj
 0002:00010360       ??_C@_1FE@KHMDCEEJ@?$AAc?$AAo?$AAm?$AAm?$AAo?$AAn?$AA_?$AAs?$AAe?$AAt?$AA_?$AAv?$AAa?$AAr?$AAi@ 00000001800ac360     libucrtd:setenv.obj
 0002:000103c0       ??_C@_1EM@NIOJJLEA@?$AAt?$AAr?$AAa?$AAi?$AAt?$AAs?$AA?3?$AA?3?$AAt?$AAc?$AAs?$AAc?$AAp?$AAy?$AA_@ 00000001800ac3c0     libucrtd:setenv.obj
 0002:00010410       ??_C@_1CC@PIMGMDJH@?$AAc?$AAo?$AAp?$AAy?$AA_?$AAe?$AAn?$AAv?$AAi?$AAr?$AAo?$AAn?$AAm?$AAe?$AAn@ 00000001800ac410     libucrtd:setenv.obj
 0002:00010440       ??_C@_1GG@EDHOMIDL@?$AAt?$AAr?$AAa?$AAi?$AAt?$AAs?$AA?3?$AA?3?$AAt?$AAc?$AAs?$AAc?$AAp?$AAy?$AA_@ 00000001800ac440     libucrtd:setenv.obj
 0002:00010550       ??_C@_1EA@JGEFHKEI@?$AAa?$AAp?$AAi?$AA?9?$AAm?$AAs?$AA?9?$AAw?$AAi?$AAn?$AA?9?$AAc?$AAo?$AAr?$AAe@ 00000001800ac550     libucrtd:winapi_thunks.obj
 0002:00010590       ??_C@_1DI@IJCEHOCB@?$AAa?$AAp?$AAi?$AA?9?$AAm?$AAs?$AA?9?$AAw?$AAi?$AAn?$AA?9?$AAc?$AAo?$AAr?$AAe@ 00000001800ac590     libucrtd:winapi_thunks.obj
 0002:000105d0       ??_C@_1EI@MPIAOHOC@?$AAa?$AAp?$AAi?$AA?9?$AAm?$AAs?$AA?9?$AAw?$AAi?$AAn?$AA?9?$AAc?$AAo?$AAr?$AAe@ 00000001800ac5d0     libucrtd:winapi_thunks.obj
 0002:00010620       ??_C@_1FK@FPHCKFIE@?$AAa?$AAp?$AAi?$AA?9?$AAm?$AAs?$AA?9?$AAw?$AAi?$AAn?$AA?9?$AAc?$AAo?$AAr?$AAe@ 00000001800ac620     libucrtd:winapi_thunks.obj
 0002:00010680       ??_C@_1EM@DILCGIIO@?$AAa?$AAp?$AAi?$AA?9?$AAm?$AAs?$AA?9?$AAw?$AAi?$AAn?$AA?9?$AAc?$AAo?$AAr?$AAe@ 00000001800ac680     libucrtd:winapi_thunks.obj
 0002:000106d0       ??_C@_1DM@LNCGDDPN@?$AAa?$AAp?$AAi?$AA?9?$AAm?$AAs?$AA?9?$AAw?$AAi?$AAn?$AA?9?$AAc?$AAo?$AAr?$AAe@ 00000001800ac6d0     libucrtd:winapi_thunks.obj
 0002:00010710       ??_C@_1DO@FPAPJEMD@?$AAa?$AAp?$AAi?$AA?9?$AAm?$AAs?$AA?9?$AAw?$AAi?$AAn?$AA?9?$AAc?$AAo?$AAr?$AAe@ 00000001800ac710     libucrtd:winapi_thunks.obj
 0002:00010750       ??_C@_1DK@NDHNAHIO@?$AAa?$AAp?$AAi?$AA?9?$AAm?$AAs?$AA?9?$AAw?$AAi?$AAn?$AA?9?$AAc?$AAo?$AAr?$AAe@ 00000001800ac750     libucrtd:winapi_thunks.obj
 0002:00010790       ??_C@_1DM@KGHDGBCM@?$AAa?$AAp?$AAi?$AA?9?$AAm?$AAs?$AA?9?$AAw?$AAi?$AAn?$AA?9?$AAc?$AAo?$AAr?$AAe@ 00000001800ac790     libucrtd:winapi_thunks.obj
 0002:000107d0       ??_C@_1EO@IJIOEFOH@?$AAa?$AAp?$AAi?$AA?9?$AAm?$AAs?$AA?9?$AAw?$AAi?$AAn?$AA?9?$AAr?$AAt?$AAc?$AAo@ 00000001800ac7d0     libucrtd:winapi_thunks.obj
 0002:00010820       ??_C@_1FG@HHGEKANL@?$AAa?$AAp?$AAi?$AA?9?$AAm?$AAs?$AA?9?$AAw?$AAi?$AAn?$AA?9?$AAs?$AAe?$AAc?$AAu@ 00000001800ac820     libucrtd:winapi_thunks.obj
 0002:00010880       ??_C@_1EG@DBIOJECG@?$AAe?$AAx?$AAt?$AA?9?$AAm?$AAs?$AA?9?$AAw?$AAi?$AAn?$AA?9?$AAn?$AAt?$AAu?$AAs@ 00000001800ac880     libucrtd:winapi_thunks.obj
 0002:000108d0       ??_C@_1EO@FIHMJCLF@?$AAe?$AAx?$AAt?$AA?9?$AAm?$AAs?$AA?9?$AAw?$AAi?$AAn?$AA?9?$AAn?$AAt?$AAu?$AAs@ 00000001800ac8d0     libucrtd:winapi_thunks.obj
 0002:00010920       ??_C@_1BC@DNHGCMLG@?$AAa?$AAd?$AAv?$AAa?$AAp?$AAi?$AA3?$AA2@ 00000001800ac920     libucrtd:winapi_thunks.obj
 0002:00010938       ??_C@_1M@OAIMIKLP@?$AAn?$AAt?$AAd?$AAl?$AAl@ 00000001800ac938     libucrtd:winapi_thunks.obj
 0002:00010950       ??_C@_1EG@DPGNFKGC@?$AAa?$AAp?$AAi?$AA?9?$AAm?$AAs?$AA?9?$AAw?$AAi?$AAn?$AA?9?$AAa?$AAp?$AAp?$AAm@ 00000001800ac950     libucrtd:winapi_thunks.obj
 0002:00010998       ??_C@_1O@BCCLBEOE@?$AAu?$AAs?$AAe?$AAr?$AA3?$AA2@ 00000001800ac998     libucrtd:winapi_thunks.obj
 0002:000109a8       ??_C@_1BA@IAIFMGEF@?$AAe?$AAx?$AAt?$AA?9?$AAm?$AAs?$AA?9@ 00000001800ac9a8     libucrtd:winapi_thunks.obj
 0002:000109c0       ??_C@_1HE@OILMBOBA@?$AAm?$AAi?$AAn?$AAk?$AAe?$AAr?$AAn?$AAe?$AAl?$AA?2?$AAc?$AAr?$AAt?$AAs?$AA?2@ 00000001800ac9c0     libucrtd:winapi_thunks.obj
 0002:00010a38       ??_C@_0BA@FHFNEAED@AreFileApisANSI@ 00000001800aca38     libucrtd:winapi_thunks.obj
 0002:00010a50       ??_C@_0BA@IHGNDAEB@CompareStringEx@ 00000001800aca50     libucrtd:winapi_thunks.obj
 0002:00010a68       ??_C@_0BE@LJANKFHF@EnumSystemLocalesEx@ 00000001800aca68     libucrtd:winapi_thunks.obj
 0002:00010aa8       ??_C@_0BA@HNOPNCHB@GetActiveWindow@ 00000001800acaa8     libucrtd:winapi_thunks.obj
 0002:00010ac0       ??_C@_0BA@EPCJIIPD@GetDateFormatEx@ 00000001800acac0     libucrtd:winapi_thunks.obj
 0002:00010ad8       ??_C@_0BJ@DIBIJBHA@GetEnabledXStateFeatures@ 00000001800acad8     libucrtd:winapi_thunks.obj
 0002:00010b00       ??_C@_0BD@HHGDFDBJ@GetLastActivePopup@ 00000001800acb00     libucrtd:winapi_thunks.obj
 0002:00010b20       ??_C@_0BA@ONOKGCMP@GetLocaleInfoEx@ 00000001800acb20     libucrtd:winapi_thunks.obj
 0002:00010b38       ??_C@_0BI@DFKBFLJE@GetProcessWindowStation@ 00000001800acb38     libucrtd:winapi_thunks.obj
 0002:00010b58       ??_C@_0BP@FPNJPEJC@GetSystemTimePreciseAsFileTime@ 00000001800acb58     libucrtd:winapi_thunks.obj
 0002:00010b80       ??_C@_0BA@CIJJKCJJ@GetTimeFormatEx@ 00000001800acb80     libucrtd:winapi_thunks.obj
 0002:00010b98       ??_C@_0BJ@PBCCBIPI@GetUserDefaultLocaleName@ 00000001800acb98     libucrtd:winapi_thunks.obj
 0002:00010bc0       ??_C@_0BK@DEKFELLI@GetUserObjectInformationW@ 00000001800acbc0     libucrtd:winapi_thunks.obj
 0002:00010be8       ??_C@_0BG@IKLDMBLM@GetXStateFeaturesMask@ 00000001800acbe8     libucrtd:winapi_thunks.obj
 0002:00010c10       ??_C@_0BC@CELBKLLA@IsValidLocaleName@ 00000001800acc10     libucrtd:winapi_thunks.obj
 0002:00010c30       ??_C@_0O@KKBNKAPF@LCMapStringEx@ 00000001800acc30     libucrtd:winapi_thunks.obj
 0002:00010c48       ??_C@_0BB@CDHDDLLP@LCIDToLocaleName@ 00000001800acc48     libucrtd:winapi_thunks.obj
 0002:00010c68       ??_C@_0BB@HBDEELFH@LocaleNameToLCID@ 00000001800acc68     libucrtd:winapi_thunks.obj
 0002:00010c88       ??_C@_0BE@KINNKFDA@LocateXStateFeature@ 00000001800acc88     libucrtd:winapi_thunks.obj
 0002:00010ca8       ??_C@_0M@CHKKJDAI@MessageBoxA@ 00000001800acca8     libucrtd:winapi_thunks.obj
 0002:00010cc0       ??_C@_0M@DLDCCGNP@MessageBoxW@ 00000001800accc0     libucrtd:winapi_thunks.obj
 0002:00010cd0       ??_C@_0N@PPOMPGGK@RoInitialize@ 00000001800accd0     libucrtd:winapi_thunks.obj
 0002:00010ce8       ??_C@_0P@LLFHBIJD@RoUninitialize@ 00000001800acce8     libucrtd:winapi_thunks.obj
 0002:00010d00       ??_C@_0CF@OJOFEIGO@AppPolicyGetProcessTerminationM@ 00000001800acd00     libucrtd:winapi_thunks.obj
 0002:00010d30       ??_C@_0CF@NNDFDCOC@AppPolicyGetThreadInitializatio@ 00000001800acd30     libucrtd:winapi_thunks.obj
 0002:00010d60       ??_C@_0CE@OICFMIKE@AppPolicyGetShowDeveloperDiagno@ 00000001800acd60     libucrtd:winapi_thunks.obj
 0002:00010d88       ??_C@_0BL@ODDJNEDA@AppPolicyGetWindowingModel@ 00000001800acd88     libucrtd:winapi_thunks.obj
 0002:00010db0       ??_C@_0BI@BKLFFAPO@SetThreadStackGuarantee@ 00000001800acdb0     libucrtd:winapi_thunks.obj
 0002:00010dd0       ??_C@_0BC@JEAENNKH@SystemFunction036@ 00000001800acdd0     libucrtd:winapi_thunks.obj
 0002:00010de8       ??_C@_1CO@HCPPKOH@?$AA_?$AA_?$AAa?$AAc?$AAr?$AAt?$AA_?$AAh?$AAe?$AAa?$AAp?$AA?5?$AA?$CB?$AA?$DN?$AA?5@ 00000001800acde8     libucrtd:heap_handle.obj
 0002:00010e20       ??_C@_1GI@OADBAEGE@?$AAm?$AAi?$AAn?$AAk?$AAe?$AAr?$AAn?$AAe?$AAl?$AA?2?$AAc?$AAr?$AAt?$AAs?$AA?2@ 00000001800ace20     libucrtd:heap_handle.obj
 0002:00010e88       ??_C@_1CC@LLFJPCJO@?$AAn?$AAe?$AAw?$AA_?$AAh?$AAa?$AAn?$AAd?$AAl?$AAe?$AAr?$AA?5?$AA?$DN?$AA?$DN?$AA?5@ 00000001800ace88     libucrtd:new_handler.obj
 0002:00010eb0       ??_C@_1GI@GALDAPMM@?$AAm?$AAi?$AAn?$AAk?$AAe?$AAr?$AAn?$AAe?$AAl?$AA?2?$AAc?$AAr?$AAt?$AAs?$AA?2@ 00000001800aceb0     libucrtd:new_handler.obj
 0002:00010f18       ??_C@_0CP@JIIONAG@minkernel?2crts?2ucrt?2src?2appcrt?2@ 00000001800acf18     libucrtd:signal.obj
 0002:00010f48       ??_C@_1DA@NBILLKNO@?$AAl?$AAo?$AAc?$AAa?$AAl?$AA_?$AAa?$AAc?$AAt?$AAi?$AAo?$AAn?$AA?5?$AA?$CB?$AA?$DN@ 00000001800acf48     libucrtd:signal.obj
 0002:00010f80       ??_C@_1FO@CCGDPEKE@?$AAm?$AAi?$AAn?$AAk?$AAe?$AAr?$AAn?$AAe?$AAl?$AA?2?$AAc?$AAr?$AAt?$AAs?$AA?2@ 00000001800acf80     libucrtd:signal.obj
 0002:00010fe0       ??_C@_1M@DMJEIKHL@?$AAr?$AAa?$AAi?$AAs?$AAe@ 00000001800acfe0     libucrtd:signal.obj
 0002:00010ff0       ??_C@_1DO@MLNEDKGB@?$AA?$CI?$AA?$CC?$AAI?$AAn?$AAv?$AAa?$AAl?$AAi?$AAd?$AA?5?$AAs?$AAi?$AAg?$AAn?$AAa@ 00000001800acff0     libucrtd:signal.obj
 0002:00011030       __lc_time_c                00000001800ad030     libucrtd:nlsdata.obj
 0002:000112f0       ??_C@_03KOEHGMDN@Sun@      00000001800ad2f0     libucrtd:nlsdata.obj
 0002:000112f4       ??_C@_03PDAGKDH@Mon@       00000001800ad2f4     libucrtd:nlsdata.obj
 0002:000112f8       ??_C@_03NAGEINEP@Tue@      00000001800ad2f8     libucrtd:nlsdata.obj
 0002:000112fc       ??_C@_03MHOMLAJA@Wed@      00000001800ad2fc     libucrtd:nlsdata.obj
 0002:00011300       ??_C@_03IOFIKPDN@Thu@      00000001800ad300     libucrtd:nlsdata.obj
 0002:00011304       ??_C@_03IDIOELNC@Fri@      00000001800ad304     libucrtd:nlsdata.obj
 0002:00011308       ??_C@_03FEFJNEK@Sat@       00000001800ad308     libucrtd:nlsdata.obj
 0002:0001130c       ??_C@_06OOPIFAJ@Sunday@    00000001800ad30c     libucrtd:nlsdata.obj
