 win32_made

 Timestamp is 611424f0 (Wed Aug 11 22:28:48 2021)

 Preferred load address is 0000000140000000

 Start         Length     Name                   Class
 0001:00000000 0003a820H .text$mn                CODE
 0001:0003a820 00000040H .text$mn$00             CODE
 0001:0003a860 0000067dH .text$x                 CODE
 0002:00000000 00000358H .idata$5                DATA
 0002:00000358 00000028H .00cfg                  DATA
 0002:00000380 00000008H .CRT$XCA                DATA
 0002:00000388 00000008H .CRT$XCAA               DATA
 0002:00000390 00000008H .CRT$XCZ                DATA
 0002:00000398 00000008H .CRT$XIA                DATA
 0002:000003a0 00000008H .CRT$XIAA               DATA
 0002:000003a8 00000008H .CRT$XIAC               DATA
 0002:000003b0 00000020H .CRT$XIC                DATA
 0002:000003d0 00000008H .CRT$XIZ                DATA
 0002:000003d8 00000008H .CRT$XPA                DATA
 0002:000003e0 00000010H .CRT$XPX                DATA
 0002:000003f0 00000008H .CRT$XPXA               DATA
 0002:000003f8 00000008H .CRT$XPZ                DATA
 0002:00000400 00000008H .CRT$XTA                DATA
 0002:00000408 00000008H .CRT$XTZ                DATA
 0002:00000410 00000000H .gehcont$y              DATA
 0002:00000410 00000000H .gfids$y                DATA
 0002:00000410 00010c70H .rdata                  DATA
 0002:00011080 00000000H .rdata$CastGuardVftablesA DATA
 0002:00011080 00000000H .rdata$CastGuardVftablesC DATA
 0002:00011080 0000016cH .rdata$r                DATA
 0002:000111ec 00000124H .rdata$voltmd           DATA
 0002:00011310 00000338H .rdata$zzzdbg           DATA
 0002:00011648 00000008H .rtc$IAA                DATA
 0002:00011650 00000008H .rtc$IZZ                DATA
 0002:00011658 00000008H .rtc$TAA                DATA
 0002:00011660 00000010H .rtc$TZZ                DATA
 0002:00011670 000011a8H .xdata                  DATA
 0002:00012818 00000084H .xdata$x                DATA
 0002:0001289c 00000000H .edata                  DATA
 0002:0001289c 00000050H .idata$2                DATA
 0002:000128ec 00000014H .idata$3                DATA
 0002:00012900 00000358H .idata$4                DATA
 0002:00012c58 00000764H .idata$6                DATA
 0003:00000000 00000a70H .data                   DATA
 0003:00000a70 00000050H .data$r                 DATA
 0003:00000ac0 00000020H .data$rs                DATA
 0003:00000ae0 000018d0H .bss                    DATA
 0004:00000000 00002f64H .pdata                  DATA
 0005:00000000 000000f4H _RDATA                  DATA

  Address         Publics by Value              Rva+Base               Lib:Object

 0000:00000000       __x64_code_ranges_to_entry_points_count 0000000000000000     <absolute>
 0000:00000000       __arm64x_redirection_metadata 0000000000000000     <absolute>
 0000:00000000       __guard_iat_table          0000000000000000     <absolute>
 0000:00000000       __guard_iat_count          0000000000000000     <absolute>
 0000:00000000       __guard_longjmp_count      0000000000000000     <absolute>
 0000:00000000       __guard_longjmp_table      0000000000000000     <absolute>
 0000:00000000       __x64_code_ranges_to_entry_points 0000000000000000     <absolute>
 0000:00000000       __dynamic_value_reloc_table 0000000000000000     <absolute>
 0000:00000000       __hybrid_auxiliary_iat     0000000000000000     <absolute>
 0000:00000000       __hybrid_auxiliary_iat_copy 0000000000000000     <absolute>
 0000:00000000       __guard_fids_count         0000000000000000     <absolute>
 0000:00000000       ___safe_se_handler_table   0000000000000000     <absolute>
 0000:00000000       __arm64x_extra_rfe_table   0000000000000000     <absolute>
 0000:00000000       __AbsoluteZero             0000000000000000     <absolute>
 0000:00000000       __hybrid_code_map          0000000000000000     <absolute>
 0000:00000000       __arm64x_extra_rfe_table_size 0000000000000000     <absolute>
 0000:00000000       ___safe_se_handler_count   0000000000000000     <absolute>
 0000:00000000       __guard_check_icall_a64n_fptr 0000000000000000     <absolute>
 0000:00000000       __guard_fids_table         0000000000000000     <absolute>
 0000:00000000       __guard_eh_cont_count      0000000000000000     <absolute>
 0000:00000000       __arm64x_redirection_metadata_count 0000000000000000     <absolute>
 0000:00000000       __enclave_config           0000000000000000     <absolute>
 0000:00000000       __guard_eh_cont_table      0000000000000000     <absolute>
 0000:00000000       __arm64x_native_entrypoint 0000000000000000     <absolute>
 0000:00000000       __hybrid_code_map_count    0000000000000000     <absolute>
 0000:00000100       __guard_flags              0000000000000100     <absolute>
 0000:00000000       __ImageBase                0000000140000000     <linker-defined>
 0001:00000000       WinMain                    0000000140001000 f   win32_made.obj
 0001:00001740       ?XInputGetStateStub@@YAKKPEAU_XINPUT_STATE@@@Z 0000000140002740 f   win32_made.obj
 0001:00001760       ?XInputSetStateStub@@YAKKPEAU_XINPUT_VIBRATION@@@Z 0000000140002760 f   win32_made.obj
 0001:000019e0       ?DEBUGPlatformFreeFileMemory@@YAXPEAUthread_context@@PEAX@Z 00000001400029e0 f   win32_made.obj
 0001:00001a20       ?DEBUGPlatformReadEntireFile@@YA?AUdebug_read_file_result@@PEAUthread_context@@PEAD@Z 0000000140002a20 f   win32_made.obj
 0001:00001b80       ?DEBUGPlatformWriteEntireFile@@YAHPEAUthread_context@@PEADIPEAX@Z 0000000140002b80 f   win32_made.obj
 0001:00003190       ?GetController@@YAPEAUgame_controller_input@@PEAUgame_input@@I@Z 0000000140004190 f i win32_made.obj
 0001:000031e0       ?SafeTruncateUInt64@@YAI_K@Z 00000001400041e0 f i win32_made.obj
 0001:00003210       ?Win32GetLastWriteTime@@YA?AU_FILETIME@@PEAD@Z 0000000140004210 f i win32_made.obj
 0001:00003280       ?Win32GetSecondsElapsed@@YAMT_LARGE_INTEGER@@0@Z 0000000140004280 f i win32_made.obj
 0001:000032c0       ?Win32GetWallClock@@YA?AT_LARGE_INTEGER@@XZ 00000001400042c0 f i win32_made.obj
 0001:000032e0       __GSHandlerCheck           00000001400042e0 f   LIBCMTD:gshandler.obj
 0001:00003320       __GSHandlerCheckCommon     0000000140004320 f   LIBCMTD:gshandler.obj
 0001:00003430       _alloca_probe              0000000140004430 f   LIBCMTD:chkstk.obj
 0001:00003430       __chkstk                   0000000140004430 f   LIBCMTD:chkstk.obj
 0001:00003490       __security_check_cookie    0000000140004490 f   LIBCMTD:amdsecgs.obj
 0001:00003760       ?configure_argv@__scrt_narrow_argv_policy@@SAHXZ 0000000140004760 f i LIBCMTD:exe_winmain.obj
 0001:00003780       ?initialize_environment@__scrt_narrow_environment_policy@@SAHXZ 0000000140004780 f i LIBCMTD:exe_winmain.obj
 0001:000037d0       ?set_app_type@__scrt_winmain_policy@@SAXXZ 00000001400047d0 f i LIBCMTD:exe_winmain.obj
 0001:000037f0       ?set_commode@__scrt_file_policy@@SAXXZ 00000001400047f0 f i LIBCMTD:exe_winmain.obj
 0001:00003810       ?set_fmode@__scrt_file_policy@@SAXXZ 0000000140004810 f i LIBCMTD:exe_winmain.obj
 0001:00003830       WinMainCRTStartup          0000000140004830 f   LIBCMTD:exe_winmain.obj
 0001:00003850       __raise_securityfailure    0000000140004850 f   LIBCMTD:gs_report.obj
 0001:00003890       __report_gsfailure         0000000140004890 f   LIBCMTD:gs_report.obj
 0001:00003970       __report_rangecheckfailure 0000000140004970 f   LIBCMTD:gs_report.obj
 0001:00003990       __report_securityfailure   0000000140004990 f   LIBCMTD:gs_report.obj
 0001:00003cf0       NtCurrentTeb               0000000140004cf0 f i LIBCMTD:utility.obj
 0001:00003d00       __scrt_acquire_startup_lock 0000000140004d00 f   LIBCMTD:utility.obj
 0001:00003d70       __scrt_initialize_crt      0000000140004d70 f   LIBCMTD:utility.obj
 0001:00003dc0       __scrt_initialize_onexit_tables 0000000140004dc0 f   LIBCMTD:utility.obj
 0001:00003ed0       __scrt_is_nonwritable_in_current_image 0000000140004ed0 f   LIBCMTD:utility.obj
 0001:00003f60       __scrt_release_startup_lock 0000000140004f60 f   LIBCMTD:utility.obj
 0001:00003f90       __scrt_uninitialize_crt    0000000140004f90 f   LIBCMTD:utility.obj
 0001:00003fd0       _onexit                    0000000140004fd0 f   LIBCMTD:utility.obj
 0001:00004050       atexit                     0000000140005050 f   LIBCMTD:utility.obj
 0001:00004150       __security_init_cookie     0000000140005150 f   LIBCMTD:gs_support.obj
 0001:000041d0       _matherr                   00000001400051d0 f   LIBCMTD:matherr.obj
 0001:000041d0       ?get_current_state_index@__crt_state_management@@YA_KAEBV__crt_scoped_get_last_error_reset@@@Z 00000001400051d0 f   libucrtd:per_thread_data.obj
 0001:000041e0       _get_startup_argv_mode     00000001400051e0 f   LIBCMTD:argv_mode.obj
 0001:000041f0       _get_startup_thread_locale_mode 00000001400051f0 f   LIBCMTD:thread_locale.obj
 0001:000041f0       ?get_current_state_index@__crt_state_management@@YA_KXZ 00000001400051f0 f   libucrtd:matherr.obj
 0001:000041f0       __scrt_stub_for_initialize_mta 00000001400051f0 f   LIBCMTD:utility_desktop.obj
 0001:000041f0       ?get_invalid_value@__crt_hmodule_traits@@SAPEAUHINSTANCE__@@XZ 00000001400051f0 f   libucrtd:exit.obj
 0001:000041f0       __scrt_initialize_winrt    00000001400051f0 f   LIBCMTD:utility_desktop.obj
 0001:000041f0       _get_startup_commit_mode   00000001400051f0 f   LIBCMTD:commit_mode.obj
 0001:000041f0       __scrt_exe_initialize_mta  00000001400051f0 f   LIBCMTD:utility_desktop.obj
 0001:000041f0       _get_startup_new_mode      00000001400051f0 f   LIBCMTD:new_mode.obj
 0001:00004200       _get_startup_file_mode     0000000140005200 f   LIBCMTD:file_mode.obj
 0001:00004210       ?__scrt_initialize_type_info@@YAXXZ 0000000140005210 f   LIBCMTD:tncleanup.obj
 0001:00004230       _should_initialize_environment 0000000140005230 f   LIBCMTD:env_mode.obj
 0001:00004240       _initialize_invalid_parameter_handler 0000000140005240 f   LIBCMTD:invalid_parameter_handler.obj
 0001:00004240       _initialize_denormal_control 0000000140005240 f   LIBCMTD:denormal_control.obj
 0001:00004250       __local_stdio_printf_options 0000000140005250 f i LIBCMTD:default_local_stdio_options.obj
 0001:00004260       __local_stdio_scanf_options 0000000140005260 f i LIBCMTD:default_local_stdio_options.obj
 0001:00004270       __scrt_initialize_default_local_stdio_options 0000000140005270 f   LIBCMTD:default_local_stdio_options.obj
 0001:000042c0       __scrt_is_user_matherr_present 00000001400052c0 f   LIBCMTD:matherr_detection.obj
 0001:000042f0       __scrt_get_dyn_tls_init_callback 00000001400052f0 f   LIBCMTD:dyn_tls_init.obj
 0001:00004300       __scrt_get_dyn_tls_dtor_callback 0000000140005300 f   LIBCMTD:dyn_tls_dtor.obj
 0001:00004310       __crt_debugger_hook        0000000140005310 f   LIBCMTD:utility_desktop.obj
 0001:00004320       __scrt_fastfail            0000000140005320 f   LIBCMTD:utility_desktop.obj
 0001:000044c0       __scrt_get_show_window_mode 00000001400054c0 f   LIBCMTD:utility_desktop.obj
 0001:00004520       __scrt_initialize_mta      0000000140005520 f   LIBCMTD:utility_desktop.obj
 0001:00004530       __scrt_is_managed_app      0000000140005530 f   LIBCMTD:utility_desktop.obj
 0001:000045e0       __scrt_set_unhandled_exception_filter 00000001400055e0 f   LIBCMTD:utility_desktop.obj
 0001:00004600       __scrt_unhandled_exception_filter 0000000140005600 f   LIBCMTD:utility_desktop.obj
 0001:000046a0       _RTC_Initialize            00000001400056a0 f   LIBCMTD:initsect.obj
 0001:000046f0       _RTC_Terminate             00000001400056f0 f   LIBCMTD:initsect.obj
 0001:00004740       _guard_check_icall_nop     0000000140005740 f i LIBCMTD:guard_support.obj
 0001:00004740       ??1?$__crt_simd_cleanup_guard@$0A@@@QEAA@XZ 0000000140005740 f i libucrtd:strnlen.obj
 0001:00004740       ??1scoped_global_state_reset@__crt_state_management@@QEAA@XZ 0000000140005740 f i libucrtd:onexit.obj
 0001:00004750       ReadNoFence64              0000000140005750 f i LIBCMTD:guard_support.obj
 0001:00004770       ReadPointerNoFence         0000000140005770 f i LIBCMTD:guard_support.obj
 0001:00004790       _guard_icall_checks_enforced 0000000140005790 f i LIBCMTD:guard_support.obj
 0001:000047d0       __isa_available_init       00000001400057d0 f   LIBCMTD:cpu_disp.obj
 0001:00004b70       __scrt_is_ucrt_dll_in_use  0000000140005b70 f   LIBCMTD:ucrt_detection.obj
 0001:00004ba0       __C_specific_handler       0000000140005ba0 f   libvcruntimed:riscchandler.obj
 0001:00005010       __vcrt_initialize          0000000140006010 f   libvcruntimed:initialization.obj
 0001:00005050       __vcrt_uninitialize        0000000140006050 f   libvcruntimed:initialization.obj
 0001:00005070       ??$?RU__vcrt_ptd@@@__crt_internal_free_policy@@QEBAXQEBU__vcrt_ptd@@@Z 0000000140006070 f i libvcruntimed:per_thread_data.obj
 0001:00005070       ??$?RD@__crt_internal_free_policy@@QEBAXQEBD@Z 0000000140006070 f i libvcruntimed:std_type_info.obj
 0001:00005070       ??$?RE@__crt_internal_free_policy@@QEBAXQEBE@Z 0000000140006070 f i libucrtd:argv_parsing.obj
 0001:00005070       ??$?RPEAU__crt_stdio_stream_data@@@__crt_internal_free_policy@@QEBAXQEBQEAU__crt_stdio_stream_data@@@Z 0000000140006070 f i libucrtd:_file.obj
 0001:00005070       ??$?RU__crt_multibyte_data@@@__crt_internal_free_policy@@QEBAXQEBU__crt_multibyte_data@@@Z 0000000140006070 f i libucrtd:wsetlocale.obj
 0001:00005070       ??$?RPEAD@__crt_internal_free_policy@@QEBAXQEBQEAD@Z 0000000140006070 f i libucrtd:argv_parsing.obj
 0001:00005070       ??$?RU__crt_lowio_handle_data@@@__crt_internal_free_policy@@QEBAXQEBU__crt_lowio_handle_data@@@Z 0000000140006070 f i libucrtd:osfinfo.obj
 0001:00005070       ??$?RP6AXXZ@__crt_internal_free_policy@@QEBAXQEBQ6AXXZ@Z 0000000140006070 f i libucrtd:onexit.obj
 0001:00005070       ??$?RU__acrt_ptd@@@__crt_internal_free_policy@@QEBAXQEBU__acrt_ptd@@@Z 0000000140006070 f i libucrtd:per_thread_data.obj
 0001:000050a0       ??0?$__crt_unique_heap_ptr@U__crt_multibyte_data@@U__crt_internal_free_policy@@@@QEAA@QEAU__crt_multibyte_data@@@Z 00000001400060a0 f i libucrtd:wsetlocale.obj
 0001:000050a0       ??0?$__crt_unique_heap_ptr@PEAU__crt_stdio_stream_data@@U__crt_internal_free_policy@@@@QEAA@QEAPEAU__crt_stdio_stream_data@@@Z 00000001400060a0 f i libucrtd:_file.obj
 0001:000050a0       ??0?$__crt_scoped_stack_ptr_tag@_W@@QEAA@QEA_W@Z 00000001400060a0 f i libucrtd:getstringtypea.obj
 0001:000050a0       ??0?$string_output_adapter@D@__crt_stdio_output@@QEAA@QEAU?$string_output_adapter_context@D@1@@Z 00000001400060a0 f i libucrtd:output.obj
 0001:000050a0       ??0?$__crt_unique_heap_ptr@U__crt_lowio_handle_data@@U__crt_internal_free_policy@@@@QEAA@QEAU__crt_lowio_handle_data@@@Z 00000001400060a0 f i libucrtd:osfinfo.obj
 0001:000050a0       ??0?$__crt_unique_heap_ptr@U__vcrt_ptd@@U__crt_internal_free_policy@@@@QEAA@QEAU__vcrt_ptd@@@Z 00000001400060a0 f i libvcruntimed:per_thread_data.obj
 0001:000050a0       ??0?$__crt_unique_heap_ptr@U__acrt_ptd@@U__crt_internal_free_policy@@@@QEAA@QEAU__acrt_ptd@@@Z 00000001400060a0 f i libucrtd:per_thread_data.obj
 0001:000050a0       ??0__crt_stdio_stream@@QEAA@QEAU_iobuf@@@Z 00000001400060a0 f i libucrtd:output.obj
 0001:000050a0       ??0?$__crt_unique_heap_ptr@P6AXXZU__crt_internal_free_policy@@@@QEAA@QEAP6AXXZ@Z 00000001400060a0 f i libucrtd:onexit.obj
 0001:000050a0       ??0?$__crt_unique_handle_t@U__crt_hmodule_traits@@@@QEAA@QEAUHINSTANCE__@@@Z 00000001400060a0 f i libucrtd:exit.obj
 0001:000050a0       ??0?$__crt_unique_heap_ptr@EU__crt_internal_free_policy@@@@QEAA@QEAE@Z 00000001400060a0 f i libucrtd:argv_parsing.obj
 0001:000050a0       ??0__crt_stdio_stream@@QEAA@QEAU__crt_stdio_stream_data@@@Z 00000001400060a0 f i libucrtd:fflush.obj
 0001:000050a0       ??0?$__crt_unique_heap_ptr@DU__crt_internal_free_policy@@@@QEAA@QEAD@Z 00000001400060a0 f i libvcruntimed:std_type_info.obj
 0001:000050a0       ??0?$__crt_unique_heap_ptr@PEADU__crt_internal_free_policy@@@@QEAA@QEAPEAD@Z 00000001400060a0 f i libucrtd:argv_parsing.obj
 0001:000050a0       ??0?$__crt_unique_heap_ptr@DU__crt_public_free_policy@@@@QEAA@QEAD@Z 00000001400060a0 f i libvcruntimed:std_exception.obj
 0001:000050a0       ??0?$__crt_scoped_stack_ptr@_W@@QEAA@U?$__crt_scoped_stack_ptr_tag@_W@@@Z 00000001400060a0 f i libucrtd:getstringtypea.obj
 0001:000050a0       ??0?$string_output_adapter@_W@__crt_stdio_output@@QEAA@QEAU?$string_output_adapter_context@_W@1@@Z 00000001400060a0 f i libucrtd:output.obj
 0001:000050a0       ??0?$__crt_unique_handle_t@U__crt_findfile_traits@@@@QEAA@QEAX@Z 00000001400060a0 f i libucrtd:argv_wildcards.obj
 0001:000050c0       ??1?$__crt_unique_heap_ptr@U__crt_lowio_handle_data@@U__crt_internal_free_policy@@@@QEAA@XZ 00000001400060c0 f i libucrtd:osfinfo.obj
 0001:000050c0       ??1?$__crt_unique_heap_ptr@DU__crt_internal_free_policy@@@@QEAA@XZ 00000001400060c0 f i libvcruntimed:std_type_info.obj
 0001:000050c0       ??1?$__crt_unique_heap_ptr@U__vcrt_ptd@@U__crt_internal_free_policy@@@@QEAA@XZ 00000001400060c0 f i libvcruntimed:per_thread_data.obj
 0001:000050c0       ??1?$__crt_unique_heap_ptr@EU__crt_internal_free_policy@@@@QEAA@XZ 00000001400060c0 f i libucrtd:argv_parsing.obj
 0001:000050c0       ??1?$__crt_unique_heap_ptr@PEAU__crt_stdio_stream_data@@U__crt_internal_free_policy@@@@QEAA@XZ 00000001400060c0 f i libucrtd:_file.obj
 0001:000050c0       ??1?$__crt_unique_heap_ptr@U__crt_multibyte_data@@U__crt_internal_free_policy@@@@QEAA@XZ 00000001400060c0 f i libucrtd:wsetlocale.obj
 0001:000050c0       ??1?$__crt_unique_heap_ptr@U__acrt_ptd@@U__crt_internal_free_policy@@@@QEAA@XZ 00000001400060c0 f i libucrtd:per_thread_data.obj
 0001:000050c0       ??1?$__crt_unique_heap_ptr@P6AXXZU__crt_internal_free_policy@@@@QEAA@XZ 00000001400060c0 f i libucrtd:onexit.obj
 0001:000050c0       ??1?$__crt_unique_heap_ptr@PEADU__crt_internal_free_policy@@@@QEAA@XZ 00000001400060c0 f i libucrtd:argv_parsing.obj
 0001:000050e0       ??B?$__crt_unique_heap_ptr@U__acrt_ptd@@U__crt_internal_free_policy@@@@QEBA_NXZ 00000001400060e0 f i libucrtd:per_thread_data.obj
 0001:000050e0       ??B?$__crt_unique_heap_ptr@U__vcrt_ptd@@U__crt_internal_free_policy@@@@QEBA_NXZ 00000001400060e0 f i libvcruntimed:per_thread_data.obj
 0001:000050e0       ??B?$__crt_unique_heap_ptr@U__crt_multibyte_data@@U__crt_internal_free_policy@@@@QEBA_NXZ 00000001400060e0 f i libucrtd:wsetlocale.obj
 0001:000050e0       ??B?$__crt_unique_heap_ptr@DU__crt_internal_free_policy@@@@QEBA_NXZ 00000001400060e0 f i libvcruntimed:std_type_info.obj
 0001:000050e0       ??B?$__crt_unique_heap_ptr@DU__crt_public_free_policy@@@@QEBA_NXZ 00000001400060e0 f i libvcruntimed:std_exception.obj
 0001:000050e0       ??B?$__crt_unique_heap_ptr@U__crt_lowio_handle_data@@U__crt_internal_free_policy@@@@QEBA_NXZ 00000001400060e0 f i libucrtd:osfinfo.obj
 0001:000050e0       ??B?$__crt_unique_heap_ptr@EU__crt_internal_free_policy@@@@QEBA_NXZ 00000001400060e0 f i libucrtd:argv_parsing.obj
 0001:00005100       ?__crt_interlocked_read_64@@YA_JPED_J@Z 0000000140006100 f i libvcruntimed:std_type_info.obj
 0001:00005120       ?public_stream@__crt_stdio_stream@@QEBAPEAU_iobuf@@XZ 0000000140006120 f i libucrtd:output.obj
 0001:00005120       ?save_state@?$c_string_character_source@_W@__crt_strtox@@QEBAPEB_WXZ 0000000140006120 f i libucrtd:atox.obj
 0001:00005120       ?get@?$__crt_unique_heap_ptr@U__crt_multibyte_data@@U__crt_internal_free_policy@@@@QEBAPEAU__crt_multibyte_data@@XZ 0000000140006120 f i libucrtd:wsetlocale.obj
 0001:00005120       ?save_state@?$c_string_character_source@D@__crt_strtox@@QEBAPEBDXZ 0000000140006120 f i libucrtd:atox.obj
 0001:00005120       ?get@?$__crt_unique_heap_ptr@DU__crt_internal_free_policy@@@@QEBAPEADXZ 0000000140006120 f i libvcruntimed:std_type_info.obj
 0001:00005120       ?get@?$__crt_unique_heap_ptr@U__vcrt_ptd@@U__crt_internal_free_policy@@@@QEBAPEAU__vcrt_ptd@@XZ 0000000140006120 f i libvcruntimed:per_thread_data.obj
 0001:00005120       ?get@?$__crt_unique_heap_ptr@U__crt_lowio_handle_data@@U__crt_internal_free_policy@@@@QEBAPEAU__crt_lowio_handle_data@@XZ 0000000140006120 f i libucrtd:osfinfo.obj
 0001:00005120       ??C__crt_stdio_stream@@QEBAPEAU__crt_stdio_stream_data@@XZ 0000000140006120 f i libucrtd:output.obj
 0001:00005120       ?get@?$__crt_unique_heap_ptr@PEADU__crt_internal_free_policy@@@@QEBAPEAPEADXZ 0000000140006120 f i libucrtd:argv_parsing.obj
 0001:00005120       ?get@?$__crt_unique_handle_t@U__crt_findfile_traits@@@@QEBAPEAXXZ 0000000140006120 f i libucrtd:argv_wildcards.obj
 0001:00005120       ?get@?$__crt_unique_handle_t@U__crt_hmodule_traits@@@@QEBAPEAUHINSTANCE__@@XZ 0000000140006120 f i libucrtd:exit.obj
 0001:00005120       ?get@?$__crt_unique_heap_ptr@EU__crt_internal_free_policy@@@@QEBAPEAEXZ 0000000140006120 f i libucrtd:argv_parsing.obj
 0001:00005120       ?get@?$__crt_unique_heap_ptr@U__acrt_ptd@@U__crt_internal_free_policy@@@@QEBAPEAU__acrt_ptd@@XZ 0000000140006120 f i libucrtd:per_thread_data.obj
 0001:00005120       ?get@?$__crt_scoped_stack_ptr@_W@@QEBAPEA_WXZ 0000000140006120 f i libucrtd:getstringtypea.obj
 0001:00005120       ?get@?$__crt_unique_heap_ptr@DU__crt_public_free_policy@@@@QEBAPEADXZ 0000000140006120 f i libvcruntimed:std_exception.obj
 0001:00005130       ?is_valid@?$__crt_unique_heap_ptr@U__crt_lowio_handle_data@@U__crt_internal_free_policy@@@@QEBA_NXZ 0000000140006130 f i libucrtd:osfinfo.obj
 0001:00005130       ?is_valid@?$__crt_unique_heap_ptr@EU__crt_internal_free_policy@@@@QEBA_NXZ 0000000140006130 f i libucrtd:argv_parsing.obj
 0001:00005130       ??B?$__crt_scoped_stack_ptr@_W@@QEBA_NXZ 0000000140006130 f i libucrtd:lcmapstringa.obj
 0001:00005130       ?is_valid@?$__crt_unique_heap_ptr@DU__crt_public_free_policy@@@@QEBA_NXZ 0000000140006130 f i libvcruntimed:std_exception.obj
 0001:00005130       ?is_valid@?$__crt_unique_heap_ptr@DU__crt_internal_free_policy@@@@QEBA_NXZ 0000000140006130 f i libvcruntimed:std_type_info.obj
 0001:00005130       ?valid@__crt_stdio_stream@@QEBA_NXZ 0000000140006130 f i libucrtd:output.obj
 0001:00005130       ?is_valid@?$__crt_unique_heap_ptr@U__crt_multibyte_data@@U__crt_internal_free_policy@@@@QEBA_NXZ 0000000140006130 f i libucrtd:wsetlocale.obj
 0001:00005130       ?is_valid@?$__crt_unique_heap_ptr@U__vcrt_ptd@@U__crt_internal_free_policy@@@@QEBA_NXZ 0000000140006130 f i libvcruntimed:per_thread_data.obj
 0001:00005130       ?is_valid@?$__crt_unique_heap_ptr@U__acrt_ptd@@U__crt_internal_free_policy@@@@QEBA_NXZ 0000000140006130 f i libucrtd:per_thread_data.obj
 0001:00005160       ?release@?$__crt_unique_heap_ptr@PEAU__crt_stdio_stream_data@@U__crt_internal_free_policy@@@@QEAAXXZ 0000000140006160 f i libucrtd:_file.obj
 0001:00005160       ?release@?$__crt_unique_heap_ptr@U__vcrt_ptd@@U__crt_internal_free_policy@@@@QEAAXXZ 0000000140006160 f i libvcruntimed:per_thread_data.obj
 0001:00005160       ?release@?$__crt_unique_heap_ptr@PEADU__crt_internal_free_policy@@@@QEAAXXZ 0000000140006160 f i libucrtd:argv_parsing.obj
 0001:00005160       ?release@?$__crt_unique_heap_ptr@P6AXXZU__crt_internal_free_policy@@@@QEAAXXZ 0000000140006160 f i libucrtd:onexit.obj
 0001:00005160       ?release@?$__crt_unique_heap_ptr@U__crt_multibyte_data@@U__crt_internal_free_policy@@@@QEAAXXZ 0000000140006160 f i libucrtd:wsetlocale.obj
 0001:00005160       ?release@?$__crt_unique_heap_ptr@U__crt_lowio_handle_data@@U__crt_internal_free_policy@@@@QEAAXXZ 0000000140006160 f i libucrtd:osfinfo.obj
 0001:00005160       ?release@?$__crt_unique_heap_ptr@U__acrt_ptd@@U__crt_internal_free_policy@@@@QEAAXXZ 0000000140006160 f i libucrtd:per_thread_data.obj
 0001:00005160       ?release@?$__crt_unique_heap_ptr@DU__crt_internal_free_policy@@@@QEAAXXZ 0000000140006160 f i libvcruntimed:std_type_info.obj
 0001:00005160       ?release@?$__crt_unique_heap_ptr@EU__crt_internal_free_policy@@@@QEAAXXZ 0000000140006160 f i libucrtd:argv_parsing.obj
 0001:00005190       __std_type_info_compare    0000000140006190 f   libvcruntimed:std_type_info.obj
 0001:000051d0       __DestructExceptionObject  00000001400061d0 f   libvcruntimed:ehhelpers.obj
 0001:000052d0       ?_CallMemberFunction0@@YAXQEAX0@Z 00000001400062d0 f i libvcruntimed:ehhelpers.obj
 0001:000053a0       _IsExceptionObjectToBeDestroyed 00000001400063a0 f   libvcruntimed:ehhelpers.obj
 0001:000053f0       __AdjustPointer            00000001400063f0 f   libvcruntimed:ehhelpers.obj
 0001:00005470       __FrameUnwindFilter        0000000140006470 f   libvcruntimed:ehhelpers.obj
 0001:00005520       __current_exception        0000000140006520 f   libvcruntimed:ehhelpers.obj
 0001:00005540       __current_exception_context 0000000140006540 f   libvcruntimed:ehhelpers.obj
 0001:00005570       _NLG_Notify                0000000140006570 f   libvcruntimed:notify.obj
 0001:00005590       __NLG_Dispatch2            0000000140006590 f   libvcruntimed:notify.obj
 0001:000055a0       __NLG_Return2              00000001400065a0 f   libvcruntimed:notify.obj
 0001:000055b0       __except_validate_context_record 00000001400065b0 f   libvcruntimed:jbcxrval.obj
 0001:00005650       ?detach@?$__crt_unique_heap_ptr@DU__crt_public_free_policy@@@@QEAAPEADXZ 0000000140006650 f i libvcruntimed:std_exception.obj
 0001:00005650       ?detach@?$__crt_unique_heap_ptr@U__acrt_ptd@@U__crt_internal_free_policy@@@@QEAAPEAU__acrt_ptd@@XZ 0000000140006650 f i libucrtd:per_thread_data.obj
 0001:00005650       ?detach@?$__crt_unique_heap_ptr@PEAU__crt_stdio_stream_data@@U__crt_internal_free_policy@@@@QEAAPEAPEAU__crt_stdio_stream_data@@XZ 0000000140006650 f i libucrtd:_file.obj
 0001:00005650       ?detach@?$__crt_unique_heap_ptr@U__crt_multibyte_data@@U__crt_internal_free_policy@@@@QEAAPEAU__crt_multibyte_data@@XZ 0000000140006650 f i libucrtd:wsetlocale.obj
 0001:00005650       ?detach@?$__crt_unique_heap_ptr@U__vcrt_ptd@@U__crt_internal_free_policy@@@@QEAAPEAU__vcrt_ptd@@XZ 0000000140006650 f i libvcruntimed:per_thread_data.obj
 0001:00005650       ?detach@?$__crt_unique_heap_ptr@EU__crt_internal_free_policy@@@@QEAAPEAEXZ 0000000140006650 f i libucrtd:argv_parsing.obj
 0001:00005650       ?detach@?$__crt_unique_heap_ptr@PEADU__crt_internal_free_policy@@@@QEAAPEAPEADXZ 0000000140006650 f i libucrtd:argv_parsing.obj
 0001:00005650       ?detach@?$__crt_unique_heap_ptr@P6AXXZU__crt_internal_free_policy@@@@QEAAPEAP6AXXZXZ 0000000140006650 f i libucrtd:onexit.obj
 0001:00005650       ?detach@?$__crt_unique_heap_ptr@U__crt_lowio_handle_data@@U__crt_internal_free_policy@@@@QEAAPEAU__crt_lowio_handle_data@@XZ 0000000140006650 f i libucrtd:osfinfo.obj
 0001:000056c0       __vcrt_freefls             00000001400066c0 f   libvcruntimed:per_thread_data.obj
 0001:00005700       __vcrt_getptd              0000000140006700 f   libvcruntimed:per_thread_data.obj
 0001:00005730       __vcrt_getptd_noexit       0000000140006730 f   libvcruntimed:per_thread_data.obj
 0001:000058d0       __vcrt_initialize_ptd      00000001400068d0 f   libvcruntimed:per_thread_data.obj
 0001:00005920       __vcrt_uninitialize_ptd    0000000140006920 f   libvcruntimed:per_thread_data.obj
 0001:00005950       __vcrt_initialize_locks    0000000140006950 f   libvcruntimed:locks.obj
 0001:000059c0       __vcrt_uninitialize_locks  00000001400069c0 f   libvcruntimed:locks.obj
 0001:00005a20       _vsprintf_s_l              0000000140006a20 f i libvcruntimed:undname.obj
 0001:00005a90       sprintf_s                  0000000140006a90 f i libvcruntimed:undname.obj
 0001:00005af0       ??$__crt_interlocked_exchange_pointer@UHINSTANCE__@@PEAU1@@@YAPEAUHINSTANCE__@@PEDSEAU0@QEAU0@@Z 0000000140006af0 f i libvcruntimed:winapi_downlevel.obj
 0001:00005af0       ??$__crt_interlocked_exchange_pointer@XPEAX@@YAPEAXPEDSEAXQEAX@Z 0000000140006af0 f i libvcruntimed:winapi_downlevel.obj
 0001:00005af0       ??$__crt_interlocked_exchange_pointer@UHINSTANCE__@@PEAX@@YAPEAUHINSTANCE__@@PEDSEAU0@QEAX@Z 0000000140006af0 f i libvcruntimed:winapi_downlevel.obj
 0001:00005b10       ??$__crt_interlocked_read_pointer@UHINSTANCE__@@@@YAPEAUHINSTANCE__@@PEDSEAU0@@Z 0000000140006b10 f i libvcruntimed:winapi_downlevel.obj
 0001:00005b10       ??$__crt_interlocked_read_pointer@X@@YAPEAXPEDSEAX@Z 0000000140006b10 f i libvcruntimed:winapi_downlevel.obj
 0001:00005b30       ?get_invalid_value@__crt_findfile_traits@@SAPEAXXZ 0000000140006b30 f   libucrtd:argv_wildcards.obj
 0001:00006020       __vcrt_FlsAlloc            0000000140007020 f   libvcruntimed:winapi_downlevel.obj
 0001:00006070       __vcrt_FlsFree             0000000140007070 f   libvcruntimed:winapi_downlevel.obj
 0001:000060c0       __vcrt_FlsGetValue         00000001400070c0 f   libvcruntimed:winapi_downlevel.obj
 0001:00006110       __vcrt_FlsSetValue         0000000140007110 f   libvcruntimed:winapi_downlevel.obj
 0001:00006170       __vcrt_InitializeCriticalSectionEx 0000000140007170 f   libvcruntimed:winapi_downlevel.obj
 0001:000061f0       memcpy_repmovs             00000001400071f0 f   libvcruntimed:memcpy.obj
 0001:00006210       memcpy                     0000000140007210 f   libvcruntimed:memcpy.obj
 0001:00006210       memmove                    0000000140007210 f   libvcruntimed:memcpy.obj
 0001:00006890       ??$?0AEAViterator@TryBlockMap@__FrameHandler3@@AEAV012@$0A@@?$pair@Viterator@TryBlockMap@__FrameHandler3@@V123@@std@@QEAA@AEAViterator@TryBlockMap@__FrameHandler3@@0@Z 0000000140007890 f i libvcruntimed:risctrnsctrl.obj
 0001:000069a0       ??$_CallSETranslator@V__FrameHandler3@@@@YAHPEAUEHExceptionRecord@@PEA_KPEAU_CONTEXT@@PEAU_xDISPATCHER_CONTEXT@@PEBU_s_FuncInfo@@K1H@Z 00000001400079a0 f i libvcruntimed:risctrnsctrl.obj
 0001:00006a30       ?debug_info@?$__crt_win32_buffer@DU__crt_win32_buffer_no_resizing@@@@QEBAAEBV__crt_win32_buffer_empty_debug_info@@XZ 0000000140007a30 f i libucrtd:getmodulefilenamea.obj
 0001:00006a30       ?dangerous_get_state_array@?$dual_state_global@PEAU__crt_locale_data@@@__crt_state_management@@QEAAPEAPEAU__crt_locale_data@@XZ 0000000140007a30 f i libucrtd:per_thread_data.obj
 0001:00006a30       ?dangerous_get_state_array@?$dual_state_global@PEAU__crt_multibyte_data@@@__crt_state_management@@QEAAPEAPEAU__crt_multibyte_data@@XZ 0000000140007a30 f i libucrtd:mbctype.obj
 0001:00006a30       ?get_address_of@?$__crt_unique_heap_ptr@PEADU__crt_internal_free_policy@@@@QEAAPEAPEAPEADXZ 0000000140007a30 f i libucrtd:argv_parsing.obj
 0001:00006a30       ?dangerous_get_state_array@?$dual_state_global@H@__crt_state_management@@QEAAPEAHXZ 0000000140007a30 f i libucrtd:txtmode.obj
 0001:00006a30       ??$forward@AEAViterator@TryBlockMap@__FrameHandler3@@@std@@YAAEAViterator@TryBlockMap@__FrameHandler3@@AEAV123@@Z 0000000140007a30 f i libvcruntimed:risctrnsctrl.obj
 0001:00006a30       ?dangerous_get_state_array@?$dual_state_global@P6AXPEB_W00I_K@Z@__crt_state_management@@QEAAPEAP6AXPEB_W00I_K@ZXZ 0000000140007a30 f i libucrtd:invalid_parameter.obj
 0001:00006a30       ?debug_info@?$__crt_win32_buffer@DU__crt_win32_buffer_internal_dynamic_resizing@@@@QEBAAEBV__crt_win32_buffer_empty_debug_info@@XZ 0000000140007a30 f i libucrtd:argv_wildcards.obj
 0001:00006a30       ?debug_info@?$__crt_win32_buffer@_WU__crt_win32_buffer_internal_dynamic_resizing@@@@QEBAAEBV__crt_win32_buffer_empty_debug_info@@XZ 0000000140007a30 f i libucrtd:argv_wildcards.obj
 0001:00006a30       ?dangerous_get_state_array@?$dual_state_global@PEAE@__crt_state_management@@QEAAPEAPEAEXZ 0000000140007a30 f i libucrtd:mbctype.obj
 0001:00006a30       ?get_address_of@?$__crt_unique_handle_t@U__crt_hmodule_traits@@@@QEAAPEAPEAUHINSTANCE__@@XZ 0000000140007a30 f i libucrtd:exit.obj
 0001:00006a40       ??0iterator@TryBlockMap@__FrameHandler3@@QEAA@AEAV12@I@Z 0000000140007a40 f i libvcruntimed:risctrnsctrl.obj
 0001:00006a40       ??0iterator@HandlerMap@__FrameHandler3@@QEAA@AEAV12@I@Z 0000000140007a40 f i libvcruntimed:frame.obj
 0001:00006a70       ?CatchTryBlock@__FrameHandler3@@SAPEBU_s_TryBlockMapEntry@@PEBU_s_FuncInfo@@H@Z 0000000140007a70 f   libvcruntimed:risctrnsctrl.obj
 0001:00006b00       ?ExecutionInCatch@__FrameHandler3@@SA_NPEAU_xDISPATCHER_CONTEXT@@PEBU_s_FuncInfo@@@Z 0000000140007b00 f   libvcruntimed:risctrnsctrl.obj
 0001:00006b50       ?FrameUnwindToEmptyState@__FrameHandler3@@SAXPEA_KPEAU_xDISPATCHER_CONTEXT@@PEBU_s_FuncInfo@@@Z 0000000140007b50 f   libvcruntimed:risctrnsctrl.obj
 0001:00006bf0       ?GetEstablisherFrame@__FrameHandler3@@SAPEA_KPEA_KPEAU_xDISPATCHER_CONTEXT@@PEBU_s_FuncInfo@@0@Z 0000000140007bf0 f   libvcruntimed:risctrnsctrl.obj
 0001:00006d60       ?GetRangeOfTrysToCheck@__FrameHandler3@@SA?AU?$pair@Viterator@TryBlockMap@__FrameHandler3@@V123@@std@@AEAVTryBlockMap@1@HPEAU_xDISPATCHER_CONTEXT@@PEBU_s_FuncInfo@@H@Z 0000000140007d60 f   libvcruntimed:risctrnsctrl.obj
 0001:00006fa0       ?UnwindNestedFrames@__FrameHandler3@@SAXPEA_KPEAUEHExceptionRecord@@PEAU_CONTEXT@@0PEAXPEBU_s_FuncInfo@@HHPEBU_s_HandlerType@@PEAU_xDISPATCHER_CONTEXT@@E@Z 0000000140007fa0 f   libvcruntimed:risctrnsctrl.obj
 0001:00007110       _CreateFrameInfo           0000000140008110 f   libvcruntimed:risctrnsctrl.obj
 0001:00007180       _FindAndUnlinkFrame        0000000140008180 f   libvcruntimed:risctrnsctrl.obj
 0001:00007200       _GetImageBase              0000000140008200 f   libvcruntimed:risctrnsctrl.obj
 0001:00007220       _GetThrowImageBase         0000000140008220 f   libvcruntimed:risctrnsctrl.obj
 0001:00007240       _SetImageBase              0000000140008240 f   libvcruntimed:risctrnsctrl.obj
 0001:00007260       _SetThrowImageBase         0000000140008260 f   libvcruntimed:risctrnsctrl.obj
 0001:00007280       __CxxFrameHandler3         0000000140008280 f   libvcruntimed:risctrnsctrl.obj
 0001:00007360       ?GetCurrentState@__FrameHandler3@@SAHPEA_KPEAU_xDISPATCHER_CONTEXT@@PEBU_s_FuncInfo@@@Z 0000000140008360 f   libvcruntimed:ehstate.obj
 0001:000073c0       ?GetUnwindTryBlock@__FrameHandler3@@SAHPEA_KPEAU_xDISPATCHER_CONTEXT@@PEBU_s_FuncInfo@@@Z 00000001400083c0 f   libvcruntimed:ehstate.obj
 0001:00007410       ?SetState@__FrameHandler3@@SAXPEA_KPEBU_s_FuncInfo@@H@Z 0000000140008410 f   libvcruntimed:ehstate.obj
 0001:00007440       ?SetUnwindTryBlock@__FrameHandler3@@SAXPEA_KPEAU_xDISPATCHER_CONTEXT@@PEBU_s_FuncInfo@@H@Z 0000000140008440 f   libvcruntimed:ehstate.obj
 0001:000074b0       ?StateFromControlPc@__FrameHandler3@@SAHPEBU_s_FuncInfo@@PEAU_xDISPATCHER_CONTEXT@@@Z 00000001400084b0 f   libvcruntimed:ehstate.obj
 0001:000074f0       ?StateFromIp@__FrameHandler3@@SAHPEBU_s_FuncInfo@@PEAU_xDISPATCHER_CONTEXT@@_K@Z 00000001400084f0 f   libvcruntimed:ehstate.obj
 0001:000075e0       ?__RVAtoRealOffset@@YA_KPEAU_xDISPATCHER_CONTEXT@@H@Z 00000001400085e0 f i libvcruntimed:ehstate.obj
 0001:000087b0       ??$TypeMatchHelper@V__FrameHandler3@@@@YAHPEBU_s_HandlerType@@PEBU_s_CatchableType@@PEBU_s_ThrowInfo@@@Z 00000001400097b0 f i libvcruntimed:frame.obj
 0001:000089b0       ??$__InternalCxxFrameHandler@V__FrameHandler3@@@@YA?AW4_EXCEPTION_DISPOSITION@@PEAUEHExceptionRecord@@PEA_KPEAU_CONTEXT@@PEAU_xDISPATCHER_CONTEXT@@PEBU_s_FuncInfo@@H1E@Z 00000001400099b0 f i libvcruntimed:frame.obj
 0001:00008e20       ??0HandlerMap@__FrameHandler3@@QEAA@PEBU_s_TryBlockMapEntry@@_KI@Z 0000000140009e20 f i libvcruntimed:frame.obj
 0001:00008e70       ??0TryBlockMap@__FrameHandler3@@QEAA@PEBU_s_FuncInfo@@_K@Z 0000000140009e70 f i libvcruntimed:frame.obj
 0001:00008ea0       ??0bad_exception@std@@QEAA@AEBV01@@Z 0000000140009ea0 f i libvcruntimed:frame.obj
 0001:00008ee0       ??0bad_exception@std@@QEAA@XZ 0000000140009ee0 f i libvcruntimed:frame.obj
 0001:00008f20       ??0exception@std@@QEAA@AEBV01@@Z 0000000140009f20 f i libvcruntimed:frame.obj
 0001:00008f80       ??0exception@std@@QEAA@QEBDH@Z 0000000140009f80 f i libvcruntimed:frame.obj
 0001:00008fd0       ??1bad_exception@std@@UEAA@XZ 0000000140009fd0 f i libvcruntimed:frame.obj
 0001:00008ff0       ??1exception@std@@UEAA@XZ  0000000140009ff0 f i libvcruntimed:frame.obj
 0001:00009020       ??8iterator@HandlerMap@__FrameHandler3@@QEBA_NAEBV012@@Z 000000014000a020 f i libvcruntimed:frame.obj
 0001:00009060       ??8type_info@@QEBA_NAEBV0@@Z 000000014000a060 f i libvcruntimed:frame.obj
 0001:000090b0       ??9iterator@HandlerMap@__FrameHandler3@@QEBA_NAEBV012@@Z 000000014000a0b0 f i libvcruntimed:frame.obj
 0001:000090f0       ??Diterator@HandlerMap@__FrameHandler3@@QEAA?BU_s_HandlerType@@XZ 000000014000a0f0 f i libvcruntimed:frame.obj
 0001:00009130       ??Diterator@TryBlockMap@__FrameHandler3@@QEAA?BU_s_TryBlockMapEntry@@XZ 000000014000a130 f i libvcruntimed:frame.obj
 0001:00009180       ??Eiterator@TryBlockMap@__FrameHandler3@@QEAAAEAV012@XZ 000000014000a180 f i libvcruntimed:frame.obj
 0001:00009180       ??Eiterator@HandlerMap@__FrameHandler3@@QEAAAEAV012@XZ 000000014000a180 f i libvcruntimed:frame.obj
 0001:000091a0       ??Miterator@TryBlockMap@__FrameHandler3@@QEBA_NAEBV012@@Z 000000014000a1a0 f i libvcruntimed:frame.obj
 0001:000091e0       ??_Gbad_exception@std@@UEAAPEAXI@Z 000000014000a1e0 f i libvcruntimed:frame.obj
 0001:000091e0       ??_Ebad_exception@std@@UEAAPEAXI@Z 000000014000a1e0 f i libvcruntimed:frame.obj
 0001:00009220       ??_Gexception@std@@UEAAPEAXI@Z 000000014000a220 f i libvcruntimed:frame.obj
 0001:00009220       ??_Eexception@std@@UEAAPEAXI@Z 000000014000a220 f i libvcruntimed:frame.obj
 0001:00009260       ?BuildCatchObject@__FrameHandler3@@SAXPEAUEHExceptionRecord@@PEAXPEBU_s_HandlerType@@PEBU_s_CatchableType@@@Z 000000014000a260 f   libvcruntimed:frame.obj
 0001:000092a0       ?CxxCallCatchBlock@__FrameHandler3@@SAPEAXPEAU_EXCEPTION_RECORD@@@Z 000000014000a2a0 f   libvcruntimed:frame.obj
 0001:00009600       ?FrameUnwindToState@__FrameHandler3@@SAXPEA_KPEAU_xDISPATCHER_CONTEXT@@PEBU_s_FuncInfo@@H@Z 000000014000a600 f   libvcruntimed:frame.obj
 0001:00009850       ?GetHandlerSearchState@__FrameHandler3@@SAHPEA_KPEAU_xDISPATCHER_CONTEXT@@PEBU_s_FuncInfo@@@Z 000000014000a850 f i libvcruntimed:frame.obj
 0001:00009900       ?GetMaxState@__FrameHandler3@@SAHPEAU_xDISPATCHER_CONTEXT@@PEBU_s_FuncInfo@@@Z 000000014000a900 f i libvcruntimed:frame.obj
 0001:00009b00       __TypeMatch                000000014000ab00 f   libvcruntimed:frame.obj
 0001:00009b00       ?TypeMatch@__FrameHandler3@@SAHPEBU_s_HandlerType@@PEBU_s_CatchableType@@PEBU_s_ThrowInfo@@@Z 000000014000ab00 f   libvcruntimed:frame.obj
 0001:00009b30       ?_CallMemberFunction1@@YAXQEAX00@Z 000000014000ab30 f i libvcruntimed:frame.obj
 0001:00009b70       ?_CallMemberFunction2@@YAXQEAX00H@Z 000000014000ab70 f i libvcruntimed:frame.obj
 0001:00009c00       ?begin@HandlerMap@__FrameHandler3@@QEAA?AViterator@12@XZ 000000014000ac00 f i libvcruntimed:frame.obj
 0001:00009c30       ?end@HandlerMap@__FrameHandler3@@QEAA?AViterator@12@XZ 000000014000ac30 f i libvcruntimed:frame.obj
 0001:00009c60       ?getESTypes@__FrameHandler3@@SAPEBU_s_ESTypeList@@PEBU_s_FuncInfo@@@Z 000000014000ac60 f i libvcruntimed:frame.obj
 0001:00009ca0       ?getLastEntry@HandlerMap@__FrameHandler3@@QEAAPEBU_s_HandlerType@@XZ 000000014000aca0 f i libvcruntimed:frame.obj
 0001:00009cc0       ?getMagicNum@__FrameHandler3@@SAIPEBU_s_FuncInfo@@@Z 000000014000acc0 f i libvcruntimed:frame.obj
 0001:00009ce0       ?getNumTryBlocks@TryBlockMap@__FrameHandler3@@QEAAIXZ 000000014000ace0 f i libvcruntimed:frame.obj
 0001:00009d00       ?isEHs@__FrameHandler3@@SA_NPEBU_s_FuncInfo@@@Z 000000014000ad00 f i libvcruntimed:frame.obj
 0001:00009d40       ?isNoExcept@__FrameHandler3@@SA_NPEBU_s_FuncInfo@@@Z 000000014000ad40 f i libvcruntimed:frame.obj
 0001:00009d80       ?what@exception@std@@UEBAPEBDXZ 000000014000ad80 f i libvcruntimed:frame.obj
 0001:00009dc0       __vcrt_EncodePointer       000000014000adc0 f i libvcruntimed:frame.obj
 0001:00009df0       memset_repmovs             000000014000adf0 f   libvcruntimed:memset.obj
 0001:00009e10       memset                     000000014000ae10 f   libvcruntimed:memset.obj
 0001:00009fb0       _CallSettingFrame          000000014000afb0 f   libvcruntimed:handlers.obj
 0001:0000a000       _CallSettingFrame_LookupContinuationIndex 000000014000b000 f   libvcruntimed:handlers.obj
 0001:0000a030       _CallSettingFrame_NotifyContinuationAddr 000000014000b030 f   libvcruntimed:handlers.obj
 0001:0000a060       _CallSettingFrameEncoded   000000014000b060 f   libvcruntimed:handlers.obj
 0001:0000a0b0       ??$?RD@__crt_public_free_policy@@QEBAXQEBD@Z 000000014000b0b0 f i libvcruntimed:std_exception.obj
 0001:0000a0d0       ??1?$__crt_unique_heap_ptr@DU__crt_public_free_policy@@@@QEAA@XZ 000000014000b0d0 f i libvcruntimed:std_exception.obj
 0001:0000a0f0       ?release@?$__crt_unique_heap_ptr@DU__crt_public_free_policy@@@@QEAAXXZ 000000014000b0f0 f i libvcruntimed:std_exception.obj
 0001:0000a120       __std_exception_copy       000000014000b120 f   libvcruntimed:std_exception.obj
 0001:0000a260       __std_exception_destroy    000000014000b260 f   libvcruntimed:std_exception.obj
 0001:0000a2a0       _CxxThrowException         000000014000b2a0 f   libvcruntimed:throw.obj
 0001:0000a440       _seh_filter_exe            000000014000b440 f   libucrtd:exception_filter.obj
 0001:0000a8b0       __acrt_report_runtime_error 000000014000b8b0 f   libucrtd:report_runtime_error.obj
 0001:0000ab30       _invoke_watson_if_error    000000014000bb30 f i libucrtd:report_runtime_error.obj
 0001:0000ab80       _query_app_type            000000014000bb80 f   libucrtd:report_runtime_error.obj
 0001:0000ab90       _set_app_type              000000014000bb90 f   libucrtd:report_runtime_error.obj
 0001:0000aba0       ??$__crt_fast_decode_pointer@PEAP6AXXZ@@YAPEAP6AXXZQEAP6AXXZ@Z 000000014000bba0 f i libucrtd:onexit.obj
 0001:0000aba0       ??$__crt_fast_decode_pointer@P6AXH@Z@@YAP6AXH@ZQ6AXH@Z@Z 000000014000bba0 f i libucrtd:signal.obj
 0001:0000aba0       ??$__crt_fast_decode_pointer@P6AXPEAXK0@Z@@YAP6AXPEAXK0@ZQ6AX0K0@Z@Z 000000014000bba0 f i libucrtd:exit.obj
 0001:0000aba0       ??$__crt_fast_decode_pointer@P6AHPEAU_exception@@@Z@@YAP6AHPEAU_exception@@@ZQ6AH0@Z@Z 000000014000bba0 f i libucrtd:matherr.obj
 0001:0000aba0       ??$__crt_fast_decode_pointer@P6AXXZ@@YAP6AXXZQ6AXXZ@Z 000000014000bba0 f i libucrtd:onexit.obj
 0001:0000aba0       ??$__crt_fast_decode_pointer@P6AH_K@Z@@YAP6AH_K@ZQ6AH0@Z@Z 000000014000bba0 f i libucrtd:new_handler.obj
 0001:0000aba0       ??$__crt_fast_decode_pointer@P6AXPEB_W00I_K@Z@@YAP6AXPEB_W00I_K@ZQ6AX000I1@Z@Z 000000014000bba0 f i libucrtd:invalid_parameter.obj
 0001:0000aba0       ??$__crt_fast_decode_pointer@PEAX@@YAPEAXQEAX@Z 000000014000bba0 f i libucrtd:winapi_thunks.obj
 0001:0000abe0       ??$__crt_fast_encode_pointer@P6AXPEAXK0@Z@@YAP6AXPEAXK0@ZQ6AX0K0@Z@Z 000000014000bbe0 f i libucrtd:exit.obj
 0001:0000abe0       ??$__crt_fast_encode_pointer@PEAP6AXXZ@@YAPEAP6AXXZQEAP6AXXZ@Z 000000014000bbe0 f i libucrtd:onexit.obj
 0001:0000abe0       ??$__crt_fast_encode_pointer@PEAX@@YAPEAXQEAX@Z 000000014000bbe0 f i libucrtd:initialization.obj
 0001:0000abe0       ??$__crt_fast_encode_pointer@P6AXXZ@@YAP6AXXZQ6AXXZ@Z 000000014000bbe0 f i libucrtd:onexit.obj
 0001:0000abe0       ??$__crt_fast_encode_pointer@P6AXH@Z@@YAP6AXH@ZQ6AXH@Z@Z 000000014000bbe0 f i libucrtd:signal.obj
 0001:0000abe0       ??$__crt_fast_encode_pointer@P6AHXZ@@YAP6AHXZQ6AHXZ@Z 000000014000bbe0 f i libucrtd:onexit.obj
 0001:0000abe0       ??$__crt_fast_encode_pointer@P6AHPEAU_exception@@@Z@@YAP6AHPEAU_exception@@@ZQ6AH0@Z@Z 000000014000bbe0 f i libucrtd:matherr.obj
 0001:0000ac20       ?__crt_rotate_pointer_value@@YA_K_KH@Z 000000014000bc20 f i libucrtd:matherr.obj
 0001:0000ac40       ?initialize@?$dual_state_global@P6AHPEAU_exception@@@Z@__crt_state_management@@QEAAXQ6AHPEAU_exception@@@Z@Z 000000014000bc40 f i libucrtd:matherr.obj
 0001:0000ac40       ?initialize@?$dual_state_global@P6AH_K@Z@__crt_state_management@@QEAAXQ6AH_K@Z@Z 000000014000bc40 f i libucrtd:new_handler.obj
 0001:0000ac40       ?initialize@?$dual_state_global@PEAU__crt_multibyte_data@@@__crt_state_management@@QEAAXQEAU__crt_multibyte_data@@@Z 000000014000bc40 f i libucrtd:mbctype.obj
 0001:0000ac40       ?initialize@?$dual_state_global@P6AXH@Z@__crt_state_management@@QEAAXQ6AXH@Z@Z 000000014000bc40 f i libucrtd:signal.obj
 0001:0000ac40       ?initialize@?$dual_state_global@PEAU__crt_locale_data@@@__crt_state_management@@QEAAXQEAU__crt_locale_data@@@Z 000000014000bc40 f i libucrtd:initialization.obj
 0001:0000ac90       ?value@?$dual_state_global@P6AXH@Z@__crt_state_management@@QEAAAEAP6AXH@ZXZ 000000014000bc90 f i libucrtd:signal.obj
 0001:0000ac90       ?value@?$dual_state_global@PEAU__crt_multibyte_data@@@__crt_state_management@@QEAAAEAPEAU__crt_multibyte_data@@XZ 000000014000bc90 f i libucrtd:mbctype.obj
 0001:0000ac90       ?value@?$dual_state_global@P6AH_K@Z@__crt_state_management@@QEAAAEAP6AH_K@ZXZ 000000014000bc90 f i libucrtd:new_handler.obj
 0001:0000ac90       ?value@?$dual_state_global@PEAU__crt_locale_data@@@__crt_state_management@@QEAAAEAPEAU__crt_locale_data@@XZ 000000014000bc90 f i libucrtd:wsetlocale.obj
 0001:0000ac90       ?value@?$dual_state_global@PEAE@__crt_state_management@@QEAAAEAPEAEXZ 000000014000bc90 f i libucrtd:mbctype.obj
 0001:0000ac90       ?value@?$dual_state_global@P6AHPEAU_exception@@@Z@__crt_state_management@@QEAAAEAP6AHPEAU_exception@@@ZXZ 000000014000bc90 f i libucrtd:matherr.obj
 0001:0000ac90       ?value@?$dual_state_global@P6AXPEB_W00I_K@Z@__crt_state_management@@QEAAAEAP6AXPEB_W00I_K@ZXZ 000000014000bc90 f i libucrtd:invalid_parameter.obj
 0001:0000acb0       __acrt_has_user_matherr    000000014000bcb0 f   libucrtd:matherr.obj
 0001:0000acf0       __acrt_initialize_user_matherr 000000014000bcf0 f   libucrtd:matherr.obj
 0001:0000ad10       __acrt_invoke_user_matherr 000000014000bd10 f   libucrtd:matherr.obj
 0001:0000ad60       __setusermatherr           000000014000bd60 f   libucrtd:matherr.obj
 0001:0000b130       ??$get_module_file_name@$$TAEAY0BAF@DH@?$__crt_char_traits@D@@SAK$$QEA$$TAEAY0BAF@D$$QEAH@Z 000000014000c130 f i libucrtd:argv_parsing.obj
 0001:0000b130       ??$get_module_file_name@AEAPEAUHINSTANCE__@@AEAY0BAF@DK@?$__crt_char_traits@D@@SAKAEAPEAUHINSTANCE__@@AEAY0BAF@D$$QEAK@Z 000000014000c130 f i libucrtd:dbgrpt.obj
 0001:0000b600       ??$set_program_name@PEAD@?$__crt_char_traits@D@@SAX$$QEAPEAD@Z 000000014000c600 f i libucrtd:argv_parsing.obj
 0001:0000b730       __acrt_allocate_buffer_for_argv 000000014000c730 f   libucrtd:argv_parsing.obj
 0001:0000b850       _configure_narrow_argv     000000014000c850 f   libucrtd:argv_parsing.obj
 0001:0000b870       _set_pgmptr                000000014000c870 f i libucrtd:argv_parsing.obj
 0001:0000baa0       ??$tcslen@AEAPEAD@?$__crt_char_traits@D@@SA_KAEAPEAD@Z 000000014000caa0 f i libucrtd:environment_initialization.obj
 0001:0000baec       ??B?$__crt_unique_heap_ptr@PEADU__crt_internal_free_policy@@@@QEBA_NXZ 000000014000caec f i libucrtd:environment_initialization.obj
 0001:0000baf4       ?detach@?$__crt_unique_heap_ptr@DU__crt_internal_free_policy@@@@QEAAPEADXZ 000000014000caf4 f i libucrtd:environment_initialization.obj
 0001:0000bafc       __dcrt_uninitialize_environments_nolock 000000014000cafc f   libucrtd:environment_initialization.obj
 0001:0000bb34       _initialize_narrow_environment 000000014000cb34 f   libucrtd:environment_initialization.obj
 0001:0000bc80       _get_narrow_winmain_command_line 000000014000cc80 f   libucrtd:argv_winmain.obj
 0001:0000bc90       _initterm                  000000014000cc90 f   libucrtd:initterm.obj
 0001:0000bcf0       _initterm_e                000000014000ccf0 f   libucrtd:initterm.obj
 0001:0000bd70       ??$?BP6AXXZ@__crt_fast_encoded_nullptr_t@@QEBAPEAP6AXXZXZ 000000014000cd70 f i libucrtd:onexit.obj
 0001:0000bd70       ??$?B$$A6AXH@Z@__crt_fast_encoded_nullptr_t@@QEBAP6AXH@ZXZ 000000014000cd70 f i libucrtd:signal.obj
 0001:0000bd70       ??$?BX@__crt_fast_encoded_nullptr_t@@QEBAPEAXXZ 000000014000cd70 f i libucrtd:initialization.obj
 0001:0000bd70       ??$?B$$A6AXPEAXK0@Z@__crt_fast_encoded_nullptr_t@@QEBAP6AXPEAXK0@ZXZ 000000014000cd70 f i libucrtd:exit.obj
 0001:0000bd70       ??$?B$$A6AXXZ@__crt_fast_encoded_nullptr_t@@QEBAP6AXXZXZ 000000014000cd70 f i libucrtd:onexit.obj
 0001:0000be20       ??$__crt_get_proc_address@P6AXI@Z@@YAP6AXI@ZQEAUHINSTANCE__@@QEBD@Z 000000014000ce20 f i libucrtd:exit.obj
 0001:0000be50       ??$__crt_interlocked_read@J@@YAJPEDJ@Z 000000014000ce50 f i libucrtd:exit.obj
 0001:0000bee0       ??1?$__crt_unique_handle_t@U__crt_hmodule_traits@@@@QEAA@XZ 000000014000cee0 f i libucrtd:exit.obj
 0001:0000c040       ?__acrt_select_exit_lock@@YA?AW4__acrt_lock_id@@XZ 000000014000d040 f i libucrtd:exit.obj
 0001:0000c050       ?__crt_fast_encode_pointer@@YA?AU__crt_fast_encoded_nullptr_t@@$$T@Z 000000014000d050 f i libucrtd:exit.obj
 0001:0000c070       ?__crt_interlocked_read_32@@YAHPEDH@Z 000000014000d070 f i libucrtd:exit.obj
 0001:0000c0b0       ?close@?$__crt_unique_handle_t@U__crt_hmodule_traits@@@@QEAAXXZ 000000014000d0b0 f i libucrtd:exit.obj
 0001:0000c0f0       ?close@__crt_hmodule_traits@@SA_NPEAUHINSTANCE__@@@Z 000000014000d0f0 f i libucrtd:exit.obj
 0001:0000c3b0       __acrt_initialize_thread_local_exit_callback 000000014000d3b0 f   libucrtd:exit.obj
 0001:0000c3d0       _c_exit                    000000014000d3d0 f   libucrtd:exit.obj
 0001:0000c3f0       _cexit                     000000014000d3f0 f   libucrtd:exit.obj
 0001:0000c410       _exit                      000000014000d410 f   libucrtd:exit.obj
 0001:0000c430       _register_thread_local_exe_atexit_callback 000000014000d430 f   libucrtd:exit.obj
 0001:0000c480       exit                       000000014000d480 f   libucrtd:exit.obj
 0001:0000c4a0       ?value@?$dual_state_global@H@__crt_state_management@@QEAAAEAHXZ 000000014000d4a0 f i libucrtd:setmode.obj
 0001:0000c4a0       ?value@?$dual_state_global@J@__crt_state_management@@QEAAAEAJXZ 000000014000d4a0 f i libucrtd:new_mode.obj
 0001:0000c4c0       _set_fmode                 000000014000d4c0 f   libucrtd:setmode.obj
 0001:0000c700       __acrt_disable_global_locale_sync 000000014000d700 f i libucrtd:wsetlocale.obj
 0001:0000c730       __acrt_enable_global_locale_sync 000000014000d730 f i libucrtd:wsetlocale.obj
 0001:0000c760       __acrt_set_locale_changed  000000014000d760 f   libucrtd:wsetlocale.obj
 0001:0000c770       __acrt_uninitialize_locale 000000014000d770 f   libucrtd:wsetlocale.obj
 0001:0000c7a0       __ascii_tolower            000000014000d7a0 f i libucrtd:wsetlocale.obj
 0001:0000c7c0       __ascii_towlower           000000014000d7c0 f i libucrtd:wsetlocale.obj
 0001:0000c7e0       _configthreadlocale        000000014000d7e0 f   libucrtd:wsetlocale.obj
 0001:0000c940       _query_new_mode            000000014000d940 f   libucrtd:new_mode.obj
 0001:0000c960       _set_new_mode              000000014000d960 f   libucrtd:new_mode.obj
 0001:0000ca30       __p__commode               000000014000da30 f   libucrtd:ncommode.obj
 0001:0000d0c0       _crt_atexit                000000014000e0c0 f   libucrtd:onexit.obj
 0001:0000d0e0       _execute_onexit_table      000000014000e0e0 f   libucrtd:onexit.obj
 0001:0000d120       _initialize_onexit_table   000000014000e120 f   libucrtd:onexit.obj
 0001:0000d1a0       _register_onexit_function  000000014000e1a0 f   libucrtd:onexit.obj
 0001:0000d230       __acrt_uninitialize_command_line 000000014000e230 f   libucrtd:argv_data.obj
 0001:0000d490       __acrt_initialize          000000014000e490 f   libucrtd:initialization.obj
 0001:0000d4c0       __acrt_uninitialize        000000014000e4c0 f   libucrtd:initialization.obj
 0001:0000d4f0       terminate                  000000014000e4f0 f   libucrtd:terminate.obj
 0001:0000d530       ??0_LocaleUpdate@@QEAA@QEAU__crt_locale_pointers@@@Z 000000014000e530 f i libucrtd:debug_heap.obj
 0001:0000d650       ??1_LocaleUpdate@@QEAA@XZ  000000014000e650 f i libucrtd:debug_heap.obj
 0001:0000d680       ?GetLocaleT@_LocaleUpdate@@QEAAPEAU__crt_locale_pointers@@XZ 000000014000e680 f i libucrtd:debug_heap.obj
 0001:0000f660       _CrtCheckMemory            0000000140010660 f   libucrtd:debug_heap.obj
 0001:0000f7f0       _CrtDumpMemoryLeaks        00000001400107f0 f   libucrtd:debug_heap.obj
 0001:0000f8b0       _CrtIsValidHeapPointer     00000001400108b0 f   libucrtd:debug_heap.obj
 0001:0000f8f0       _CrtIsValidPointer         00000001400108f0 f   libucrtd:debug_heap.obj
 0001:0000f930       _CrtMemCheckpoint          0000000140010930 f   libucrtd:debug_heap.obj
 0001:0000fbb0       _CrtMemDumpAllObjectsSince 0000000140010bb0 f   libucrtd:debug_heap.obj
 0001:0000fc10       _CrtSetDbgFlag             0000000140010c10 f   libucrtd:debug_heap.obj
 0001:0000fd70       _CrtSetDumpClient          0000000140010d70 f   libucrtd:debug_heap.obj
 0001:0000fda0       __acrt_get_locale_data_prefix 0000000140010da0 f i libucrtd:debug_heap.obj
 0001:0000fdc0       __acrt_locale_changed      0000000140010dc0 f i libucrtd:debug_heap.obj
 0001:0000fdf0       _calloc_dbg                0000000140010df0 f   libucrtd:debug_heap.obj
 0001:0000fe90       _chvalidchk_l              0000000140010e90 f i libucrtd:debug_heap.obj
 0001:0000fec0       _free_dbg                  0000000140010ec0 f   libucrtd:debug_heap.obj
 0001:0000ff30       _invoke_watson_if_oneof    0000000140010f30 f i libucrtd:debug_heap.obj
 0001:0000ff90       _ischartype_l              0000000140010f90 f i libucrtd:debug_heap.obj
 0001:00010020       _malloc_dbg                0000000140011020 f   libucrtd:debug_heap.obj
 0001:00010060       _msize_dbg                 0000000140011060 f   libucrtd:debug_heap.obj
 0001:00010200       _realloc_dbg               0000000140011200 f   libucrtd:debug_heap.obj
 0001:00010270       _recalloc_dbg              0000000140011270 f   libucrtd:debug_heap.obj
 0001:00010840       strcpy_s                   0000000140011840 f   libucrtd:strcpy_s.obj
 0001:00010880       strcmp                     0000000140011880 f   libucrtd:strcmp.obj
 0001:00010900       strlen                     0000000140011900 f   libucrtd:strlen.obj
 0001:000109b0       abort                      00000001400119b0 f   libucrtd:abort.obj
 0001:00010a30       ??$initialize_from_array@$$BY00Q6AXPEB_W00I_K@Z@?$dual_state_global@P6AXPEB_W00I_K@Z@__crt_state_management@@QEAAXAEAY00Q6AXPEB_W00I_K@Z@Z 0000000140011a30 f i libucrtd:invalid_parameter.obj
 0001:00010a90       __acrt_call_reportfault    0000000140011a90 f   libucrtd:invalid_parameter.obj
 0001:00010bc0       __acrt_initialize_invalid_parameter_handler 0000000140011bc0 f   libucrtd:invalid_parameter.obj
 0001:00010bf0       _invalid_parameter         0000000140011bf0 f   libucrtd:invalid_parameter.obj
 0001:00010cf0       _invalid_parameter_noinfo  0000000140011cf0 f   libucrtd:invalid_parameter.obj
 0001:00010d20       _invoke_watson             0000000140011d20 f   libucrtd:invalid_parameter.obj
 0001:00010d80       ??$?0AEBV?$string_output_adapter@D@__crt_stdio_output@@AEB_KAEBQEBDAEBQEAU__crt_locale_pointers@@AEBQEAD@?$format_validation_base@DV?$string_output_adapter@D@__crt_stdio_output@@@__crt_stdio_output@@IEAA@AEBV?$string_output_adapter@D@1@AEB_KAEBQEBDAEBQEAU__crt_locale_pointers@@AEBQEAD@Z 0000000140011d80 f i libucrtd:output.obj
 0001:00010dd0       ??$?0AEBV?$string_output_adapter@D@__crt_stdio_output@@AEB_KAEBQEBDAEBQEAU__crt_locale_pointers@@AEBQEAD@?$standard_base@DV?$string_output_adapter@D@__crt_stdio_output@@@__crt_stdio_output@@IEAA@AEBV?$string_output_adapter@D@1@AEB_KAEBQEBDAEBQEAU__crt_locale_pointers@@AEBQEAD@Z 0000000140011dd0 f i libucrtd:output.obj
 0001:00010e40       ??$?0AEBV?$string_output_adapter@_W@__crt_stdio_output@@AEB_KAEBQEB_WAEBQEAU__crt_locale_pointers@@AEBQEAD@?$format_validation_base@_WV?$string_output_adapter@_W@__crt_stdio_output@@@__crt_stdio_output@@IEAA@AEBV?$string_output_adapter@_W@1@AEB_KAEBQEB_WAEBQEAU__crt_locale_pointers@@AEBQEAD@Z 0000000140011e40 f i libucrtd:output.obj
 0001:00010e90       ??$?0AEBV?$string_output_adapter@_W@__crt_stdio_output@@AEB_KAEBQEB_WAEBQEAU__crt_locale_pointers@@AEBQEAD@?$standard_base@_WV?$string_output_adapter@_W@__crt_stdio_output@@@__crt_stdio_output@@IEAA@AEBV?$string_output_adapter@_W@1@AEB_KAEBQEB_WAEBQEAU__crt_locale_pointers@@AEBQEAD@Z 0000000140011e90 f i libucrtd:output.obj
 0001:00012810       ??$count@D@formatting_buffer@__crt_stdio_output@@QEBA_KXZ 0000000140013810 f i libucrtd:output.obj
 0001:00012860       ??$count@_W@formatting_buffer@__crt_stdio_output@@QEBA_KXZ 0000000140013860 f i libucrtd:output.obj
 0001:000128b0       ??$data@_W@formatting_buffer@__crt_stdio_output@@QEAAPEA_WXZ 00000001400138b0 f i libucrtd:output.obj
 0001:000128b0       ??$data@D@formatting_buffer@__crt_stdio_output@@QEAAPEADXZ 00000001400138b0 f i libucrtd:output.obj
 0001:00012900       ??$ensure_buffer_is_big_enough@D@formatting_buffer@__crt_stdio_output@@QEAA_N_K@Z 0000000140013900 f i libucrtd:output.obj
 0001:00012a30       ??$ensure_buffer_is_big_enough@_W@formatting_buffer@__crt_stdio_output@@QEAA_N_K@Z 0000000140013a30 f i libucrtd:output.obj
 0001:00012b60       ??$extract_argument_from_va_list@C_J@?$standard_base@_WV?$string_output_adapter@_W@__crt_stdio_output@@@__crt_stdio_output@@IEAA_NAEA_J@Z 0000000140013b60 f i libucrtd:output.obj
 0001:00012b60       ??$extract_argument_from_va_list@C_J@?$standard_base@DV?$string_output_adapter@D@__crt_stdio_output@@@__crt_stdio_output@@IEAA_NAEA_J@Z 0000000140013b60 f i libucrtd:output.obj
 0001:00012ba0       ??$extract_argument_from_va_list@E_J@?$standard_base@DV?$string_output_adapter@D@__crt_stdio_output@@@__crt_stdio_output@@IEAA_NAEA_J@Z 0000000140013ba0 f i libucrtd:output.obj
 0001:00012ba0       ??$extract_argument_from_va_list@E_J@?$standard_base@_WV?$string_output_adapter@_W@__crt_stdio_output@@@__crt_stdio_output@@IEAA_NAEA_J@Z 0000000140013ba0 f i libucrtd:output.obj
 0001:00012be0       ??$extract_argument_from_va_list@F_J@?$standard_base@_WV?$string_output_adapter@_W@__crt_stdio_output@@@__crt_stdio_output@@IEAA_NAEA_J@Z 0000000140013be0 f i libucrtd:output.obj
 0001:00012be0       ??$extract_argument_from_va_list@F_J@?$standard_base@DV?$string_output_adapter@D@__crt_stdio_output@@@__crt_stdio_output@@IEAA_NAEA_J@Z 0000000140013be0 f i libucrtd:output.obj
 0001:00012c20       ??$extract_argument_from_va_list@GD@?$standard_base@DV?$string_output_adapter@D@__crt_stdio_output@@@__crt_stdio_output@@IEAA_NAEAD@Z 0000000140013c20 f i libucrtd:output.obj
 0001:00012c50       ??$extract_argument_from_va_list@G_J@?$standard_base@DV?$string_output_adapter@D@__crt_stdio_output@@@__crt_stdio_output@@IEAA_NAEA_J@Z 0000000140013c50 f i libucrtd:output.obj
 0001:00012c50       ??$extract_argument_from_va_list@G_J@?$standard_base@_WV?$string_output_adapter@_W@__crt_stdio_output@@@__crt_stdio_output@@IEAA_NAEA_J@Z 0000000140013c50 f i libucrtd:output.obj
 0001:00012c90       ??$extract_argument_from_va_list@H_J@?$standard_base@_WV?$string_output_adapter@_W@__crt_stdio_output@@@__crt_stdio_output@@IEAA_NAEA_J@Z 0000000140013c90 f i libucrtd:output.obj
 0001:00012c90       ??$extract_argument_from_va_list@H_J@?$standard_base@DV?$string_output_adapter@D@__crt_stdio_output@@@__crt_stdio_output@@IEAA_NAEA_J@Z 0000000140013c90 f i libucrtd:output.obj
 0001:00012cc0       ??$extract_argument_from_va_list@I_J@?$standard_base@_WV?$string_output_adapter@_W@__crt_stdio_output@@@__crt_stdio_output@@IEAA_NAEA_J@Z 0000000140013cc0 f i libucrtd:output.obj
 0001:00012cc0       ??$extract_argument_from_va_list@I_J@?$standard_base@DV?$string_output_adapter@D@__crt_stdio_output@@@__crt_stdio_output@@IEAA_NAEA_J@Z 0000000140013cc0 f i libucrtd:output.obj
 0001:00012cf0       ??$extract_argument_from_va_list@_K_J@?$standard_base@_WV?$string_output_adapter@_W@__crt_stdio_output@@@__crt_stdio_output@@IEAA_NAEA_J@Z 0000000140013cf0 f i libucrtd:output.obj
 0001:00012cf0       ??$extract_argument_from_va_list@PEADPEAD@?$standard_base@DV?$string_output_adapter@D@__crt_stdio_output@@@__crt_stdio_output@@IEAA_NAEAPEAD@Z 0000000140013cf0 f i libucrtd:output.obj
 0001:00012cf0       ??$extract_argument_from_va_list@PEAXPEAX@?$standard_base@_WV?$string_output_adapter@_W@__crt_stdio_output@@@__crt_stdio_output@@IEAA_NAEAPEAX@Z 0000000140013cf0 f i libucrtd:output.obj
 0001:00012cf0       ??$extract_argument_from_va_list@PEAUansi_string@?1??type_case_Z@?$output_processor@DV?$string_output_adapter@D@__crt_stdio_output@@V?$format_validation_base@DV?$string_output_adapter@D@__crt_stdio_output@@@2@@__crt_stdio_output@@AEAA_NXZ@PEAU1?1??234@AEAA_NXZ@@?$standard_base@DV?$string_output_adapter@D@__crt_stdio_output@@@__crt_stdio_output@@IEAA_NAEAPEAUansi_string@?1??type_case_Z@?$output_processor@DV?$string_output_adapter@D@__crt_stdio_output@@V?$format_validation_base@DV?$string_output_adapter@D@__crt_stdio_output@@@2@@1@AEAA_NXZ@@Z 0000000140013cf0 f i libucrtd:output.obj
 0001:00012cf0       ??$extract_argument_from_va_list@PEAXPEAX@?$standard_base@DV?$string_output_adapter@D@__crt_stdio_output@@@__crt_stdio_output@@IEAA_NAEAPEAX@Z 0000000140013cf0 f i libucrtd:output.obj
 0001:00012cf0       ??$extract_argument_from_va_list@_J_J@?$standard_base@_WV?$string_output_adapter@_W@__crt_stdio_output@@@__crt_stdio_output@@IEAA_NAEA_J@Z 0000000140013cf0 f i libucrtd:output.obj
 0001:00012cf0       ??$extract_argument_from_va_list@PEADPEAD@?$standard_base@_WV?$string_output_adapter@_W@__crt_stdio_output@@@__crt_stdio_output@@IEAA_NAEAPEAD@Z 0000000140013cf0 f i libucrtd:output.obj
 0001:00012cf0       ??$extract_argument_from_va_list@PEAUansi_string@?1??type_case_Z@?$output_processor@_WV?$string_output_adapter@_W@__crt_stdio_output@@V?$format_validation_base@_WV?$string_output_adapter@_W@__crt_stdio_output@@@2@@__crt_stdio_output@@AEAA_NXZ@PEAU1?1??234@AEAA_NXZ@@?$standard_base@_WV?$string_output_adapter@_W@__crt_stdio_output@@@__crt_stdio_output@@IEAA_NAEAPEAUansi_string@?1??type_case_Z@?$output_processor@_WV?$string_output_adapter@_W@__crt_stdio_output@@V?$format_validation_base@_WV?$string_output_adapter@_W@__crt_stdio_output@@@2@@1@AEAA_NXZ@@Z 0000000140013cf0 f i libucrtd:output.obj
 0001:00012cf0       ??$extract_argument_from_va_list@_J_J@?$standard_base@DV?$string_output_adapter@D@__crt_stdio_output@@@__crt_stdio_output@@IEAA_NAEA_J@Z 0000000140013cf0 f i libucrtd:output.obj
 0001:00012cf0       ??$extract_argument_from_va_list@_K_J@?$standard_base@DV?$string_output_adapter@D@__crt_stdio_output@@@__crt_stdio_output@@IEAA_NAEA_J@Z 0000000140013cf0 f i libucrtd:output.obj
 0001:00012d20       ??$extract_argument_from_va_list@U_CRT_DOUBLE@@U1@@?$standard_base@DV?$string_output_adapter@D@__crt_stdio_output@@@__crt_stdio_output@@IEAA_NAEAU_CRT_DOUBLE@@@Z 0000000140013d20 f i libucrtd:output.obj
 0001:00012d20       ??$extract_argument_from_va_list@U_CRT_DOUBLE@@U1@@?$standard_base@_WV?$string_output_adapter@_W@__crt_stdio_output@@@__crt_stdio_output@@IEAA_NAEAU_CRT_DOUBLE@@@Z 0000000140013d20 f i libucrtd:output.obj
 0001:00012d70       ??$extract_argument_from_va_list@_W_W@?$standard_base@DV?$string_output_adapter@D@__crt_stdio_output@@@__crt_stdio_output@@IEAA_NAEA_W@Z 0000000140013d70 f i libucrtd:output.obj
 0001:00012d70       ??$extract_argument_from_va_list@_W_W@?$standard_base@_WV?$string_output_adapter@_W@__crt_stdio_output@@@__crt_stdio_output@@IEAA_NAEA_W@Z 0000000140013d70 f i libucrtd:output.obj
 0001:00012da0       ??$is_wide_character_specifier@D@__crt_stdio_output@@YA_N_KDW4length_modifier@0@@Z 0000000140013da0 f i libucrtd:output.obj
 0001:00012e40       ??$is_wide_character_specifier@_W@__crt_stdio_output@@YA_N_K_WW4length_modifier@0@@Z 0000000140013e40 f i libucrtd:output.obj
 0001:00012f10       ??$read_va_arg@C@__crt_stdio_output@@YACAEAPEAD@Z 0000000140013f10 f i libucrtd:output.obj
 0001:00012f10       ??$read_va_arg@E@__crt_stdio_output@@YAEAEAPEAD@Z 0000000140013f10 f i libucrtd:output.obj
 0001:00012f80       ??$read_va_arg@F@__crt_stdio_output@@YAFAEAPEAD@Z 0000000140013f80 f i libucrtd:output.obj
 0001:00012f80       ??$read_va_arg@_W@__crt_stdio_output@@YA_WAEAPEAD@Z 0000000140013f80 f i libucrtd:output.obj
 0001:00012f80       ??$read_va_arg@G@__crt_stdio_output@@YAGAEAPEAD@Z 0000000140013f80 f i libucrtd:output.obj
 0001:00012ff0       ??$read_va_arg@I@__crt_stdio_output@@YAIAEAPEAD@Z 0000000140013ff0 f i libucrtd:output.obj
 0001:00012ff0       ??$read_va_arg@H@__crt_stdio_output@@YAHAEAPEAD@Z 0000000140013ff0 f i libucrtd:output.obj
 0001:00013050       ??$read_va_arg@PEAX@__crt_stdio_output@@YAPEAXAEAPEAD@Z 0000000140014050 f i libucrtd:output.obj
 0001:00013050       ??$read_va_arg@PEAD@__crt_stdio_output@@YAPEADAEAPEAD@Z 0000000140014050 f i libucrtd:output.obj
 0001:00013050       ??$read_va_arg@PEAUansi_string@?1??type_case_Z@?$output_processor@DV?$string_output_adapter@D@__crt_stdio_output@@V?$format_validation_base@DV?$string_output_adapter@D@__crt_stdio_output@@@2@@__crt_stdio_output@@AEAA_NXZ@@__crt_stdio_output@@YAPEAUansi_string@?1??type_case_Z@?$output_processor@DV?$string_output_adapter@D@__crt_stdio_output@@V?$format_validation_base@DV?$string_output_adapter@D@__crt_stdio_output@@@2@@0@AEAA_NXZ@AEAPEAD@Z 0000000140014050 f i libucrtd:output.obj
 0001:00013050       ??$read_va_arg@_K@__crt_stdio_output@@YA_KAEAPEAD@Z 0000000140014050 f i libucrtd:output.obj
 0001:00013050       ??$read_va_arg@PEAUansi_string@?1??type_case_Z@?$output_processor@_WV?$string_output_adapter@_W@__crt_stdio_output@@V?$format_validation_base@_WV?$string_output_adapter@_W@__crt_stdio_output@@@2@@__crt_stdio_output@@AEAA_NXZ@@__crt_stdio_output@@YAPEAUansi_string@?1??type_case_Z@?$output_processor@_WV?$string_output_adapter@_W@__crt_stdio_output@@V?$format_validation_base@_WV?$string_output_adapter@_W@__crt_stdio_output@@@2@@0@AEAA_NXZ@AEAPEAD@Z 0000000140014050 f i libucrtd:output.obj
 0001:00013050       ??$read_va_arg@_J@__crt_stdio_output@@YA_JAEAPEAD@Z 0000000140014050 f i libucrtd:output.obj
 0001:00013050       ??$read_va_arg@U_CRT_DOUBLE@@@__crt_stdio_output@@YA?AU_CRT_DOUBLE@@AEAPEAD@Z 0000000140014050 f i libucrtd:output.obj
 0001:000130c0       ??$scratch_count@D@formatting_buffer@__crt_stdio_output@@QEBA_KXZ 00000001400140c0 f i libucrtd:output.obj
 0001:000130e0       ??$scratch_data@D@formatting_buffer@__crt_stdio_output@@QEAAPEADXZ 00000001400140e0 f i libucrtd:output.obj
 0001:00013150       ??$tcstol@PEBDPEAPEADH@?$__crt_char_traits@D@@SAJ$$QEAPEBD$$QEAPEAPEAD$$QEAH@Z 0000000140014150 f i libucrtd:output.obj
 0001:00013190       ??$tcstol@PEB_WPEAPEA_WH@?$__crt_char_traits@_W@@SAJ$$QEAPEB_W$$QEAPEAPEA_W$$QEAH@Z 0000000140014190 f i libucrtd:output.obj
 0001:000131d0       ??$type_case_integer_parse_into_buffer@I@?$output_processor@DV?$string_output_adapter@D@__crt_stdio_output@@V?$format_validation_base@DV?$string_output_adapter@D@__crt_stdio_output@@@2@@__crt_stdio_output@@AEAAXII_N@Z 00000001400141d0 f i libucrtd:output.obj
 0001:00013300       ??$type_case_integer_parse_into_buffer@I@?$output_processor@_WV?$string_output_adapter@_W@__crt_stdio_output@@V?$format_validation_base@_WV?$string_output_adapter@_W@__crt_stdio_output@@@2@@__crt_stdio_output@@AEAAXII_N@Z 0000000140014300 f i libucrtd:output.obj
 0001:00013440       ??$type_case_integer_parse_into_buffer@_K@?$output_processor@DV?$string_output_adapter@D@__crt_stdio_output@@V?$format_validation_base@DV?$string_output_adapter@D@__crt_stdio_output@@@2@@__crt_stdio_output@@AEAAX_KI_N@Z 0000000140014440 f i libucrtd:output.obj
 0001:00013590       ??$type_case_integer_parse_into_buffer@_K@?$output_processor@_WV?$string_output_adapter@_W@__crt_stdio_output@@V?$format_validation_base@_WV?$string_output_adapter@_W@__crt_stdio_output@@@2@@__crt_stdio_output@@AEAAX_KI_N@Z 0000000140014590 f i libucrtd:output.obj
 0001:000136f0       ??$write_multiple_characters@V?$string_output_adapter@D@__crt_stdio_output@@D@__crt_stdio_output@@YAXAEBV?$string_output_adapter@D@0@DHQEAH@Z 00000001400146f0 f i libucrtd:output.obj
 0001:00013750       ??$write_multiple_characters@V?$string_output_adapter@_W@__crt_stdio_output@@D@__crt_stdio_output@@YAXAEBV?$string_output_adapter@_W@0@DHQEAH@Z 0000000140014750 f i libucrtd:output.obj
 0001:000137b0       ??0?$common_data@D@__crt_stdio_output@@IEAA@XZ 00000001400147b0 f i libucrtd:output.obj
 0001:00013880       ??0?$common_data@_W@__crt_stdio_output@@IEAA@XZ 0000000140014880 f i libucrtd:output.obj
 0001:00013950       ??0?$output_adapter_data@DV?$string_output_adapter@D@__crt_stdio_output@@@__crt_stdio_output@@IEAA@AEBV?$string_output_adapter@D@1@_KQEBDQEAU__crt_locale_pointers@@QEAD@Z 0000000140014950 f i libucrtd:output.obj
 0001:000139d0       ??0?$output_adapter_data@_WV?$string_output_adapter@_W@__crt_stdio_output@@@__crt_stdio_output@@IEAA@AEBV?$string_output_adapter@_W@1@_KQEB_WQEAU__crt_locale_pointers@@QEAD@Z 00000001400149d0 f i libucrtd:output.obj
 0001:00013a50       ??0?$output_processor@DV?$string_output_adapter@D@__crt_stdio_output@@V?$format_validation_base@DV?$string_output_adapter@D@__crt_stdio_output@@@2@@__crt_stdio_output@@QEAA@AEBV?$string_output_adapter@D@1@_KQEBDQEAU__crt_locale_pointers@@QEAD@Z 0000000140014a50 f i libucrtd:output.obj
 0001:00013aa0       ??0?$output_processor@_WV?$string_output_adapter@_W@__crt_stdio_output@@V?$format_validation_base@_WV?$string_output_adapter@_W@__crt_stdio_output@@@2@@__crt_stdio_output@@QEAA@AEBV?$string_output_adapter@_W@1@_KQEB_WQEAU__crt_locale_pointers@@QEAD@Z 0000000140014aa0 f i libucrtd:output.obj
 0001:00013af0       ??0__crt_deferred_errno_cache@@QEAA@XZ 0000000140014af0 f i libucrtd:output.obj
 0001:00013b10       ??0__crt_errno_guard@@QEAA@QEAH@Z 0000000140014b10 f i libucrtd:output.obj
 0001:00013b50       ??0formatting_buffer@__crt_stdio_output@@QEAA@XZ 0000000140014b50 f i libucrtd:output.obj
 0001:00013b90       ??1?$common_data@D@__crt_stdio_output@@QEAA@XZ 0000000140014b90 f i libucrtd:output.obj
 0001:00013b90       ??1?$common_data@_W@__crt_stdio_output@@QEAA@XZ 0000000140014b90 f i libucrtd:output.obj
 0001:00013bb0       ??1?$format_validation_base@DV?$string_output_adapter@D@__crt_stdio_output@@@__crt_stdio_output@@QEAA@XZ 0000000140014bb0 f i libucrtd:output.obj
 0001:00013bb0       ??1?$format_validation_base@_WV?$string_output_adapter@_W@__crt_stdio_output@@@__crt_stdio_output@@QEAA@XZ 0000000140014bb0 f i libucrtd:output.obj
 0001:00013bd0       ??1?$output_adapter_data@DV?$string_output_adapter@D@__crt_stdio_output@@@__crt_stdio_output@@QEAA@XZ 0000000140014bd0 f i libucrtd:output.obj
 0001:00013bd0       ??1?$output_adapter_data@_WV?$string_output_adapter@_W@__crt_stdio_output@@@__crt_stdio_output@@QEAA@XZ 0000000140014bd0 f i libucrtd:output.obj
 0001:00013bf0       ??1?$output_processor@_WV?$string_output_adapter@_W@__crt_stdio_output@@V?$format_validation_base@_WV?$string_output_adapter@_W@__crt_stdio_output@@@2@@__crt_stdio_output@@QEAA@XZ 0000000140014bf0 f i libucrtd:output.obj
 0001:00013bf0       ??1?$output_processor@DV?$string_output_adapter@D@__crt_stdio_output@@V?$format_validation_base@DV?$string_output_adapter@D@__crt_stdio_output@@@2@@__crt_stdio_output@@QEAA@XZ 0000000140014bf0 f i libucrtd:output.obj
 0001:00013c10       ??1?$standard_base@_WV?$string_output_adapter@_W@__crt_stdio_output@@@__crt_stdio_output@@QEAA@XZ 0000000140014c10 f i libucrtd:output.obj
 0001:00013c10       ??1?$standard_base@DV?$string_output_adapter@D@__crt_stdio_output@@@__crt_stdio_output@@QEAA@XZ 0000000140014c10 f i libucrtd:output.obj
 0001:00013c30       ??1__crt_errno_guard@@QEAA@XZ 0000000140014c30 f i libucrtd:output.obj
 0001:00013c60       ??1formatting_buffer@__crt_stdio_output@@QEAA@XZ 0000000140014c60 f i libucrtd:output.obj
 0001:00013c90       ??4?$__crt_unique_heap_ptr@DU__crt_internal_free_policy@@@@QEAAAEAV0@$$QEAV0@@Z 0000000140014c90 f i libucrtd:output.obj
 0001:00013cd0       ??A?$spectre_mitigated_lookup_table@Ustate_transition_pair@__crt_stdio_output@@$0IA@@__crt_stdio_output@@QEBAAEBUstate_transition_pair@1@_K@Z 0000000140014cd0 f i libucrtd:output.obj
 0001:00013cf0       ?adjust_hexit@?$output_processor@_WV?$string_output_adapter@_W@__crt_stdio_output@@V?$format_validation_base@_WV?$string_output_adapter@_W@__crt_stdio_output@@@2@@__crt_stdio_output@@CADH_N@Z 0000000140014cf0 f i libucrtd:output.obj
 0001:00013cf0       ?adjust_hexit@?$output_processor@DV?$string_output_adapter@D@__crt_stdio_output@@V?$format_validation_base@DV?$string_output_adapter@D@__crt_stdio_output@@@2@@__crt_stdio_output@@CADH_N@Z 0000000140014cf0 f i libucrtd:output.obj
 0001:00013d40       ?advance_to_next_pass@?$standard_base@DV?$string_output_adapter@D@__crt_stdio_output@@@__crt_stdio_output@@IEAA_NXZ 0000000140014d40 f i libucrtd:output.obj
 0001:00013d40       ?advance_to_next_pass@?$standard_base@_WV?$string_output_adapter@_W@__crt_stdio_output@@@__crt_stdio_output@@IEAA_NXZ 0000000140014d40 f i libucrtd:output.obj
 0001:00013d90       ?crop_zeroes@__crt_stdio_output@@YAXPEADQEAU__crt_locale_pointers@@@Z 0000000140014d90 f i libucrtd:output.obj
 0001:00013ed0       ?find_next_state@?$output_processor@DV?$string_output_adapter@D@__crt_stdio_output@@V?$format_validation_base@DV?$string_output_adapter@D@__crt_stdio_output@@@2@@__crt_stdio_output@@AEBA?AW4state@2@DW432@@Z 0000000140014ed0 f i libucrtd:output.obj
 0001:00013f60       ?find_next_state@?$output_processor@_WV?$string_output_adapter@_W@__crt_stdio_output@@V?$format_validation_base@_WV?$string_output_adapter@_W@__crt_stdio_output@@@2@@__crt_stdio_output@@AEBA?AW4state@2@_WW432@@Z 0000000140014f60 f i libucrtd:output.obj
 0001:00013ff0       ?force_decimal_point@__crt_stdio_output@@YAXPEADQEAU__crt_locale_pointers@@@Z 0000000140014ff0 f i libucrtd:output.obj
 0001:000140f0       ?get@__crt_deferred_errno_cache@@QEAAAEAHXZ 00000001400150f0 f i libucrtd:output.obj
 0001:00014120       ?get_flags@__crt_stdio_stream@@QEBAJXZ 0000000140015120 f i libucrtd:output.obj
 0001:00014150       ?has_flag@?$output_processor@DV?$string_output_adapter@D@__crt_stdio_output@@V?$format_validation_base@DV?$string_output_adapter@D@__crt_stdio_output@@@2@@__crt_stdio_output@@AEBA_NI@Z 0000000140015150 f i libucrtd:output.obj
 0001:00014150       ?has_flag@?$output_processor@_WV?$string_output_adapter@_W@__crt_stdio_output@@V?$format_validation_base@_WV?$string_output_adapter@_W@__crt_stdio_output@@@2@@__crt_stdio_output@@AEBA_NI@Z 0000000140015150 f i libucrtd:output.obj
 0001:00014190       ?is_string_backed@__crt_stdio_stream@@QEBA_NXZ 0000000140015190 f i libucrtd:output.obj
 0001:000141d0       ?narrow_null_string@?$output_processor@_WV?$string_output_adapter@_W@__crt_stdio_output@@V?$format_validation_base@_WV?$string_output_adapter@_W@__crt_stdio_output@@@2@@__crt_stdio_output@@CAPEADXZ 00000001400151d0 f i libucrtd:output.obj
 0001:000141d0       ?narrow_null_string@?$output_processor@DV?$string_output_adapter@D@__crt_stdio_output@@V?$format_validation_base@DV?$string_output_adapter@D@__crt_stdio_output@@@2@@__crt_stdio_output@@CAPEADXZ 00000001400151d0 f i libucrtd:output.obj
 0001:000141e0       ?parse_int_from_format_string@?$output_processor@DV?$string_output_adapter@D@__crt_stdio_output@@V?$format_validation_base@DV?$string_output_adapter@D@__crt_stdio_output@@@2@@__crt_stdio_output@@AEAA_NQEAH@Z 00000001400151e0 f i libucrtd:output.obj
 0001:000142d0       ?parse_int_from_format_string@?$output_processor@_WV?$string_output_adapter@_W@__crt_stdio_output@@V?$format_validation_base@_WV?$string_output_adapter@_W@__crt_stdio_output@@@2@@__crt_stdio_output@@AEAA_NQEAH@Z 00000001400152d0 f i libucrtd:output.obj
 0001:000143c0       ?process@?$output_processor@DV?$string_output_adapter@D@__crt_stdio_output@@V?$format_validation_base@DV?$string_output_adapter@D@__crt_stdio_output@@@2@@__crt_stdio_output@@QEAAHXZ 00000001400153c0 f i libucrtd:output.obj
 0001:00014720       ?process@?$output_processor@_WV?$string_output_adapter@_W@__crt_stdio_output@@V?$format_validation_base@_WV?$string_output_adapter@_W@__crt_stdio_output@@@2@@__crt_stdio_output@@QEAAHXZ 0000000140015720 f i libucrtd:output.obj
 0001:00014a80       ?set_flag@?$output_processor@DV?$string_output_adapter@D@__crt_stdio_output@@V?$format_validation_base@DV?$string_output_adapter@D@__crt_stdio_output@@@2@@__crt_stdio_output@@AEAAXI@Z 0000000140015a80 f i libucrtd:output.obj
 0001:00014a80       ?set_flag@?$output_processor@_WV?$string_output_adapter@_W@__crt_stdio_output@@V?$format_validation_base@_WV?$string_output_adapter@_W@__crt_stdio_output@@@2@@__crt_stdio_output@@AEAAXI@Z 0000000140015a80 f i libucrtd:output.obj
 0001:00014aa0       ?validate_and_update_state_at_beginning_of_format_character@?$standard_base@DV?$string_output_adapter@D@__crt_stdio_output@@@__crt_stdio_output@@IEAA_NXZ 0000000140015aa0 f i libucrtd:output.obj
 0001:00014aa0       ?validate_state_for_type_case_a@?$standard_base@DV?$string_output_adapter@D@__crt_stdio_output@@@__crt_stdio_output@@IEBA_NXZ 0000000140015aa0 f i libucrtd:output.obj
 0001:00014aa0       ?validate_and_update_state_at_beginning_of_format_character@?$standard_base@_WV?$string_output_adapter@_W@__crt_stdio_output@@@__crt_stdio_output@@IEAA_NXZ 0000000140015aa0 f i libucrtd:output.obj
 0001:00014aa0       ?validate_state_for_type_case_a@?$standard_base@_WV?$string_output_adapter@_W@__crt_stdio_output@@@__crt_stdio_output@@IEBA_NXZ 0000000140015aa0 f i libucrtd:output.obj
 0001:00014aa0       ?should_format@?$standard_base@DV?$string_output_adapter@D@__crt_stdio_output@@@__crt_stdio_output@@IEAA_NXZ 0000000140015aa0 f i libucrtd:output.obj
 0001:00014aa0       ?should_format@?$standard_base@_WV?$string_output_adapter@_W@__crt_stdio_output@@@__crt_stdio_output@@IEAA_NXZ 0000000140015aa0 f i libucrtd:output.obj
 0001:00014ab0       ?should_skip_normal_state_processing@?$standard_base@DV?$string_output_adapter@D@__crt_stdio_output@@@__crt_stdio_output@@IEAA_NXZ 0000000140015ab0 f i libucrtd:output.obj
 0001:00014ab0       ?should_skip_normal_state_processing@?$standard_base@_WV?$string_output_adapter@_W@__crt_stdio_output@@@__crt_stdio_output@@IEAA_NXZ 0000000140015ab0 f i libucrtd:output.obj
 0001:00014ab0       ?should_skip_type_state_output@?$standard_base@_WV?$string_output_adapter@_W@__crt_stdio_output@@@__crt_stdio_output@@IEBA_NXZ 0000000140015ab0 f i libucrtd:output.obj
 0001:00014ab0       ?should_skip_type_state_output@?$standard_base@DV?$string_output_adapter@D@__crt_stdio_output@@@__crt_stdio_output@@IEBA_NXZ 0000000140015ab0 f i libucrtd:output.obj
 0001:00014ac0       ?state_case_dot@?$output_processor@DV?$string_output_adapter@D@__crt_stdio_output@@V?$format_validation_base@DV?$string_output_adapter@D@__crt_stdio_output@@@2@@__crt_stdio_output@@AEAA_NXZ 0000000140015ac0 f i libucrtd:output.obj
 0001:00014ac0       ?state_case_dot@?$output_processor@_WV?$string_output_adapter@_W@__crt_stdio_output@@V?$format_validation_base@_WV?$string_output_adapter@_W@__crt_stdio_output@@@2@@__crt_stdio_output@@AEAA_NXZ 0000000140015ac0 f i libucrtd:output.obj
 0001:00014ae0       ?state_case_flag@?$output_processor@DV?$string_output_adapter@D@__crt_stdio_output@@V?$format_validation_base@DV?$string_output_adapter@D@__crt_stdio_output@@@2@@__crt_stdio_output@@AEAA_NXZ 0000000140015ae0 f i libucrtd:output.obj
 0001:00014b80       ?state_case_flag@?$output_processor@_WV?$string_output_adapter@_W@__crt_stdio_output@@V?$format_validation_base@_WV?$string_output_adapter@_W@__crt_stdio_output@@@2@@__crt_stdio_output@@AEAA_NXZ 0000000140015b80 f i libucrtd:output.obj
 0001:00014c20       ?state_case_normal@?$output_processor@DV?$string_output_adapter@D@__crt_stdio_output@@V?$format_validation_base@DV?$string_output_adapter@D@__crt_stdio_output@@@2@@__crt_stdio_output@@AEAA_NXZ 0000000140015c20 f i libucrtd:output.obj
 0001:00014d00       ?state_case_normal@?$output_processor@_WV?$string_output_adapter@_W@__crt_stdio_output@@V?$format_validation_base@_WV?$string_output_adapter@_W@__crt_stdio_output@@@2@@__crt_stdio_output@@AEAA_NXZ 0000000140015d00 f i libucrtd:output.obj
 0001:00014de0       ?state_case_normal_common@?$output_processor@DV?$string_output_adapter@D@__crt_stdio_output@@V?$format_validation_base@DV?$string_output_adapter@D@__crt_stdio_output@@@2@@__crt_stdio_output@@AEAA_NXZ 0000000140015de0 f i libucrtd:output.obj
 0001:00014e30       ?state_case_normal_common@?$output_processor@_WV?$string_output_adapter@_W@__crt_stdio_output@@V?$format_validation_base@_WV?$string_output_adapter@_W@__crt_stdio_output@@@2@@__crt_stdio_output@@AEAA_NXZ 0000000140015e30 f i libucrtd:output.obj
 0001:00014e80       ?state_case_normal_tchar@?$output_processor@DV?$string_output_adapter@D@__crt_stdio_output@@V?$format_validation_base@DV?$string_output_adapter@D@__crt_stdio_output@@@2@@__crt_stdio_output@@AEAA_ND@Z 0000000140015e80 f i libucrtd:output.obj
 0001:00014fc0       ?state_case_normal_tchar@?$output_processor@_WV?$string_output_adapter@_W@__crt_stdio_output@@V?$format_validation_base@_WV?$string_output_adapter@_W@__crt_stdio_output@@@2@@__crt_stdio_output@@AEAA_N_W@Z 0000000140015fc0 f i libucrtd:output.obj
 0001:00014fe0       ?state_case_percent@?$output_processor@_WV?$string_output_adapter@_W@__crt_stdio_output@@V?$format_validation_base@_WV?$string_output_adapter@_W@__crt_stdio_output@@@2@@__crt_stdio_output@@AEAA_NXZ 0000000140015fe0 f i libucrtd:output.obj
 0001:00014fe0       ?state_case_percent@?$output_processor@DV?$string_output_adapter@D@__crt_stdio_output@@V?$format_validation_base@DV?$string_output_adapter@D@__crt_stdio_output@@@2@@__crt_stdio_output@@AEAA_NXZ 0000000140015fe0 f i libucrtd:output.obj
 0001:00015030       ?state_case_precision@?$output_processor@DV?$string_output_adapter@D@__crt_stdio_output@@V?$format_validation_base@DV?$string_output_adapter@D@__crt_stdio_output@@@2@@__crt_stdio_output@@AEAA_NXZ 0000000140016030 f i libucrtd:output.obj
 0001:000150b0       ?state_case_precision@?$output_processor@_WV?$string_output_adapter@_W@__crt_stdio_output@@V?$format_validation_base@_WV?$string_output_adapter@_W@__crt_stdio_output@@@2@@__crt_stdio_output@@AEAA_NXZ 00000001400160b0 f i libucrtd:output.obj
 0001:00015130       ?state_case_size@?$output_processor@DV?$string_output_adapter@D@__crt_stdio_output@@V?$format_validation_base@DV?$string_output_adapter@D@__crt_stdio_output@@@2@@__crt_stdio_output@@AEAA_NXZ 0000000140016130 f i libucrtd:output.obj
 0001:000155b0       ?state_case_size@?$output_processor@_WV?$string_output_adapter@_W@__crt_stdio_output@@V?$format_validation_base@_WV?$string_output_adapter@_W@__crt_stdio_output@@@2@@__crt_stdio_output@@AEAA_NXZ 00000001400165b0 f i libucrtd:output.obj
 0001:00015a30       ?state_case_type@?$output_processor@DV?$string_output_adapter@D@__crt_stdio_output@@V?$format_validation_base@DV?$string_output_adapter@D@__crt_stdio_output@@@2@@__crt_stdio_output@@AEAA_NXZ 0000000140016a30 f i libucrtd:output.obj
 0001:00015ed0       ?state_case_type@?$output_processor@_WV?$string_output_adapter@_W@__crt_stdio_output@@V?$format_validation_base@_WV?$string_output_adapter@_W@__crt_stdio_output@@@2@@__crt_stdio_output@@AEAA_NXZ 0000000140016ed0 f i libucrtd:output.obj
 0001:00016430       ?state_case_width@?$output_processor@DV?$string_output_adapter@D@__crt_stdio_output@@V?$format_validation_base@DV?$string_output_adapter@D@__crt_stdio_output@@@2@@__crt_stdio_output@@AEAA_NXZ 0000000140017430 f i libucrtd:output.obj
 0001:000164c0       ?state_case_width@?$output_processor@_WV?$string_output_adapter@_W@__crt_stdio_output@@V?$format_validation_base@_WV?$string_output_adapter@_W@__crt_stdio_output@@@2@@__crt_stdio_output@@AEAA_NXZ 00000001400174c0 f i libucrtd:output.obj
 0001:00016550       ?state_count@?$format_validation_base@DV?$string_output_adapter@D@__crt_stdio_output@@@__crt_stdio_output@@KAIXZ 0000000140017550 f i libucrtd:output.obj
 0001:00016550       ?state_count@?$format_validation_base@_WV?$string_output_adapter@_W@__crt_stdio_output@@@__crt_stdio_output@@KAIXZ 0000000140017550 f i libucrtd:output.obj
 0001:00016560       ?state_transition_table@?$format_validation_base@_WV?$string_output_adapter@_W@__crt_stdio_output@@@__crt_stdio_output@@KAAEBV?$spectre_mitigated_lookup_table@Ustate_transition_pair@__crt_stdio_output@@$0IA@@2@XZ 0000000140017560 f i libucrtd:output.obj
 0001:00016560       ?state_transition_table@?$format_validation_base@DV?$string_output_adapter@D@__crt_stdio_output@@@__crt_stdio_output@@KAAEBV?$spectre_mitigated_lookup_table@Ustate_transition_pair@__crt_stdio_output@@$0IA@@2@XZ 0000000140017560 f i libucrtd:output.obj
 0001:00016570       ?tchar_string@?$common_data@D@__crt_stdio_output@@IEAAAEAPEADD@Z 0000000140017570 f i libucrtd:output.obj
 0001:00016590       ?tchar_string@?$common_data@D@__crt_stdio_output@@IEAAAEAPEADXZ 0000000140017590 f i libucrtd:output.obj
 0001:000165b0       ?tchar_string@?$common_data@_W@__crt_stdio_output@@IEAAAEAPEA_WXZ 00000001400175b0 f i libucrtd:output.obj
 0001:000165d0       ?tchar_string@?$common_data@_W@__crt_stdio_output@@IEAAAEAPEA_W_W@Z 00000001400175d0 f i libucrtd:output.obj
 0001:000165f0       ?to_integer_size@__crt_stdio_output@@YA_KW4length_modifier@1@@Z 00000001400175f0 f i libucrtd:output.obj
 0001:000166a0       ?type_case_X@?$output_processor@DV?$string_output_adapter@D@__crt_stdio_output@@V?$format_validation_base@DV?$string_output_adapter@D@__crt_stdio_output@@@2@@__crt_stdio_output@@AEAA_NXZ 00000001400176a0 f i libucrtd:output.obj
 0001:000166c0       ?type_case_X@?$output_processor@_WV?$string_output_adapter@_W@__crt_stdio_output@@V?$format_validation_base@_WV?$string_output_adapter@_W@__crt_stdio_output@@@2@@__crt_stdio_output@@AEAA_NXZ 00000001400176c0 f i libucrtd:output.obj
 0001:000166e0       ?type_case_Z@?$output_processor@DV?$string_output_adapter@D@__crt_stdio_output@@V?$format_validation_base@DV?$string_output_adapter@D@__crt_stdio_output@@@2@@__crt_stdio_output@@AEAA_NXZ 00000001400176e0 f i libucrtd:output.obj
 0001:00016800       ?type_case_Z@?$output_processor@_WV?$string_output_adapter@_W@__crt_stdio_output@@V?$format_validation_base@_WV?$string_output_adapter@_W@__crt_stdio_output@@@2@@__crt_stdio_output@@AEAA_NXZ 0000000140017800 f i libucrtd:output.obj
 0001:00016920       ?type_case_a@?$output_processor@DV?$string_output_adapter@D@__crt_stdio_output@@V?$format_validation_base@DV?$string_output_adapter@D@__crt_stdio_output@@@2@@__crt_stdio_output@@AEAA_NXZ 0000000140017920 f i libucrtd:output.obj
 0001:00016cf0       ?type_case_a@?$output_processor@_WV?$string_output_adapter@_W@__crt_stdio_output@@V?$format_validation_base@_WV?$string_output_adapter@_W@__crt_stdio_output@@@2@@__crt_stdio_output@@AEAA_NXZ 0000000140017cf0 f i libucrtd:output.obj
 0001:000170c0       ?type_case_c@?$output_processor@DV?$string_output_adapter@D@__crt_stdio_output@@V?$format_validation_base@DV?$string_output_adapter@D@__crt_stdio_output@@@2@@__crt_stdio_output@@AEAA_NXZ 00000001400180c0 f i libucrtd:output.obj
 0001:000170e0       ?type_case_c@?$output_processor@_WV?$string_output_adapter@_W@__crt_stdio_output@@V?$format_validation_base@_WV?$string_output_adapter@_W@__crt_stdio_output@@@2@@__crt_stdio_output@@AEAA_NXZ 00000001400180e0 f i libucrtd:output.obj
 0001:00017100       ?type_case_c_tchar@?$output_processor@DV?$string_output_adapter@D@__crt_stdio_output@@V?$format_validation_base@DV?$string_output_adapter@D@__crt_stdio_output@@@2@@__crt_stdio_output@@AEAA_ND@Z 0000000140018100 f i libucrtd:output.obj
 0001:00017260       ?type_case_c_tchar@?$output_processor@_WV?$string_output_adapter@_W@__crt_stdio_output@@V?$format_validation_base@_WV?$string_output_adapter@_W@__crt_stdio_output@@@2@@__crt_stdio_output@@AEAA_N_W@Z 0000000140018260 f i libucrtd:output.obj
 0001:00017390       ?type_case_d@?$output_processor@DV?$string_output_adapter@D@__crt_stdio_output@@V?$format_validation_base@DV?$string_output_adapter@D@__crt_stdio_output@@@2@@__crt_stdio_output@@AEAA_NXZ 0000000140018390 f i libucrtd:output.obj
 0001:000173c0       ?type_case_d@?$output_processor@_WV?$string_output_adapter@_W@__crt_stdio_output@@V?$format_validation_base@_WV?$string_output_adapter@_W@__crt_stdio_output@@@2@@__crt_stdio_output@@AEAA_NXZ 00000001400183c0 f i libucrtd:output.obj
 0001:000173f0       ?type_case_integer@?$output_processor@DV?$string_output_adapter@D@__crt_stdio_output@@V?$format_validation_base@DV?$string_output_adapter@D@__crt_stdio_output@@@2@@__crt_stdio_output@@AEAA_NI_N@Z 00000001400183f0 f i libucrtd:output.obj
 0001:00017840       ?type_case_integer@?$output_processor@_WV?$string_output_adapter@_W@__crt_stdio_output@@V?$format_validation_base@_WV?$string_output_adapter@_W@__crt_stdio_output@@@2@@__crt_stdio_output@@AEAA_NI_N@Z 0000000140018840 f i libucrtd:output.obj
 0001:00017c90       ?type_case_n@?$output_processor@DV?$string_output_adapter@D@__crt_stdio_output@@V?$format_validation_base@DV?$string_output_adapter@D@__crt_stdio_output@@@2@@__crt_stdio_output@@AEAA_NXZ 0000000140018c90 f i libucrtd:output.obj
 0001:00017ed0       ?type_case_n@?$output_processor@_WV?$string_output_adapter@_W@__crt_stdio_output@@V?$format_validation_base@_WV?$string_output_adapter@_W@__crt_stdio_output@@@2@@__crt_stdio_output@@AEAA_NXZ 0000000140018ed0 f i libucrtd:output.obj
 0001:00018110       ?type_case_o@?$output_processor@DV?$string_output_adapter@D@__crt_stdio_output@@V?$format_validation_base@DV?$string_output_adapter@D@__crt_stdio_output@@@2@@__crt_stdio_output@@AEAA_NXZ 0000000140019110 f i libucrtd:output.obj
 0001:00018160       ?type_case_o@?$output_processor@_WV?$string_output_adapter@_W@__crt_stdio_output@@V?$format_validation_base@_WV?$string_output_adapter@_W@__crt_stdio_output@@@2@@__crt_stdio_output@@AEAA_NXZ 0000000140019160 f i libucrtd:output.obj
 0001:000181b0       ?type_case_p@?$output_processor@DV?$string_output_adapter@D@__crt_stdio_output@@V?$format_validation_base@DV?$string_output_adapter@D@__crt_stdio_output@@@2@@__crt_stdio_output@@AEAA_NXZ 00000001400191b0 f i libucrtd:output.obj
 0001:000181f0       ?type_case_p@?$output_processor@_WV?$string_output_adapter@_W@__crt_stdio_output@@V?$format_validation_base@_WV?$string_output_adapter@_W@__crt_stdio_output@@@2@@__crt_stdio_output@@AEAA_NXZ 00000001400191f0 f i libucrtd:output.obj
 0001:00018230       ?type_case_s@?$output_processor@DV?$string_output_adapter@D@__crt_stdio_output@@V?$format_validation_base@DV?$string_output_adapter@D@__crt_stdio_output@@@2@@__crt_stdio_output@@AEAA_NXZ 0000000140019230 f i libucrtd:output.obj
 0001:00018350       ?type_case_s@?$output_processor@_WV?$string_output_adapter@_W@__crt_stdio_output@@V?$format_validation_base@_WV?$string_output_adapter@_W@__crt_stdio_output@@@2@@__crt_stdio_output@@AEAA_NXZ 0000000140019350 f i libucrtd:output.obj
 0001:00018470       ?type_case_s_compute_narrow_string_length@?$output_processor@DV?$string_output_adapter@D@__crt_stdio_output@@V?$format_validation_base@DV?$string_output_adapter@D@__crt_stdio_output@@@2@@__crt_stdio_output@@AEBAHHD@Z 0000000140019470 f i libucrtd:output.obj
 0001:000184a0       ?type_case_s_compute_narrow_string_length@?$output_processor@_WV?$string_output_adapter@_W@__crt_stdio_output@@V?$format_validation_base@_WV?$string_output_adapter@_W@__crt_stdio_output@@@2@@__crt_stdio_output@@AEBAHH_W@Z 00000001400194a0 f i libucrtd:output.obj
 0001:00018530       ?type_case_u@?$output_processor@DV?$string_output_adapter@D@__crt_stdio_output@@V?$format_validation_base@DV?$string_output_adapter@D@__crt_stdio_output@@@2@@__crt_stdio_output@@AEAA_NXZ 0000000140019530 f i libucrtd:output.obj
 0001:00018550       ?type_case_u@?$output_processor@_WV?$string_output_adapter@_W@__crt_stdio_output@@V?$format_validation_base@_WV?$string_output_adapter@_W@__crt_stdio_output@@@2@@__crt_stdio_output@@AEAA_NXZ 0000000140019550 f i libucrtd:output.obj
 0001:00018570       ?type_case_x@?$output_processor@DV?$string_output_adapter@D@__crt_stdio_output@@V?$format_validation_base@DV?$string_output_adapter@D@__crt_stdio_output@@@2@@__crt_stdio_output@@AEAA_NXZ 0000000140019570 f i libucrtd:output.obj
 0001:00018590       ?type_case_x@?$output_processor@_WV?$string_output_adapter@_W@__crt_stdio_output@@V?$format_validation_base@_WV?$string_output_adapter@_W@__crt_stdio_output@@@2@@__crt_stdio_output@@AEAA_NXZ 0000000140019590 f i libucrtd:output.obj
 0001:000185b0       ?unset_flag@?$output_processor@DV?$string_output_adapter@D@__crt_stdio_output@@V?$format_validation_base@DV?$string_output_adapter@D@__crt_stdio_output@@@2@@__crt_stdio_output@@AEAAXI@Z 00000001400195b0 f i libucrtd:output.obj
 0001:000185b0       ?unset_flag@?$output_processor@_WV?$string_output_adapter@_W@__crt_stdio_output@@V?$format_validation_base@_WV?$string_output_adapter@_W@__crt_stdio_output@@@2@@__crt_stdio_output@@AEAAXI@Z 00000001400195b0 f i libucrtd:output.obj
 0001:000185e0       ?update_field_width@?$standard_base@_WV?$string_output_adapter@_W@__crt_stdio_output@@@__crt_stdio_output@@IEAA_NXZ 00000001400195e0 f i libucrtd:output.obj
 0001:000185e0       ?update_field_width@?$standard_base@DV?$string_output_adapter@D@__crt_stdio_output@@@__crt_stdio_output@@IEAA_NXZ 00000001400195e0 f i libucrtd:output.obj
 0001:00018610       ?update_precision@?$standard_base@_WV?$string_output_adapter@_W@__crt_stdio_output@@@__crt_stdio_output@@IEAA_NXZ 0000000140019610 f i libucrtd:output.obj
 0001:00018610       ?update_precision@?$standard_base@DV?$string_output_adapter@D@__crt_stdio_output@@@__crt_stdio_output@@IEAA_NXZ 0000000140019610 f i libucrtd:output.obj
 0001:00018640       ?validate@?$string_output_adapter@D@__crt_stdio_output@@QEBA_NXZ 0000000140019640 f i libucrtd:output.obj
 0001:00018700       ?validate@?$string_output_adapter@_W@__crt_stdio_output@@QEBA_NXZ 0000000140019700 f i libucrtd:output.obj
 0001:000187c0       ?validate_and_update_state_at_end_of_format_string@?$format_validation_base@DV?$string_output_adapter@D@__crt_stdio_output@@@__crt_stdio_output@@IEBA_NXZ 00000001400197c0 f i libucrtd:output.obj
 0001:00018880       ?validate_and_update_state_at_end_of_format_string@?$format_validation_base@_WV?$string_output_adapter@_W@__crt_stdio_output@@@__crt_stdio_output@@IEBA_NXZ 0000000140019880 f i libucrtd:output.obj
 0001:00018940       ?wide_null_string@?$output_processor@_WV?$string_output_adapter@_W@__crt_stdio_output@@V?$format_validation_base@_WV?$string_output_adapter@_W@__crt_stdio_output@@@2@@__crt_stdio_output@@CAPEA_WXZ 0000000140019940 f i libucrtd:output.obj
 0001:00018940       ?wide_null_string@?$output_processor@DV?$string_output_adapter@D@__crt_stdio_output@@V?$format_validation_base@DV?$string_output_adapter@D@__crt_stdio_output@@@2@@__crt_stdio_output@@CAPEA_WXZ 0000000140019940 f i libucrtd:output.obj
 0001:00018950       ?write_character@?$string_output_adapter@D@__crt_stdio_output@@QEBA_NDQEAH@Z 0000000140019950 f i libucrtd:output.obj
 0001:00018a10       ?write_character@?$string_output_adapter@_W@__crt_stdio_output@@QEBA_N_WQEAH@Z 0000000140019a10 f i libucrtd:output.obj
 0001:00018ad0       ?write_stored_string_tchar@?$output_processor@DV?$string_output_adapter@D@__crt_stdio_output@@V?$format_validation_base@DV?$string_output_adapter@D@__crt_stdio_output@@@2@@__crt_stdio_output@@AEAA_ND@Z 0000000140019ad0 f i libucrtd:output.obj
 0001:00018c90       ?write_stored_string_tchar@?$output_processor@_WV?$string_output_adapter@_W@__crt_stdio_output@@V?$format_validation_base@_WV?$string_output_adapter@_W@__crt_stdio_output@@@2@@__crt_stdio_output@@AEAA_N_W@Z 0000000140019c90 f i libucrtd:output.obj
 0001:00018de0       ?write_string@?$string_output_adapter@D@__crt_stdio_output@@QEBAXQEBDHQEAHAEAV__crt_deferred_errno_cache@@@Z 0000000140019de0 f i libucrtd:output.obj
 0001:00018f50       ?write_string@?$string_output_adapter@_W@__crt_stdio_output@@QEBAXQEB_WHQEAHAEAV__crt_deferred_errno_cache@@@Z 0000000140019f50 f i libucrtd:output.obj
 0001:000190c0       __acrt_isleadbyte_l_noupdate 000000014001a0c0 f i libucrtd:output.obj
 0001:000190f0       __acrt_locale_get_ctype_array_value 000000014001a0f0 f i libucrtd:output.obj
 0001:00019130       __stdio_common_vsnprintf_s 000000014001a130 f   libucrtd:output.obj
 0001:00019190       __stdio_common_vsnwprintf_s 000000014001a190 f   libucrtd:output.obj
 0001:000191f0       __stdio_common_vsprintf_s  000000014001a1f0 f   libucrtd:output.obj
 0001:00019240       _ctype_fast_check_internal 000000014001a240 f i libucrtd:output.obj
 0001:00019270       _isdigit_fast_internal     000000014001a270 f i libucrtd:output.obj
 0001:000192a0       _tolower_fast_internal     000000014001a2a0 f i libucrtd:output.obj
 0001:0001a080       ??$get_module_file_name@AEAPEAUHINSTANCE__@@AEAY0BAF@_WK@?$__crt_char_traits@_W@@SAKAEAPEAUHINSTANCE__@@AEAY0BAF@_W$$QEAK@Z 000000014001b080 f i libucrtd:dbgrpt.obj
 0001:0001a0c0       ??$tcscpy_s@AEAY0BAF@D_KPEBD@?$__crt_char_traits@D@@SAHAEAY0BAF@D$$QEA_K$$QEAPEBD@Z 000000014001b0c0 f i libucrtd:dbgrpt.obj
 0001:0001a100       ??$tcscpy_s@AEAY0BAF@_W_KPEB_W@?$__crt_char_traits@_W@@SAHAEAY0BAF@_W$$QEA_K$$QEAPEB_W@Z 000000014001b100 f i libucrtd:dbgrpt.obj
 0001:0001a140       ??$tcslen@AEAY0BAF@D@?$__crt_char_traits@D@@SA_KAEAY0BAF@D@Z 000000014001b140 f i libucrtd:dbgrpt.obj
 0001:0001a160       ??$tcslen@AEAY0BAF@_W@?$__crt_char_traits@_W@@SA_KAEAY0BAF@_W@Z 000000014001b160 f i libucrtd:dbgrpt.obj
 0001:0001a180       ??$tcslen@AEBQEBD@?$__crt_char_traits@D@@SA_KAEBQEBD@Z 000000014001b180 f i libucrtd:dbgrpt.obj
 0001:0001a1a0       ??$tcslen@AEBQEB_W@?$__crt_char_traits@_W@@SA_KAEBQEB_W@Z 000000014001b1a0 f i libucrtd:dbgrpt.obj
 0001:0001a200       _CrtDbgReport              000000014001b200 f   libucrtd:dbgrpt.obj
 0001:0001a280       _CrtDbgReportW             000000014001b280 f   libucrtd:dbgrpt.obj
 0001:0001a300       __acrt_MessageWindowA      000000014001b300 f   libucrtd:dbgrpt.obj
 0001:0001a350       __acrt_MessageWindowW      000000014001b350 f   libucrtd:dbgrpt.obj
 0001:0001a3a0       _snwprintf_s               000000014001b3a0 f i libucrtd:dbgrpt.obj
 0001:0001a410       _vsnwprintf_s_l            000000014001b410 f i libucrtd:dbgrpt.obj
 0001:0001a490       ??$is_overflow_condition@K@__crt_strtox@@YA_NIK@Z 000000014001b490 f i libucrtd:atox.obj
 0001:0001a500       ??$parse_integer@KV?$c_string_character_source@D@__crt_strtox@@@__crt_strtox@@YAKQEAU__crt_locale_pointers@@V?$c_string_character_source@D@0@H_N@Z 000000014001b500 f i libucrtd:atox.obj
 0001:0001a990       ??$parse_integer@KV?$c_string_character_source@_W@__crt_strtox@@@__crt_strtox@@YAKQEAU__crt_locale_pointers@@V?$c_string_character_source@_W@0@H_N@Z 000000014001b990 f i libucrtd:atox.obj
 0001:0001ae40       ??0?$c_string_character_source@D@__crt_strtox@@QEAA@QEBDQEAPEBD@Z 000000014001be40 f i libucrtd:atox.obj
 0001:0001ae40       ??0?$c_string_character_source@_W@__crt_strtox@@QEAA@QEB_WQEAPEB_W@Z 000000014001be40 f i libucrtd:atox.obj
 0001:0001ae90       ??1?$c_string_character_source@D@__crt_strtox@@QEAA@XZ 000000014001be90 f i libucrtd:atox.obj
 0001:0001ae90       ??1?$c_string_character_source@_W@__crt_strtox@@QEAA@XZ 000000014001be90 f i libucrtd:atox.obj
 0001:0001aec0       ?get@?$c_string_character_source@D@__crt_strtox@@QEAADXZ 000000014001bec0 f i libucrtd:atox.obj
 0001:0001af00       ?get@?$c_string_character_source@_W@__crt_strtox@@QEAA_WXZ 000000014001bf00 f i libucrtd:atox.obj
 0001:0001af40       ?is_space@__crt_strtox@@YA_NDQEAU__crt_locale_pointers@@@Z 000000014001bf40 f i libucrtd:atox.obj
 0001:0001af90       ?is_space@__crt_strtox@@YA_N_WPEAU__crt_locale_pointers@@@Z 000000014001bf90 f i libucrtd:atox.obj
 0001:0001afd0       ?maximum_signed_value@__crt_strtox@@YAJK@Z 000000014001bfd0 f i libucrtd:atox.obj
 0001:0001afe0       ?minimum_signed_value@__crt_strtox@@YAJK@Z 000000014001bfe0 f i libucrtd:atox.obj
 0001:0001aff0       ?parse_digit@__crt_strtox@@YAID@Z 000000014001bff0 f i libucrtd:atox.obj
 0001:0001b060       ?parse_digit@__crt_strtox@@YAI_W@Z 000000014001c060 f i libucrtd:atox.obj
 0001:0001b0b0       ?restore_state@?$c_string_character_source@D@__crt_strtox@@QEAA_NQEBD@Z 000000014001c0b0 f i libucrtd:atox.obj
 0001:0001b0b0       ?restore_state@?$c_string_character_source@_W@__crt_strtox@@QEAA_NQEB_W@Z 000000014001c0b0 f i libucrtd:atox.obj
 0001:0001b0d0       ?unget@?$c_string_character_source@D@__crt_strtox@@QEAAXD@Z 000000014001c0d0 f i libucrtd:atox.obj
 0001:0001b1b0       ?unget@?$c_string_character_source@_W@__crt_strtox@@QEAAX_W@Z 000000014001c1b0 f i libucrtd:atox.obj
 0001:0001b290       ?validate@?$c_string_character_source@D@__crt_strtox@@QEBA_NXZ 000000014001c290 f i libucrtd:atox.obj
 0001:0001b350       ?validate@?$c_string_character_source@_W@__crt_strtox@@QEBA_NXZ 000000014001c350 f i libucrtd:atox.obj
 0001:0001b410       ?wide_character_to_digit@__crt_strtox@@YAH_W@Z 000000014001c410 f i libucrtd:atox.obj
 0001:0001b780       __ascii_iswalpha           000000014001c780 f i libucrtd:atox.obj
 0001:0001b7c0       __ascii_toupper            000000014001c7c0 f i libucrtd:atox.obj
 0001:0001b7e0       __ascii_towupper           000000014001c7e0 f i libucrtd:atox.obj
 0001:0001b810       strncmp                    000000014001c810 f   libucrtd:strncmp.obj
 0001:0001b890       wcsncmp                    000000014001c890 f   libucrtd:wcsncmp.obj
 0001:0001b920       free                       000000014001c920 f   libucrtd:free.obj
 0001:0001b950       malloc                     000000014001c950 f   libucrtd:malloc.obj
 0001:0001bbc0       ??0__crt_scoped_get_last_error_reset@@QEAA@XZ 000000014001cbc0 f i libucrtd:per_thread_data.obj
 0001:0001bbe0       ??1__crt_scoped_get_last_error_reset@@QEAA@XZ 000000014001cbe0 f i libucrtd:per_thread_data.obj
 0001:0001c280       __acrt_getptd              000000014001d280 f   libucrtd:per_thread_data.obj
 0001:0001c2b0       __acrt_getptd_head         000000014001d2b0 f   libucrtd:per_thread_data.obj
 0001:0001c2e0       __acrt_getptd_noexit       000000014001d2e0 f   libucrtd:per_thread_data.obj
 0001:0001c2f0       __acrt_initialize_ptd      000000014001d2f0 f   libucrtd:per_thread_data.obj
 0001:0001c330       __acrt_uninitialize_ptd    000000014001d330 f   libucrtd:per_thread_data.obj
 0001:0001c360       _set_error_mode            000000014001d360 f   libucrtd:set_error_mode.obj
 0001:0001cae0       wcscat_s                   000000014001dae0 f   libucrtd:wcscat_s.obj
 0001:0001cff0       wcscpy_s                   000000014001dff0 f   libucrtd:wcscpy_s.obj
 0001:0001d6c0       wcsncpy_s                  000000014001e6c0 f   libucrtd:wcsncpy_s.obj
 0001:0001ea60       ??1?$__crt_simd_cleanup_guard@$00@@QEAA@XZ 000000014001fa60 f i libucrtd:strnlen.obj
 0001:0001ea70       ?compare_equals@?$__crt_simd_traits@$00E@@SA?AT__m256i@@T2@0@Z 000000014001fa70 f i libucrtd:strnlen.obj
 0001:0001eab0       ?compare_equals@?$__crt_simd_traits@$00G@@SA?AT__m256i@@T2@0@Z 000000014001fab0 f i libucrtd:strnlen.obj
 0001:0001eaf0       ?compare_equals@?$__crt_simd_traits@$0A@E@@SA?AT__m128i@@T2@0@Z 000000014001faf0 f i libucrtd:strnlen.obj
 0001:0001eb20       ?compare_equals@?$__crt_simd_traits@$0A@G@@SA?AT__m128i@@T2@0@Z 000000014001fb20 f i libucrtd:strnlen.obj
 0001:0001eb50       ?compute_byte_mask@?$__crt_simd_pack_traits@$00@@SAHT__m256i@@@Z 000000014001fb50 f i libucrtd:strnlen.obj
 0001:0001eb70       ?compute_byte_mask@?$__crt_simd_pack_traits@$0A@@@SAHT__m128i@@@Z 000000014001fb70 f i libucrtd:strnlen.obj
 0001:0001eb90       ?get_zero_pack@?$__crt_simd_pack_traits@$00@@SA?AT__m256i@@XZ 000000014001fb90 f i libucrtd:strnlen.obj
 0001:0001ebc0       ?get_zero_pack@?$__crt_simd_pack_traits@$0A@@@SA?AT__m128i@@XZ 000000014001fbc0 f i libucrtd:strnlen.obj
 0001:0001ebe0       strnlen                    000000014001fbe0 f   libucrtd:strnlen.obj
 0001:0001ec10       wcslen                     000000014001fc10 f   libucrtd:strnlen.obj
 0001:0001ec30       wcsnlen                    000000014001fc30 f   libucrtd:strnlen.obj
 0001:0001eda0       ??$message_box@PEAUHWND__@@AEBQEB_WAEBQEB_WAEBI@?$__crt_char_traits@_W@@SAH$$QEAPEAUHWND__@@AEBQEB_W1AEBI@Z 000000014001fda0 f i libucrtd:crtmbox.obj
 0001:0001eda0       ??$message_box@$$TAEBQEB_WAEBQEB_WK@?$__crt_char_traits@_W@@SAH$$QEA$$TAEBQEB_W1$$QEAK@Z 000000014001fda0 f i libucrtd:crtmbox.obj
 0001:0001edf0       ??$output_debug_string@AEBQEB_W@?$__crt_char_traits@_W@@SAXAEBQEB_W@Z 000000014001fdf0 f i libucrtd:crtmbox.obj
 0001:0001ee10       __acrt_show_wide_message_box 000000014001fe10 f   libucrtd:crtmbox.obj
 0001:0001ee40       __acrt_errno_from_os_error 000000014001fe40 f   libucrtd:errno.obj
 0001:0001eed0       __acrt_errno_map_os_error  000000014001fed0 f   libucrtd:errno.obj
 0001:0001ef00       __doserrno                 000000014001ff00 f   libucrtd:errno.obj
 0001:0001ef30       _errno                     000000014001ff30 f   libucrtd:errno.obj
 0001:0001f2d0       ??$__acrt_mbs_to_wcs_cp@U__crt_win32_buffer_internal_dynamic_resizing@@@@YAHQEBDAEAV?$__crt_win32_buffer@_WU__crt_win32_buffer_internal_dynamic_resizing@@@@I@Z 00000001400202d0 f i libucrtd:argv_wildcards.obj
 0001:0001f320       ??$__acrt_wcs_to_mbs_cp@U__crt_win32_buffer_internal_dynamic_resizing@@@@YAHQEB_WAEAV?$__crt_win32_buffer@DU__crt_win32_buffer_internal_dynamic_resizing@@@@I@Z 0000000140020320 f i libucrtd:argv_wildcards.obj
 0001:0001fd70       ??$tcsncpy_s@PEADAEB_KAEBQEBDAEB_K@?$__crt_char_traits@D@@SAH$$QEAPEADAEB_KAEBQEBD1@Z 0000000140020d70 f i libucrtd:argv_wildcards.obj
 0001:0001fd70       ??$tcsncpy_s@AEAPEAD_KAEAPEADAEB_K@?$__crt_char_traits@D@@SAHAEAPEAD$$QEA_K0AEB_K@Z 0000000140020d70 f i libucrtd:argv_wildcards.obj
 0001:0001fd70       ??$tcsncpy_s@PEAD_KAEBQEBDAEB_K@?$__crt_char_traits@D@@SAH$$QEAPEAD$$QEA_KAEBQEBDAEB_K@Z 0000000140020d70 f i libucrtd:argv_wildcards.obj
 0001:0001fdc0       ??$tcspbrk@AEAPEADAEAY02$$CBD@?$__crt_char_traits@D@@SAPEADAEAPEADAEAY02$$CBD@Z 0000000140020dc0 f i libucrtd:argv_wildcards.obj
 0001:0001fdf0       ??0?$__crt_win32_buffer@_WU__crt_win32_buffer_internal_dynamic_resizing@@@@QEAA@XZ 0000000140020df0 f i libucrtd:argv_wildcards.obj
 0001:0001fdf0       ??0?$__crt_win32_buffer@DU__crt_win32_buffer_internal_dynamic_resizing@@@@QEAA@XZ 0000000140020df0 f i libucrtd:argv_wildcards.obj
 0001:0001fe90       ??1?$__crt_unique_handle_t@U__crt_findfile_traits@@@@QEAA@XZ 0000000140020e90 f i libucrtd:argv_wildcards.obj
 0001:0001feb0       ??1?$__crt_win32_buffer@_WU__crt_win32_buffer_internal_dynamic_resizing@@@@QEAA@XZ 0000000140020eb0 f i libucrtd:argv_wildcards.obj
 0001:0001feb0       ??1?$__crt_win32_buffer@DU__crt_win32_buffer_internal_dynamic_resizing@@@@QEAA@XZ 0000000140020eb0 f i libucrtd:argv_wildcards.obj
 0001:000200a0       ?__acrt_get_utf8_acp_compatibility_codepage@@YAIXZ 00000001400210a0 f i libucrtd:argv_wildcards.obj
 0001:00020140       ?_deallocate@?$__crt_win32_buffer@_WU__crt_win32_buffer_internal_dynamic_resizing@@@@AEAAXXZ 0000000140021140 f i libucrtd:argv_wildcards.obj
 0001:00020140       ?_deallocate@?$__crt_win32_buffer@DU__crt_win32_buffer_internal_dynamic_resizing@@@@AEAAXXZ 0000000140021140 f i libucrtd:argv_wildcards.obj
 0001:00020180       ?allocate@?$__crt_win32_buffer@DU__crt_win32_buffer_internal_dynamic_resizing@@@@QEAAH_K@Z 0000000140021180 f i libucrtd:argv_wildcards.obj
 0001:00020200       ?allocate@?$__crt_win32_buffer@_WU__crt_win32_buffer_internal_dynamic_resizing@@@@QEAAH_K@Z 0000000140021200 f i libucrtd:argv_wildcards.obj
 0001:00020290       ?allocate@__crt_win32_buffer_internal_dynamic_resizing@@SAHQEAPEAX_KAEBV__crt_win32_buffer_empty_debug_info@@@Z 0000000140021290 f i libucrtd:argv_wildcards.obj
 0001:00020360       ?capacity@?$__crt_win32_buffer@DU__crt_win32_buffer_internal_dynamic_resizing@@@@QEBA_KXZ 0000000140021360 f i libucrtd:argv_wildcards.obj
 0001:00020360       ?capacity@?$__crt_win32_buffer@DU__crt_win32_buffer_no_resizing@@@@QEBA_KXZ 0000000140021360 f i libucrtd:getmodulefilenamea.obj
 0001:00020360       ?capacity@?$__crt_win32_buffer@_WU__crt_win32_buffer_internal_dynamic_resizing@@@@QEBA_KXZ 0000000140021360 f i libucrtd:argv_wildcards.obj
 0001:00020370       ?close@?$__crt_unique_handle_t@U__crt_findfile_traits@@@@QEAAXXZ 0000000140021370 f i libucrtd:argv_wildcards.obj
 0001:000203b0       ?close@__crt_findfile_traits@@SA_NPEAX@Z 00000001400213b0 f i libucrtd:argv_wildcards.obj
 0001:000203f0       ?data@?$__crt_win32_buffer@_WU__crt_win32_buffer_internal_dynamic_resizing@@@@QEAAPEA_WXZ 00000001400213f0 f i libucrtd:argv_wildcards.obj
 0001:000203f0       ?data@?$__crt_win32_buffer@DU__crt_win32_buffer_no_resizing@@@@QEAAPEADXZ 00000001400213f0 f i libucrtd:getmodulefilenamea.obj
 0001:000203f0       ?data@?$__crt_win32_buffer@DU__crt_win32_buffer_internal_dynamic_resizing@@@@QEAAPEADXZ 00000001400213f0 f i libucrtd:argv_wildcards.obj
 0001:00020400       ?deallocate@__crt_win32_buffer_internal_dynamic_resizing@@SAXQEAXAEBV__crt_win32_buffer_empty_debug_info@@@Z 0000000140021400 f i libucrtd:argv_wildcards.obj
 0001:000206f0       ?set_to_nullptr@?$__crt_win32_buffer@_WU__crt_win32_buffer_internal_dynamic_resizing@@@@QEAAXXZ 00000001400216f0 f i libucrtd:argv_wildcards.obj
 0001:000206f0       ?set_to_nullptr@?$__crt_win32_buffer@DU__crt_win32_buffer_internal_dynamic_resizing@@@@QEAAXXZ 00000001400216f0 f i libucrtd:argv_wildcards.obj
 0001:00020730       ?size@?$__crt_win32_buffer@DU__crt_win32_buffer_internal_dynamic_resizing@@@@QEAAX_K@Z 0000000140021730 f i libucrtd:argv_wildcards.obj
 0001:00020730       ?size@?$__crt_win32_buffer@_WU__crt_win32_buffer_internal_dynamic_resizing@@@@QEAAX_K@Z 0000000140021730 f i libucrtd:argv_wildcards.obj
 0001:00020730       ?size@?$__crt_win32_buffer@DU__crt_win32_buffer_no_resizing@@@@QEAAX_K@Z 0000000140021730 f i libucrtd:getmodulefilenamea.obj
 0001:00020770       ?strpbrk@@YAPEADQEADQEBD@Z 0000000140021770 f i libucrtd:argv_wildcards.obj
 0001:000207a0       __acrt_expand_narrow_argv_wildcards 00000001400217a0 f   libucrtd:argv_wildcards.obj
 0001:00020970       ??$__acrt_wcs_to_mbs_cp@U__crt_win32_buffer_no_resizing@@@@YAHQEB_WAEAV?$__crt_win32_buffer@DU__crt_win32_buffer_no_resizing@@@@I@Z 0000000140021970 f i libucrtd:getmodulefilenamea.obj
 0001:000209c0       ??0?$__crt_win32_buffer@DU__crt_win32_buffer_no_resizing@@@@QEAA@QEAD_K@Z 00000001400219c0 f i libucrtd:getmodulefilenamea.obj
 0001:00020a30       ??1?$__crt_win32_buffer@DU__crt_win32_buffer_no_resizing@@@@QEAA@XZ 0000000140021a30 f i libucrtd:getmodulefilenamea.obj
 0001:00020a60       ?_deallocate@?$__crt_win32_buffer@DU__crt_win32_buffer_no_resizing@@@@AEAAXXZ 0000000140021a60 f i libucrtd:getmodulefilenamea.obj
 0001:00020aa0       ?allocate@?$__crt_win32_buffer@DU__crt_win32_buffer_no_resizing@@@@QEAAH_K@Z 0000000140021aa0 f i libucrtd:getmodulefilenamea.obj
 0001:00020b20       ?allocate@__crt_win32_buffer_no_resizing@@SAHQEAPEAX_KAEBV__crt_win32_buffer_empty_debug_info@@@Z 0000000140021b20 f i libucrtd:getmodulefilenamea.obj
 0001:00020b50       ?deallocate@__crt_win32_buffer_no_resizing@@SAXQEAXAEBV__crt_win32_buffer_empty_debug_info@@@Z 0000000140021b50 f i libucrtd:getmodulefilenamea.obj
 0001:00020b60       ?set_to_nullptr@?$__crt_win32_buffer@DU__crt_win32_buffer_no_resizing@@@@QEAAXXZ 0000000140021b60 f i libucrtd:getmodulefilenamea.obj
 0001:00020ba0       ?size@?$__crt_win32_buffer@DU__crt_win32_buffer_no_resizing@@@@QEBA_KXZ 0000000140021ba0 f i libucrtd:getmodulefilenamea.obj
 0001:00020bb0       __acrt_GetModuleFileNameA  0000000140021bb0 f   libucrtd:getmodulefilenamea.obj
 0001:00020d20       ??$initialize_from_array@$$BY10BAA@E@?$dual_state_global@PEAE@__crt_state_management@@QEAAXAEAY10BAA@E@Z 0000000140021d20 f i libucrtd:mbctype.obj
 0001:00020d90       ??$initialize_from_array@$$BY10BAB@E@?$dual_state_global@PEAE@__crt_state_management@@QEAAXAEAY10BAB@E@Z 0000000140021d90 f i libucrtd:mbctype.obj
 0001:00021900       __acrt_initialize_multibyte 0000000140022900 f   libucrtd:mbctype.obj
 0001:000219d0       __acrt_should_sync_with_global_locale 00000001400229d0 f i libucrtd:mbctype.obj
 0001:00021a10       __acrt_update_thread_multibyte_data 0000000140022a10 f   libucrtd:mbctype.obj
 0001:00021a40       _setmbcp_nolock            0000000140022a40 f   libucrtd:mbctype.obj
 0001:000220e4       _ismbblead                 00000001400230e4 f   libucrtd:ismbbyte.obj
 0001:00022100       __acrt_initialize_command_line 0000000140023100 f   libucrtd:argv_data.obj
 0001:000221d0       __acrt_MultiByteToWideChar 00000001400231d0 f   libucrtd:multibytetowidechar.obj
 0001:000222d0       __acrt_WideCharToMultiByte 00000001400232d0 f   libucrtd:widechartomultibyte.obj
 0001:00022400       __dcrt_get_narrow_environment_from_os 0000000140023400 f   libucrtd:get_environment_from_os.obj
 0001:00022520       __acrt_initialize_locks    0000000140023520 f   libucrtd:locks.obj
 0001:00022590       __acrt_lock                0000000140023590 f   libucrtd:locks.obj
 0001:000225c0       __acrt_uninitialize_locks  00000001400235c0 f   libucrtd:locks.obj
 0001:00022620       __acrt_unlock              0000000140023620 f   libucrtd:locks.obj
 0001:00022930       __acrt_get_developer_information_policy 0000000140023930 f   libucrtd:win_policies.obj
 0001:00022950       __acrt_get_process_end_policy 0000000140023950 f   libucrtd:win_policies.obj
 0001:00022960       __acrt_get_windowing_model_policy 0000000140023960 f   libucrtd:win_policies.obj
 0001:00022980       __acrt_lowio_create_handle_array 0000000140023980 f   libucrtd:osfinfo.obj
 0001:00022b40       __acrt_lowio_destroy_handle_array 0000000140023b40 f   libucrtd:osfinfo.obj
 0001:00022bc0       __acrt_lowio_ensure_fh_exists 0000000140023bc0 f   libucrtd:osfinfo.obj
 0001:00022d20       __acrt_lowio_lock_fh       0000000140023d20 f   libucrtd:osfinfo.obj
 0001:00022d60       __acrt_lowio_unlock_fh     0000000140023d60 f   libucrtd:osfinfo.obj
 0001:00022da0       _free_osfhnd               0000000140023da0 f   libucrtd:osfinfo.obj
 0001:00022ed0       _get_osfhandle             0000000140023ed0 f   libucrtd:osfinfo.obj
 0001:000230d0       __acrt_initialize_fmode    00000001400240d0 f   libucrtd:txtmode.obj
 0001:000234d0       __acrt_initialize_lowio    00000001400244d0 f   libucrtd:ioinit.obj
 0001:00023520       __acrt_uninitialize_lowio  0000000140024520 f   libucrtd:ioinit.obj
 0001:000235a0       __acrt_locale_free_monetary 00000001400245a0 f   libucrtd:initmon.obj
 0001:000237b0       __acrt_locale_free_numeric 00000001400247b0 f   libucrtd:initnum.obj
 0001:00023950       __acrt_locale_free_time    0000000140024950 f   libucrtd:inittime.obj
 0001:00023ac0       __pctype_func              0000000140024ac0 f   libucrtd:ctype.obj
 0001:00023b00       _chvalidator_l             0000000140024b00 f   libucrtd:isctype.obj
 0001:00023bb0       _isctype_l                 0000000140024bb0 f   libucrtd:isctype.obj
 0001:00023de0       _isleadbyte_fast_internal  0000000140024de0 f i libucrtd:isctype.obj
 0001:00023e10       ??1?$__crt_scoped_stack_ptr@_W@@QEAA@XZ 0000000140024e10 f i libucrtd:getstringtypea.obj
 0001:00023e30       _MallocaComputeSize        0000000140024e30 f i libucrtd:getstringtypea.obj
 0001:00023e70       _MarkAllocaS               0000000140024e70 f i libucrtd:getstringtypea.obj
 0001:00023ea0       __acrt_GetStringTypeA      0000000140024ea0 f   libucrtd:getstringtypea.obj
 0001:00024100       _freea_crt                 0000000140025100 f i libucrtd:getstringtypea.obj
 0001:000241a0       __acrt_add_locale_ref      00000001400251a0 f   libucrtd:locale_refcounting.obj
 0001:00024300       __acrt_free_locale         0000000140025300 f   libucrtd:locale_refcounting.obj
 0001:00024680       __acrt_locale_add_lc_time_reference 0000000140025680 f   libucrtd:locale_refcounting.obj
 0001:000246c0       __acrt_locale_free_lc_time_if_unreferenced 00000001400256c0 f   libucrtd:locale_refcounting.obj
 0001:00024720       __acrt_locale_release_lc_time_reference 0000000140025720 f   libucrtd:locale_refcounting.obj
 0001:00024760       __acrt_release_locale_ref  0000000140025760 f   libucrtd:locale_refcounting.obj
 0001:000248d0       __acrt_update_thread_locale_data 00000001400258d0 f   libucrtd:locale_refcounting.obj
 0001:00024970       _updatetlocinfoEx_nolock   0000000140025970 f   libucrtd:locale_refcounting.obj
 0001:00025180       GetCurrentThreadEffectiveToken 0000000140026180 f i libucrtd:winapi_thunks.obj
 0001:00025190       __acrt_AppPolicyGetProcessTerminationMethodInternal 0000000140026190 f   libucrtd:winapi_thunks.obj
 0001:000251e0       __acrt_AppPolicyGetShowDeveloperDiagnosticInternal 00000001400261e0 f   libucrtd:winapi_thunks.obj
 0001:00025230       __acrt_AppPolicyGetWindowingModelInternal 0000000140026230 f   libucrtd:winapi_thunks.obj
 0001:00025280       __acrt_AreFileApisANSI     0000000140026280 f   libucrtd:winapi_thunks.obj
 0001:000252c0       __acrt_FlsAlloc            00000001400262c0 f   libucrtd:winapi_thunks.obj
 0001:00025310       __acrt_FlsFree             0000000140026310 f   libucrtd:winapi_thunks.obj
 0001:00025360       __acrt_FlsGetValue         0000000140026360 f   libucrtd:winapi_thunks.obj
 0001:000253b0       __acrt_FlsSetValue         00000001400263b0 f   libucrtd:winapi_thunks.obj
 0001:00025410       __acrt_InitializeCriticalSectionEx 0000000140026410 f   libucrtd:winapi_thunks.obj
 0001:00025470       __acrt_LCMapStringEx       0000000140026470 f   libucrtd:winapi_thunks.obj
 0001:00025550       __acrt_LocaleNameToLCID    0000000140026550 f   libucrtd:winapi_thunks.obj
 0001:000255a0       __acrt_MessageBoxW         00000001400265a0 f   libucrtd:winapi_thunks.obj
 0001:00025600       __acrt_can_show_message_box 0000000140026600 f   libucrtd:winapi_thunks.obj
 0001:00025640       __acrt_get_parent_window   0000000140026640 f   libucrtd:winapi_thunks.obj
 0001:000256c0       __acrt_initialize_winapi_thunks 00000001400266c0 f   libucrtd:winapi_thunks.obj
 0001:00025740       __acrt_is_interactive      0000000140026740 f   libucrtd:winapi_thunks.obj
 0001:00025820       __acrt_uninitialize_winapi_thunks 0000000140026820 f   libucrtd:winapi_thunks.obj
 0001:000258c0       __acrt_initialize_heap     00000001400268c0 f   libucrtd:heap_handle.obj
 0001:000258f0       __acrt_uninitialize_heap   00000001400268f0 f   libucrtd:heap_handle.obj
 0001:00025910       __acrt_execute_initializers 0000000140026910 f   libucrtd:shared_initialization.obj
 0001:00025a00       __acrt_execute_uninitializers 0000000140026a00 f   libucrtd:shared_initialization.obj
 0001:00025a80       __acrt_initialize_new_handler 0000000140026a80 f   libucrtd:new_handler.obj
 0001:00025aa0       _callnewh                  0000000140026aa0 f   libucrtd:new_handler.obj
 0001:00025af0       _query_new_handler         0000000140026af0 f   libucrtd:new_handler.obj
 0001:00025cf0       __acrt_get_sigabrt_handler 0000000140026cf0 f   libucrtd:signal.obj
 0001:00025d20       __acrt_initialize_signal_handlers 0000000140026d20 f   libucrtd:signal.obj
 0001:00025d80       __fpecode                  0000000140026d80 f   libucrtd:signal.obj
 0001:00025da0       raise                      0000000140026da0 f   libucrtd:signal.obj
 0001:00026260       ?has_any_of@__crt_stdio_stream@@QEBA_NJ@Z 0000000140027260 f i libucrtd:_sftbuf.obj
 0001:000262a0       ?set_flags@__crt_stdio_stream@@QEBA_NJ@Z 00000001400272a0 f i libucrtd:_sftbuf.obj
 0001:00026310       ?unset_flags@__crt_stdio_stream@@QEBA_NJ@Z 0000000140027310 f i libucrtd:_sftbuf.obj
 0001:00026380       _free_base                 0000000140027380 f   libucrtd:free_base.obj
 0001:000263e0       _realloc_base              00000001400273e0 f   libucrtd:realloc_base.obj
 0001:00026500       _expand_base               0000000140027500 f   libucrtd:expand.obj
 0001:00026690       __acrt_update_locale_info  0000000140027690 f   libucrtd:locale_update.obj
 0001:000266e0       __acrt_update_multibyte_info 00000001400276e0 f   libucrtd:locale_update.obj
 0001:00026730       _CrtDefaultAllocHook       0000000140027730 f   libucrtd:debug_heap_hook.obj
 0001:00026750       _CrtGetDebugFillThreshold  0000000140027750 f   libucrtd:debug_fill_threshold.obj
 0001:00026760       ??$make_c_string_character_source@DPEAPEAD@__crt_strtox@@YA?AV?$c_string_character_source@D@0@QEBDQEAPEAD@Z 0000000140027760 f i libucrtd:strtox.obj
 0001:00026760       ??$make_c_string_character_source@_WPEAPEA_W@__crt_strtox@@YA?AV?$c_string_character_source@_W@0@QEB_WQEAPEA_W@Z 0000000140027760 f i libucrtd:strtox.obj
 0001:000267a0       ??$parse_integer_from_string@JDPEAPEAD@__crt_strtox@@YAJQEBDQEAPEADHQEAU__crt_locale_pointers@@@Z 00000001400277a0 f i libucrtd:strtox.obj
 0001:000267f0       ??$parse_integer_from_string@J_WPEAPEA_W@__crt_strtox@@YAJQEB_WQEAPEA_WHQEAU__crt_locale_pointers@@@Z 00000001400277f0 f i libucrtd:strtox.obj
 0001:00026840       strtol                     0000000140027840 f   libucrtd:strtox.obj
 0001:00026870       wcstol                     0000000140027870 f   libucrtd:strtox.obj
 0001:000268a0       _mbtowc_l                  00000001400278a0 f   libucrtd:mbtowc.obj
 0001:00026d00       mbtowc                     0000000140027d00 f   libucrtd:mbtowc.obj
 0001:00026d30       _wctomb_s_l                0000000140027d30 f   libucrtd:wctomb.obj
 0001:000272b0       ?__acrt_fp_classify@@YA?AW4__acrt_fp_class@@AEBN@Z 00000001400282b0 f i libucrtd:cvt.obj
 0001:000273b0       ?__acrt_fp_is_negative@@YA_NAEBN@Z 00000001400283b0 f i libucrtd:cvt.obj
 0001:00028d80       ?strrchr@@YAPEADQEADH@Z    0000000140029d80 f i libucrtd:cvt.obj
 0001:00028da0       __acrt_fp_format           0000000140029da0 f   libucrtd:cvt.obj
 0001:000293b0       ?lowio_handle@__crt_stdio_stream@@QEBAHXZ 000000014002a3b0 f i libucrtd:fileno.obj
 0001:000293e0       _fileno                    000000014002a3e0 f   libucrtd:fileno.obj
 0001:000294c0       __acrt_initialize_stdio    000000014002a4c0 f   libucrtd:_file.obj
 0001:000296b0       __acrt_uninitialize_stdio  000000014002a6b0 f   libucrtd:_file.obj
 0001:00029740       _lock_file                 000000014002a740 f   libucrtd:_file.obj
 0001:00029780       _unlock_file               000000014002a780 f   libucrtd:_file.obj
 0001:000297c0       _get_printf_count_output   000000014002a7c0 f   libucrtd:printf_count_output.obj
 0001:000297f0       _VCrtDbgReportA            000000014002a7f0 f   libucrtd:dbgrptt.obj
 0001:0002a1d0       _VCrtDbgReportW            000000014002b1d0 f   libucrtd:dbgrptt.obj
 0001:0002ad50       _snprintf_s                000000014002bd50 f i libucrtd:dbgrptt.obj
 0001:0002adc0       _vsnprintf_s               000000014002bdc0 f i libucrtd:dbgrptt.obj
 0001:0002ae10       _vsnprintf_s_l             000000014002be10 f i libucrtd:dbgrptt.obj
 0001:0002ae90       iswctype                   000000014002be90 f   libucrtd:iswctype.obj
 0001:0002af20       __acrt_OutputDebugStringA  000000014002bf20 f   libucrtd:outputdebugstringa.obj
 0001:0002b150       qsort                      000000014002c150 f   libucrtd:qsort.obj
 0001:0002bee0       strncpy_s                  000000014002cee0 f   libucrtd:strncpy_s.obj
 0001:0002c050       strpbrk                    000000014002d050 f   libucrtd:strpbrk.obj
 0001:0002c940       _mbsdec                    000000014002d940 f   libucrtd:mbsdec.obj
 0001:0002c948       _mbsdec_l                  000000014002d948 f   libucrtd:mbsdec.obj
 0001:0002d030       __acrt_LCMapStringA        000000014002e030 f   libucrtd:lcmapstringa.obj
 0001:0002dd00       _itoa_s                    000000014002ed00 f   libucrtd:xtoa.obj
 0001:0002dd60       _itow_s                    000000014002ed60 f   libucrtd:xtoa.obj
 0001:0002ddc0       __ascii_wcsnicmp           000000014002edc0 f   libucrtd:wcsnicmp.obj
 0001:0002df40       __acrt_DownlevelLocaleNameToLCID 000000014002ef40 f   libucrtd:lcidtoname_downlevel.obj
 0001:0002dfa0       _isatty                    000000014002efa0 f   libucrtd:isatty.obj
 0001:0002e420       ?__acrt_stdio_reset_buffer@@YAXV__crt_stdio_stream@@@Z 000000014002f420 f i libucrtd:fflush.obj
 0001:0002e550       ?has_all_of@__crt_stdio_stream@@QEBA_NJ@Z 000000014002f550 f i libucrtd:fflush.obj
 0001:0002e630       __acrt_stdio_flush_nolock  000000014002f630 f   libucrtd:fflush.obj
 0001:0002e740       _fflush_nolock             000000014002f740 f   libucrtd:fflush.obj
 0001:0002e7d0       _flushall                  000000014002f7d0 f   libucrtd:fflush.obj
 0001:0002e7e0       _malloc_base               000000014002f7e0 f   libucrtd:malloc_base.obj
 0001:0002e880       _isleadbyte_l              000000014002f880 f i libucrtd:_wctype.obj
 0001:0002e950       ?__mbrtowc_utf8@__crt_mbstring@@YA_KPEA_WPEBD_KPEAU_Mbstatet@@@Z 000000014002f950 f   libucrtd:mbrtowc.obj
 0001:0002e9c0       ?__mbsrtowcs_utf8@__crt_mbstring@@YA_KPEA_WPEAPEBD_KPEAU_Mbstatet@@@Z 000000014002f9c0 f   libucrtd:mbrtowc.obj
 0001:0002ecc0       ?__c32rtomb_utf8@__crt_mbstring@@YA_KPEAD_UPEAU_Mbstatet@@@Z 000000014002fcc0 f   libucrtd:c32rtomb.obj
 0001:0002ef40       ?reset_and_return@__crt_mbstring@@YA_K_KPEAU_Mbstatet@@@Z 000000014002ff40 f i libucrtd:c32rtomb.obj
 0001:0002ef80       ?return_illegal_sequence@__crt_mbstring@@YA_KPEAU_Mbstatet@@@Z 000000014002ff80 f i libucrtd:c32rtomb.obj
 0001:0002efc0       c32rtomb                   000000014002ffc0 f   libucrtd:c32rtomb.obj
 0001:0002f180       __acrt_fp_strflt_to_string 0000000140030180 f   libucrtd:_fptostr.obj
 0001:0002fc80       ??0big_integer@__crt_strtox@@QEAA@AEBU01@@Z 0000000140030c80 f i libucrtd:cfout.obj
 0001:0002fc80       ??4big_integer@__crt_strtox@@QEAAAEAU01@AEBU01@@Z 0000000140030c80 f i libucrtd:cfout.obj
 0001:0002fce0       ??0big_integer@__crt_strtox@@QEAA@XZ 0000000140030ce0 f i libucrtd:cfout.obj
 0001:0002fda0       ??8__crt_strtox@@YA_NAEBUbig_integer@0@0@Z 0000000140030da0 f i libucrtd:cfout.obj
 0001:0002fe10       ??9__crt_strtox@@YA_NAEBUbig_integer@0@0@Z 0000000140030e10 f i libucrtd:cfout.obj
 0001:0002fe50       ?add_carry@__crt_strtox@@YAIAEAIII@Z 0000000140030e50 f i libucrtd:cfout.obj
 0001:0002fea0       ?add_multiply_carry@__crt_strtox@@YAIAEAIIII@Z 0000000140030ea0 f i libucrtd:cfout.obj
 0001:0002ff00       ?bit_scan_reverse@__crt_strtox@@YAII@Z 0000000140030f00 f i libucrtd:cfout.obj
 0001:0002ff40       ?count_sequential_high_zeroes@__crt_strtox@@YAII@Z 0000000140030f40 f i libucrtd:cfout.obj
 0001:0002ff80       ?divide@__crt_strtox@@YA_KAEAUbig_integer@1@AEBU21@@Z 0000000140030f80 f i libucrtd:cfout.obj
 0001:00030950       ?is_zero@__crt_strtox@@YA_NAEBUbig_integer@1@@Z 0000000140031950 f i libucrtd:cfout.obj
 0001:00030980       ?make_big_integer@__crt_strtox@@YA?AUbig_integer@1@_K@Z 0000000140031980 f i libucrtd:cfout.obj
 0001:00030a50       ?make_big_integer_power_of_two@__crt_strtox@@YA?AUbig_integer@1@I@Z 0000000140031a50 f i libucrtd:cfout.obj
 0001:00030b20       ?multiply@__crt_strtox@@YA_NAEAUbig_integer@1@AEBU21@@Z 0000000140031b20 f i libucrtd:cfout.obj
 0001:00030ea0       ?multiply@__crt_strtox@@YA_NAEAUbig_integer@1@I@Z 0000000140031ea0 f i libucrtd:cfout.obj
 0001:00030fc0       ?multiply_64_32@__crt_strtox@@YA_K_KI@Z 0000000140031fc0 f i libucrtd:cfout.obj
 0001:00030fe0       ?multiply_by_power_of_ten@__crt_strtox@@YA_NAEAUbig_integer@1@I@Z 0000000140031fe0 f i libucrtd:cfout.obj
 0001:00031190       ?multiply_core@__crt_strtox@@YAIQEAIII@Z 0000000140032190 f i libucrtd:cfout.obj
 0001:00031210       ?shift_left@__crt_strtox@@YA_NAEAUbig_integer@1@I@Z 0000000140032210 f i libucrtd:cfout.obj
 0001:000314f0       __acrt_fltout              00000001400324f0 f   libucrtd:cfout.obj
 0001:000318a0       fegetround                 00000001400328a0 f   libucrtd:fegetround.obj
 0001:000318c0       ?is_in_use@__crt_stdio_stream@@QEBA_NXZ 00000001400328c0 f i libucrtd:closeall.obj
 0001:00031900       _fcloseall                 0000000140032900 f   libucrtd:closeall.obj
 0001:00031a10       ?has_crt_buffer@__crt_stdio_stream@@QEBA_NXZ 0000000140032a10 f i libucrtd:_freebuf.obj
 0001:00031a30       __acrt_stdio_free_buffer_nolock 0000000140032a30 f   libucrtd:_freebuf.obj
 0001:000320f0       _mbstowcs_s_l              00000001400330f0 f   libucrtd:mbstowcs.obj
 0001:000326c0       mbstowcs_s                 00000001400336c0 f   libucrtd:mbstowcs.obj
 0001:00033050       _wcstombs_s_l              0000000140034050 f   libucrtd:wcstombs.obj
 0001:00033590       wcstombs_s                 0000000140034590 f   libucrtd:wcstombs.obj
 0001:00033c50       strcat_s                   0000000140034c50 f   libucrtd:strcat_s.obj
 0001:00033c80       __acrt_GetStringTypeW      0000000140034c80 f   libucrtd:getstringtypew.obj
 0001:00033cc0       __strncnt                  0000000140034cc0 f   libucrtd:strncnt.obj
 0001:00033ed0       _commit                    0000000140034ed0 f   libucrtd:commit.obj
 0001:00035ab0       _utf8_no_of_trailbytes     0000000140036ab0 f i libucrtd:write.obj
 0001:00035ad0       _write                     0000000140036ad0 f   libucrtd:write.obj
 0001:00035d70       _write_nolock              0000000140036d70 f   libucrtd:write.obj
 0001:00036340       ?__mbrtoc32_utf8@__crt_mbstring@@YA_KPEA_UPEBD_KPEAU_Mbstatet@@@Z 0000000140037340 f   libucrtd:mbrtoc32.obj
 0001:00036700       log10                      0000000140037700 f   libucrtd:log10.obj
 0001:00036cb0       ceil                       0000000140037cb0 f   libucrtd:ceil.obj
 0001:00036e80       _controlfp_s               0000000140037e80 f   libucrtd:contrlfp.obj
 0001:00036fb0       fegetenv                   0000000140037fb0 f   libucrtd:fegetenv.obj
 0001:00036fe0       fesetenv                   0000000140037fe0 f   libucrtd:fesetenv.obj
 0001:00037060       feholdexcept               0000000140038060 f   libucrtd:feholdexcept.obj
 0001:000370d0       ??$__acrt_fenv_shift_bits@W4__acrt_fenv_abstract_control@@@@YA?AW4__acrt_fenv_abstract_control@@W40@0I@Z 00000001400380d0 f i libucrtd:_fenvutils.obj
 0001:000370d0       ??$__acrt_fenv_shift_bits@W4__acrt_fenv_abstract_status@@@@YA?AW4__acrt_fenv_abstract_status@@W40@0I@Z 00000001400380d0 f i libucrtd:_fenvutils.obj
 0001:00037100       ??$__acrt_fenv_translate_bit@W4__acrt_fenv_abstract_control@@W4__acrt_fenv_machine_sse_control@@@@YA?AW4__acrt_fenv_abstract_control@@W4__acrt_fenv_machine_sse_control@@0W40@1@Z 0000000140038100 f i libucrtd:_fenvutils.obj
 0001:00037160       ??$__acrt_fenv_translate_bit@W4__acrt_fenv_abstract_status@@W4__acrt_fenv_machine_sse_status@@@@YA?AW4__acrt_fenv_abstract_status@@W4__acrt_fenv_machine_sse_status@@0W40@1@Z 0000000140038160 f i libucrtd:_fenvutils.obj
 0001:00037160       ??$__acrt_fenv_translate_bit@W4__acrt_fenv_machine_sse_status@@W4__acrt_fenv_abstract_status@@@@YA?AW4__acrt_fenv_machine_sse_status@@W4__acrt_fenv_abstract_status@@0W40@1@Z 0000000140038160 f i libucrtd:_fenvutils.obj
 0001:000371b0       ??$__acrt_fenv_translate_bit@W4__acrt_fenv_machine_sse_control@@W4__acrt_fenv_abstract_control@@@@YA?AW4__acrt_fenv_machine_sse_control@@W4__acrt_fenv_abstract_control@@0W40@1@Z 00000001400381b0 f i libucrtd:_fenvutils.obj
 0001:00037210       ??$__acrt_fenv_unshift_bits@W4__acrt_fenv_abstract_status@@@@YA?AW4__acrt_fenv_abstract_status@@W40@0I@Z 0000000140038210 f i libucrtd:_fenvutils.obj
 0001:00037210       ??$__acrt_fenv_unshift_bits@W4__acrt_fenv_abstract_control@@@@YA?AW4__acrt_fenv_abstract_control@@W40@0I@Z 0000000140038210 f i libucrtd:_fenvutils.obj
 0001:00037700       ??I@YA?AW4__acrt_fenv_machine_sse_status@@W40@0@Z 0000000140038700 f i libucrtd:_fenvutils.obj
 0001:00037700       ??I@YA?AW4__acrt_fenv_abstract_control@@W40@0@Z 0000000140038700 f i libucrtd:_fenvutils.obj
 0001:00037700       ??I@YA?AW4__acrt_fenv_abstract_status@@W40@0@Z 0000000140038700 f i libucrtd:_fenvutils.obj
 0001:00037720       ??I@YA?AW4__acrt_fenv_machine_sse_control@@W40@0@Z 0000000140038720 f i libucrtd:_fenvutils.obj
 0001:00037740       ??U@YA?AW4__acrt_fenv_abstract_control@@W40@0@Z 0000000140038740 f i libucrtd:_fenvutils.obj
 0001:00037740       ??U@YA?AW4__acrt_fenv_abstract_status@@W40@0@Z 0000000140038740 f i libucrtd:_fenvutils.obj
 0001:00037760       ??U@YA?AW4__acrt_fenv_machine_sse_control@@W40@0@Z 0000000140038760 f i libucrtd:_fenvutils.obj
 0001:00037780       ??_5@YAAEAW4__acrt_fenv_machine_sse_status@@AEAW40@W40@@Z 0000000140038780 f i libucrtd:_fenvutils.obj
 0001:00037780       ??_5@YAAEAW4__acrt_fenv_abstract_status@@AEAW40@W40@@Z 0000000140038780 f i libucrtd:_fenvutils.obj
 0001:00037780       ??_5@YAAEAW4__acrt_fenv_abstract_control@@AEAW40@W40@@Z 0000000140038780 f i libucrtd:_fenvutils.obj
 0001:000377b0       ??_5@YAAEAW4__acrt_fenv_machine_sse_control@@AEAW40@W40@@Z 00000001400387b0 f i libucrtd:_fenvutils.obj
 0001:000377e0       ?__acrt_fenv_shift_abstract_sse_control@@YA?AW4__acrt_fenv_abstract_control@@W41@@Z 00000001400387e0 f i libucrtd:_fenvutils.obj
 0001:00037830       ?__acrt_fenv_shift_abstract_sse_status@@YA?AW4__acrt_fenv_abstract_status@@W41@@Z 0000000140038830 f i libucrtd:_fenvutils.obj
 0001:00037860       ?__acrt_fenv_unshift_abstract_sse_control@@YA?AW4__acrt_fenv_abstract_control@@W41@@Z 0000000140038860 f i libucrtd:_fenvutils.obj
 0001:000378b0       ?__acrt_fenv_unshift_abstract_sse_status@@YA?AW4__acrt_fenv_abstract_status@@W41@@Z 00000001400388b0 f i libucrtd:_fenvutils.obj
 0001:00037b80       __acrt_fenv_get_common_round_control 0000000140038b80 f   libucrtd:_fenvutils.obj
 0001:00037ba0       __acrt_fenv_get_control    0000000140038ba0 f   libucrtd:_fenvutils.obj
 0001:00037bd0       __acrt_fenv_get_status     0000000140038bd0 f   libucrtd:_fenvutils.obj
 0001:00037c00       __acrt_fenv_set_control    0000000140038c00 f   libucrtd:_fenvutils.obj
 0001:00037c20       __acrt_fenv_set_status     0000000140038c20 f   libucrtd:_fenvutils.obj
 0001:00037db0       _lseeki64_nolock           0000000140038db0 f   libucrtd:lseek.obj
 0001:00037de0       _fclose_nolock             0000000140038de0 f   libucrtd:fclose.obj
 0001:00037f70       fclose                     0000000140038f70 f   libucrtd:fclose.obj
 0001:000380b0       ?__wcsrtombs_utf8@__crt_mbstring@@YA_KPEADPEAPEB_W_KPEAU_Mbstatet@@@Z 00000001400390b0 f   libucrtd:wcrtomb.obj
 0001:00038318       _putwch_nolock             0000000140039318 f   libucrtd:putwch.obj
 0001:00038360       __acrt_initialize_fma3     0000000140039360 f   libucrtd:fma3_available.obj
 0001:00038410       _log10_special             0000000140039410 f   libucrtd:log_special.obj
 0001:00038750       _handle_error              0000000140039750 f   libucrtd:libm_error.obj
 0001:000388e0       _handle_nan                00000001400398e0 f   libucrtd:libm_error.obj
 0001:00038b20       _clearfp                   0000000140039b20 f   libucrtd:ieee.obj
 0001:00038b40       _control87                 0000000140039b40 f   libucrtd:ieee.obj
 0001:00039000       _close                     000000014003a000 f   libucrtd:close.obj
 0001:000391f0       _close_nolock              000000014003a1f0 f   libucrtd:close.obj
 0001:00039260       ?__acrt_stdio_free_stream@@YAXV__crt_stdio_stream@@@Z 000000014003a260 f   libucrtd:stream.obj
 0001:00039300       ?deallocate@__crt_stdio_stream@@QEAAXXZ 000000014003a300 f i libucrtd:stream.obj
 0001:00039320       ?__c16rtomb_utf8@__crt_mbstring@@YA_KPEAD_SPEAU_Mbstatet@@@Z 000000014003a320 f   libucrtd:c16rtomb.obj
 0001:00039534       __dcrt_lowio_ensure_console_output_initialized 000000014003a534 f   libucrtd:initcon.obj
 0001:00039588       __dcrt_terminate_console_output 000000014003a588 f   libucrtd:initcon.obj
 0001:000395a4       __dcrt_write_console       000000014003a5a4 f   libucrtd:initcon.obj
 0001:00039670       _raise_exc                 000000014003a670 f   libucrtd:fpexcept.obj
 0001:000396d0       _raise_exc_ex              000000014003a6d0 f   libucrtd:fpexcept.obj
 0001:00039d50       _set_errno_from_matherr    000000014003ad50 f   libucrtd:fpexcept.obj
 0001:00039da0       _clrfp                     000000014003ada0 f   libucrtd:fpctrl.obj
 0001:00039dd0       _ctrlfp                    000000014003add0 f   libucrtd:fpctrl.obj
 0001:00039e80       _set_statfp                000000014003ae80 f   libucrtd:fpctrl.obj
 0001:00039ec0       _statfp                    000000014003aec0 f   libucrtd:fpctrl.obj
 0001:00039f00       _get_fpsr                  000000014003af00 f   libucrtd:fpsr.obj
 0001:00039f10       _set_fpsr                  000000014003af10 f   libucrtd:fpsr.obj
 0001:00039f1a       _fclrf                     000000014003af1a f   libucrtd:fpsr.obj
 0001:00039f2e       _frnd                      000000014003af2e f   libucrtd:fpsr.obj
 0001:00039f50       _FindPESection             000000014003af50 f   LIBCMTD:pesect.obj
 0001:0003a000       _IsNonwritableInCurrentImage 000000014003b000 f   LIBCMTD:pesect.obj
 0001:0003a090       _ValidateImageBase         000000014003b090 f   LIBCMTD:pesect.obj
 0001:0003a110       ??1type_info@@UEAA@XZ      000000014003b110 f   LIBCMTD:std_type_info_static.obj
 0001:0003a130       ??_Etype_info@@UEAAPEAXI@Z 000000014003b130 f i LIBCMTD:std_type_info_static.obj
 0001:0003a130       ??_Gtype_info@@UEAAPEAXI@Z 000000014003b130 f i LIBCMTD:std_type_info_static.obj
 0001:0003a170       ??3@YAXPEAX_K@Z            000000014003b170 f   LIBCMTD:delete_scalar_size.obj
 0001:0003a190       __GSHandlerCheck_SEH       000000014003b190 f   LIBCMTD:gshandlerseh.obj
 0001:0003a250       __GSHandlerCheck_EH        000000014003b250 f   LIBCMTD:gshandlereh.obj
 0001:0003a300       ??3@YAXPEAX@Z              000000014003b300 f   LIBCMTD:delete_scalar.obj
 0001:0003a330       memcmp                     000000014003b330 f   libvcruntimed:memcmp.obj
 0001:0003a400       strrchr                    000000014003b400 f   libvcruntimed:strrchr.obj
 0001:0003a830       _guard_dispatch_icall_nop  000000014003b830 f   LIBCMTD:guard_dispatch.obj
 0001:0003a850       _guard_xfg_dispatch_icall_nop 000000014003b850 f   LIBCMTD:guard_xfg_dispatch.obj
 0002:00000000       __imp_GetDeviceCaps        000000014003c000     gdi32:GDI32.dll
 0002:00000008       __imp_StretchDIBits        000000014003c008     gdi32:GDI32.dll
 0002:00000010       \177GDI32_NULL_THUNK_DATA  000000014003c010     gdi32:GDI32.dll
 0002:00000018       __imp_GetConsoleMode       000000014003c018     kernel32:KERNEL32.dll
 0002:00000020       __imp_GetConsoleOutputCP   000000014003c020     kernel32:KERNEL32.dll
 0002:00000028       __imp_FlushFileBuffers     000000014003c028     kernel32:KERNEL32.dll
 0002:00000030       __imp_SetFilePointerEx     000000014003c030     kernel32:KERNEL32.dll
 0002:00000038       __imp_WriteConsoleW        000000014003c038     kernel32:KERNEL32.dll
 0002:00000040       __imp_HeapQueryInformation 000000014003c040     kernel32:KERNEL32.dll
 0002:00000048       __imp_HeapFree             000000014003c048     kernel32:KERNEL32.dll
 0002:00000050       __imp_GetProcessHeap       000000014003c050     kernel32:KERNEL32.dll
 0002:00000058       __imp_LCMapStringW         000000014003c058     kernel32:KERNEL32.dll
 0002:00000060       __imp_CreateFileW          000000014003c060     kernel32:KERNEL32.dll
 0002:00000068       __imp_HeapReAlloc          000000014003c068     kernel32:KERNEL32.dll
 0002:00000070       __imp_SetLastError         000000014003c070     kernel32:KERNEL32.dll
 0002:00000078       __imp_CompareFileTime      000000014003c078     kernel32:KERNEL32.dll
 0002:00000080       __imp_CreateFileA          000000014003c080     kernel32:KERNEL32.dll
 0002:00000088       __imp_GetFileAttributesExA 000000014003c088     kernel32:KERNEL32.dll
 0002:00000090       __imp_GetFileSizeEx        000000014003c090     kernel32:KERNEL32.dll
 0002:00000098       __imp_ReadFile             000000014003c098     kernel32:KERNEL32.dll
 0002:000000a0       __imp_WriteFile            000000014003c0a0     kernel32:KERNEL32.dll
 0002:000000a8       __imp_OutputDebugStringA   000000014003c0a8     kernel32:KERNEL32.dll
 0002:000000b0       __imp_CloseHandle          000000014003c0b0     kernel32:KERNEL32.dll
 0002:000000b8       __imp_QueryPerformanceCounter 000000014003c0b8     kernel32:KERNEL32.dll
 0002:000000c0       __imp_Sleep                000000014003c0c0     kernel32:KERNEL32.dll
 0002:000000c8       __imp_VirtualAlloc         000000014003c0c8     kernel32:KERNEL32.dll
 0002:000000d0       __imp_VirtualFree          000000014003c0d0     kernel32:KERNEL32.dll
 0002:000000d8       __imp_MapViewOfFile        000000014003c0d8     kernel32:KERNEL32.dll
 0002:000000e0       __imp_FreeLibrary          000000014003c0e0     kernel32:KERNEL32.dll
 0002:000000e8       __imp_GetModuleFileNameA   000000014003c0e8     kernel32:KERNEL32.dll
 0002:000000f0       __imp_GetProcAddress       000000014003c0f0     kernel32:KERNEL32.dll
 0002:000000f8       __imp_LoadLibraryA         000000014003c0f8     kernel32:KERNEL32.dll
 0002:00000100       __imp_CreateFileMappingA   000000014003c100     kernel32:KERNEL32.dll
 0002:00000108       __imp_CopyFileA            000000014003c108     kernel32:KERNEL32.dll
 0002:00000110       __imp_RtlCaptureContext    000000014003c110     kernel32:KERNEL32.dll
 0002:00000118       __imp_RtlLookupFunctionEntry 000000014003c118     kernel32:KERNEL32.dll
 0002:00000120       __imp_RtlVirtualUnwind     000000014003c120     kernel32:KERNEL32.dll
 0002:00000128       __imp_UnhandledExceptionFilter 000000014003c128     kernel32:KERNEL32.dll
 0002:00000130       __imp_SetUnhandledExceptionFilter 000000014003c130     kernel32:KERNEL32.dll
 0002:00000138       __imp_GetCurrentProcess    000000014003c138     kernel32:KERNEL32.dll
 0002:00000140       __imp_TerminateProcess     000000014003c140     kernel32:KERNEL32.dll
 0002:00000148       __imp_IsProcessorFeaturePresent 000000014003c148     kernel32:KERNEL32.dll
 0002:00000150       __imp_GetCurrentProcessId  000000014003c150     kernel32:KERNEL32.dll
 0002:00000158       __imp_GetCurrentThreadId   000000014003c158     kernel32:KERNEL32.dll
 0002:00000160       __imp_GetSystemTimeAsFileTime 000000014003c160     kernel32:KERNEL32.dll
 0002:00000168       __imp_InitializeSListHead  000000014003c168     kernel32:KERNEL32.dll
 0002:00000170       __imp_IsDebuggerPresent    000000014003c170     kernel32:KERNEL32.dll
 0002:00000178       __imp_GetStartupInfoW      000000014003c178     kernel32:KERNEL32.dll
 0002:00000180       __imp_GetModuleHandleW     000000014003c180     kernel32:KERNEL32.dll
 0002:00000188       __imp_RtlUnwindEx          000000014003c188     kernel32:KERNEL32.dll
 0002:00000190       __imp_GetLastError         000000014003c190     kernel32:KERNEL32.dll
 0002:00000198       __imp_EnterCriticalSection 000000014003c198     kernel32:KERNEL32.dll
 0002:000001a0       __imp_LeaveCriticalSection 000000014003c1a0     kernel32:KERNEL32.dll
 0002:000001a8       __imp_DeleteCriticalSection 000000014003c1a8     kernel32:KERNEL32.dll
 0002:000001b0       __imp_InitializeCriticalSectionAndSpinCount 000000014003c1b0     kernel32:KERNEL32.dll
 0002:000001b8       __imp_TlsAlloc             000000014003c1b8     kernel32:KERNEL32.dll
 0002:000001c0       __imp_TlsGetValue          000000014003c1c0     kernel32:KERNEL32.dll
 0002:000001c8       __imp_TlsSetValue          000000014003c1c8     kernel32:KERNEL32.dll
 0002:000001d0       __imp_TlsFree              000000014003c1d0     kernel32:KERNEL32.dll
 0002:000001d8       __imp_LoadLibraryExW       000000014003c1d8     kernel32:KERNEL32.dll
 0002:000001e0       __imp_EncodePointer        000000014003c1e0     kernel32:KERNEL32.dll
 0002:000001e8       __imp_RaiseException       000000014003c1e8     kernel32:KERNEL32.dll
 0002:000001f0       __imp_RtlPcToFileHeader    000000014003c1f0     kernel32:KERNEL32.dll
 0002:000001f8       __imp_GetStdHandle         000000014003c1f8     kernel32:KERNEL32.dll
 0002:00000200       __imp_GetModuleFileNameW   000000014003c200     kernel32:KERNEL32.dll
 0002:00000208       __imp_ExitProcess          000000014003c208     kernel32:KERNEL32.dll
 0002:00000210       __imp_GetModuleHandleExW   000000014003c210     kernel32:KERNEL32.dll
 0002:00000218       __imp_HeapAlloc            000000014003c218     kernel32:KERNEL32.dll
 0002:00000220       __imp_HeapSize             000000014003c220     kernel32:KERNEL32.dll
 0002:00000228       __imp_HeapValidate         000000014003c228     kernel32:KERNEL32.dll
 0002:00000230       __imp_GetSystemInfo        000000014003c230     kernel32:KERNEL32.dll
 0002:00000238       __imp_OutputDebugStringW   000000014003c238     kernel32:KERNEL32.dll
 0002:00000240       __imp_FindClose            000000014003c240     kernel32:KERNEL32.dll
 0002:00000248       __imp_FindFirstFileExW     000000014003c248     kernel32:KERNEL32.dll
 0002:00000250       __imp_FindNextFileW        000000014003c250     kernel32:KERNEL32.dll
 0002:00000258       __imp_IsValidCodePage      000000014003c258     kernel32:KERNEL32.dll
 0002:00000260       __imp_GetACP               000000014003c260     kernel32:KERNEL32.dll
 0002:00000268       __imp_GetOEMCP             000000014003c268     kernel32:KERNEL32.dll
 0002:00000270       __imp_GetCPInfo            000000014003c270     kernel32:KERNEL32.dll
 0002:00000278       __imp_GetCommandLineA      000000014003c278     kernel32:KERNEL32.dll
 0002:00000280       __imp_GetCommandLineW      000000014003c280     kernel32:KERNEL32.dll
 0002:00000288       __imp_MultiByteToWideChar  000000014003c288     kernel32:KERNEL32.dll
 0002:00000290       __imp_WideCharToMultiByte  000000014003c290     kernel32:KERNEL32.dll
 0002:00000298       __imp_GetEnvironmentStringsW 000000014003c298     kernel32:KERNEL32.dll
 0002:000002a0       __imp_FreeEnvironmentStringsW 000000014003c2a0     kernel32:KERNEL32.dll
 0002:000002a8       __imp_SetStdHandle         000000014003c2a8     kernel32:KERNEL32.dll
 0002:000002b0       __imp_GetFileType          000000014003c2b0     kernel32:KERNEL32.dll
 0002:000002b8       __imp_GetStringTypeW       000000014003c2b8     kernel32:KERNEL32.dll
 0002:000002c0       \177KERNEL32_NULL_THUNK_DATA 000000014003c2c0     kernel32:KERNEL32.dll
 0002:000002c8       __imp_TranslateMessage     000000014003c2c8     user32:USER32.dll
 0002:000002d0       __imp_DispatchMessageA     000000014003c2d0     user32:USER32.dll
 0002:000002d8       __imp_PeekMessageA         000000014003c2d8     user32:USER32.dll
 0002:000002e0       __imp_ScreenToClient       000000014003c2e0     user32:USER32.dll
 0002:000002e8       __imp_GetCursorPos         000000014003c2e8     user32:USER32.dll
 0002:000002f0       __imp_GetClientRect        000000014003c2f0     user32:USER32.dll
 0002:000002f8       __imp_EndPaint             000000014003c2f8     user32:USER32.dll
 0002:00000300       __imp_BeginPaint           000000014003c300     user32:USER32.dll
 0002:00000308       __imp_ReleaseDC            000000014003c308     user32:USER32.dll
 0002:00000310       __imp_GetDC                000000014003c310     user32:USER32.dll
 0002:00000318       __imp_GetKeyState          000000014003c318     user32:USER32.dll
 0002:00000320       __imp_CreateWindowExA      000000014003c320     user32:USER32.dll
 0002:00000328       __imp_RegisterClassA       000000014003c328     user32:USER32.dll
 0002:00000330       __imp_DefWindowProcA       000000014003c330     user32:USER32.dll
 0002:00000338       __imp_wsprintfA            000000014003c338     user32:USER32.dll
 0002:00000340       \177USER32_NULL_THUNK_DATA 000000014003c340     user32:USER32.dll
 0002:00000348       __imp_timeBeginPeriod      000000014003c348     winmm:WINMM.dll
 0002:00000350       \177WINMM_NULL_THUNK_DATA  000000014003c350     winmm:WINMM.dll
 0002:00000358       __guard_check_icall_fptr   000000014003c358     LIBCMTD:guard_support.obj
 0002:00000360       __guard_xfg_check_icall_fptr 000000014003c360     LIBCMTD:guard_support.obj
 0002:00000368       __guard_dispatch_icall_fptr 000000014003c368     LIBCMTD:guard_support.obj
 0002:00000370       __guard_xfg_dispatch_icall_fptr 000000014003c370     LIBCMTD:guard_support.obj
 0002:00000378       __guard_xfg_table_dispatch_icall_fptr 000000014003c378     LIBCMTD:guard_support.obj
 0002:00000380       __xc_a                     000000014003c380     LIBCMTD:initializers.obj
 0002:00000390       __xc_z                     000000014003c390     LIBCMTD:initializers.obj
 0002:00000398       __xi_a                     000000014003c398     LIBCMTD:initializers.obj
 0002:000003b0       __acrt_multibyte_initializer 000000014003c3b0     libucrtd:multibyte_initializer.obj
 0002:000003b8       __acrt_fmode_initializer   000000014003c3b8     libucrtd:fmode_initializer.obj
 0002:000003c0       __acrt_stdio_initializer   000000014003c3c0     libucrtd:stdio_initializer.obj
 0002:000003c8       __acrt_tran_fma3_initializer 000000014003c3c8     libucrtd:fma3_initializer.obj
 0002:000003d0       __xi_z                     000000014003c3d0     LIBCMTD:initializers.obj
 0002:000003d8       __xp_a                     000000014003c3d8     LIBCMTD:initializers.obj
 0002:000003e0       __acrt_locale_terminator   000000014003c3e0     libucrtd:locale_initializer.obj
 0002:000003e8       __dcrt_console_output_terminator 000000014003c3e8     libucrtd:console_output_initializer.obj
 0002:000003f0       __acrt_stdio_terminator    000000014003c3f0     libucrtd:stdio_initializer.obj
 0002:000003f8       __xp_z                     000000014003c3f8     LIBCMTD:initializers.obj
 0002:00000400       __xt_a                     000000014003c400     LIBCMTD:initializers.obj
 0002:00000408       __xt_z                     000000014003c408     LIBCMTD:initializers.obj
 0002:000005bc       __real@00000000            000000014003c5bc     win32_made.obj
 0002:000005c0       __real@3f000000            000000014003c5c0     win32_made.obj
 0002:000005c4       __real@3f800000            000000014003c5c4     win32_made.obj
 0002:000005c8       __real@40000000            000000014003c5c8     win32_made.obj
 0002:000005cc       __real@40400000            000000014003c5cc     win32_made.obj
 0002:000005d0       __real@447a0000            000000014003c5d0     win32_made.obj
 0002:000005d4       __real@47000000            000000014003c5d4     win32_made.obj
 0002:000005d8       __real@bf800000            000000014003c5d8     win32_made.obj
 0002:000005e0       __xmm@80000000800000008000000080000000 000000014003c5e0     win32_made.obj
 0002:00000600       _pDestructExceptionObject  000000014003c600     libvcruntimed:ehhelpers.obj
 0002:00000610       ??_C@_0EO@IMACLHHO@d?3?2agent?2_work?24?2s?2src?2vctools?2@ 000000014003c610     libvcruntimed:per_thread_data.obj
 0002:00000d60       ??_C@_08EHJDFFNH@__based?$CI@ 000000014003cd60     libvcruntimed:undname.obj
 0002:00000d70       ??_C@_07KOLFKCDI@__cdecl@  000000014003cd70     libvcruntimed:undname.obj
 0002:00000d78       ??_C@_08GHMPAG@__pascal@   000000014003cd78     libvcruntimed:undname.obj
 0002:00000d88       ??_C@_09IFJBGAPI@__stdcall@ 000000014003cd88     libvcruntimed:undname.obj
 0002:00000d98       ??_C@_0L@NPHFGOKO@__thiscall@ 000000014003cd98     libvcruntimed:undname.obj
 0002:00000da8       ??_C@_0L@JMKHOMEK@__fastcall@ 000000014003cda8     libvcruntimed:undname.obj
 0002:00000db8       ??_C@_0N@BCKKPABJ@__vectorcall@ 000000014003cdb8     libvcruntimed:undname.obj
 0002:00000dc8       ??_C@_09HIJEGCPM@__clrcall@ 000000014003cdc8     libvcruntimed:undname.obj
 0002:00000dd4       ??_C@_06GHPCKEAG@__eabi@   000000014003cdd4     libvcruntimed:undname.obj
 0002:00000de0       ??_C@_09IOPIDJLG@__swift_1@ 000000014003cde0     libvcruntimed:undname.obj
 0002:00000df0       ??_C@_09KFNFGKHF@__swift_2@ 000000014003cdf0     libvcruntimed:undname.obj
 0002:00000e00       ??_C@_07JOMMBBKO@__ptr64@  000000014003ce00     libvcruntimed:undname.obj
 0002:00000e08       ??_C@_0L@PILCLIHE@__restrict@ 000000014003ce08     libvcruntimed:undname.obj
 0002:00000e18       ??_C@_0M@GFIIJFMG@__unaligned@ 000000014003ce18     libvcruntimed:undname.obj
 0002:00000e28       ??_C@_09DHDLOLLB@restrict?$CI@ 000000014003ce28     libvcruntimed:undname.obj
 0002:00000e32       ??_C@_00CNPNBAHC@@         000000014003ce32     libvcruntimed:undname.obj
 0002:00000e34       ??_C@_04NIHEBCM@?5new@     000000014003ce34     libvcruntimed:undname.obj
 0002:00000e40       ??_C@_07FPCDHGMM@?5delete@ 000000014003ce40     libvcruntimed:undname.obj
 0002:00000e48       ??_C@_01NEMOKFLO@?$DN@     000000014003ce48     libvcruntimed:undname.obj
 0002:00000e4c       ??_C@_02GPIOPFAK@?$DO?$DO@ 000000014003ce4c     libvcruntimed:undname.obj
 0002:00000e50       ??_C@_02FODMEDOG@?$DM?$DM@ 000000014003ce50     libvcruntimed:undname.obj
 0002:00000e54       ??_C@_01DCLJPIOD@?$CB@     000000014003ce54     libvcruntimed:undname.obj
 0002:00000e58       ??_C@_02EGOFBIJA@?$DN?$DN@ 000000014003ce58     libvcruntimed:undname.obj
 0002:00000e5c       ??_C@_02FDNJECIE@?$CB?$DN@ 000000014003ce5c     libvcruntimed:undname.obj
 0002:00000e60       ??_C@_02GPECMEKF@?$FL?$FN@ 000000014003ce60     libvcruntimed:undname.obj
 0002:00000e68       ??_C@_08LHJFAFGD@operator@ 000000014003ce68     libvcruntimed:undname.obj
 0002:00000e74       ??_C@_02HBOOOICD@?9?$DO@   000000014003ce74     libvcruntimed:undname.obj
 0002:00000e78       ??_C@_01NBENCBCI@?$CK@     000000014003ce78     libvcruntimed:undname.obj
 0002:00000e7c       ??_C@_02ECNGHCIF@?$CL?$CL@ 000000014003ce7c     libvcruntimed:undname.obj
 0002:00000e80       ??_C@_02BAABKJLB@?9?9@     000000014003ce80     libvcruntimed:undname.obj
 0002:00000e84       ??_C@_01JOAMLHOP@?9@       000000014003ce84     libvcruntimed:undname.obj
 0002:00000e88       ??_C@_01MIFGBAGJ@?$CL@     000000014003ce88     libvcruntimed:undname.obj
 0002:00000e8c       ??_C@_01HNPIGOCE@?$CG@     000000014003ce8c     libvcruntimed:undname.obj
 0002:00000e90       ??_C@_03MNHNFDLC@?9?$DO?$CK@ 000000014003ce90     libvcruntimed:undname.obj
 0002:00000e94       ??_C@_01KMDKNFGN@?1@       000000014003ce94     libvcruntimed:undname.obj
 0002:00000e98       ??_C@_01FGNFDNOH@?$CF@     000000014003ce98     libvcruntimed:undname.obj
 0002:00000e9c       ??_C@_01MNNFJEPP@?$DM@     000000014003ce9c     libvcruntimed:undname.obj
 0002:00000ea0       ??_C@_02EHCHHCKH@?$DM?$DN@ 000000014003cea0     libvcruntimed:undname.obj
 0002:00000ea4       ??_C@_01PPODPGHN@?$DO@     000000014003cea4     libvcruntimed:undname.obj
 0002:00000ea8       ??_C@_02EEKDKGMJ@?$DO?$DN@ 000000014003cea8     libvcruntimed:undname.obj
 0002:00000eac       ??_C@_01IHBHIGKO@?0@       000000014003ceac     libvcruntimed:undname.obj
 0002:00000eb0       ??_C@_02HCKGKOFO@?$CI?$CJ@ 000000014003ceb0     libvcruntimed:undname.obj
 0002:00000eb4       ??_C@_01PJKLJHI@?$HO@      000000014003ceb4     libvcruntimed:undname.obj
 0002:00000eb8       ??_C@_01JKBOJNNK@?$FO@     000000014003ceb8     libvcruntimed:undname.obj
 0002:00000ebc       ??_C@_01DNKMNLPK@?$HM@     000000014003cebc     libvcruntimed:undname.obj
 0002:00000ec0       ??_C@_02PPKAJPJL@?$CG?$CG@ 000000014003cec0     libvcruntimed:undname.obj
 0002:00000ec4       ??_C@_02NONPIBCD@?$HM?$HM@ 000000014003cec4     libvcruntimed:undname.obj
 0002:00000ec8       ??_C@_02FPIMKNGF@?$CK?$DN@ 000000014003cec8     libvcruntimed:undname.obj
 0002:00000ecc       ??_C@_02FOEOMHFC@?$CL?$DN@ 000000014003cecc     libvcruntimed:undname.obj
 0002:00000ed0       ??_C@_02FKMDLLOA@?9?$DN@   000000014003ced0     libvcruntimed:undname.obj
 0002:00000ed4       ??_C@_02FJEHGPIO@?1?$DN@   000000014003ced4     libvcruntimed:undname.obj
 0002:00000ed8       ??_C@_02FENAOKFI@?$CF?$DN@ 000000014003ced8     libvcruntimed:undname.obj
 0002:00000edc       ??_C@_03IKFCCPFF@?$DO?$DO?$DN@ 000000014003cedc     libvcruntimed:undname.obj
 0002:00000ee0       ??_C@_03CDNPDDLA@?$DM?$DM?$DN@ 000000014003cee0     libvcruntimed:undname.obj
 0002:00000ee4       ??_C@_02FGJGFEAB@?$CG?$DN@ 000000014003cee4     libvcruntimed:undname.obj
 0002:00000ee8       ??_C@_02DHLNPPGH@?$HM?$DN@ 000000014003cee8     libvcruntimed:undname.obj
 0002:00000eec       ??_C@_02MHEGNOJ@?$FO?$DN@  000000014003ceec     libvcruntimed:undname.obj
 0002:00000ef0       ??_C@_09IFPLHPGF@?$GAvftable?8@ 000000014003cef0     libvcruntimed:undname.obj
 0002:00000f00       ??_C@_09BLBHBJP@?$GAvbtable?8@ 000000014003cf00     libvcruntimed:undname.obj
 0002:00000f10       ??_C@_07FEEIOKP@?$GAvcall?8@ 000000014003cf10     libvcruntimed:undname.obj
 0002:00000f18       ??_C@_08LLFFHHDJ@?$GAtypeof?8@ 000000014003cf18     libvcruntimed:undname.obj
 0002:00000f28       ??_C@_0BF@KDPPACIK@?$GAlocal?5static?5guard?8@ 000000014003cf28     libvcruntimed:undname.obj
 0002:00000f40       ??_C@_08OBABFOLI@?$GAstring?8@ 000000014003cf40     libvcruntimed:undname.obj
 0002:00000f50       ??_C@_0BD@JDLKDPAB@?$GAvbase?5destructor?8@ 000000014003cf50     libvcruntimed:undname.obj
 0002:00000f68       ??_C@_0BN@DEGPLNFK@?$GAvector?5deleting?5destructor?8@ 000000014003cf68     libvcruntimed:undname.obj
 0002:00000f88       ??_C@_0BO@OBMKPJIG@?$GAdefault?5constructor?5closure?8@ 000000014003cf88     libvcruntimed:undname.obj
 0002:00000fa8       ??_C@_0BN@IMDCHIKM@?$GAscalar?5deleting?5destructor?8@ 000000014003cfa8     libvcruntimed:undname.obj
 0002:00000fc8       ??_C@_0BO@PFGOCPJJ@?$GAvector?5constructor?5iterator?8@ 000000014003cfc8     libvcruntimed:undname.obj
 0002:00000fe8       ??_C@_0BN@LFPFMEDL@?$GAvector?5destructor?5iterator?8@ 000000014003cfe8     libvcruntimed:undname.obj
 0002:00001008       ??_C@_0CE@IKBNEHA@?$GAvector?5vbase?5constructor?5itera@ 000000014003d008     libvcruntimed:undname.obj
 0002:00001030       ??_C@_0BL@NILFHHPC@?$GAvirtual?5displacement?5map?8@ 000000014003d030     libvcruntimed:undname.obj
 0002:00001050       ??_C@_0CB@JONCMFFK@?$GAeh?5vector?5constructor?5iterator@ 000000014003d050     libvcruntimed:undname.obj
 0002:00001078       ??_C@_0CA@GCEOPDGL@?$GAeh?5vector?5destructor?5iterator?8@ 000000014003d078     libvcruntimed:undname.obj
 0002:00001098       ??_C@_0CH@OOJPLCPH@?$GAeh?5vector?5vbase?5constructor?5it@ 000000014003d098     libvcruntimed:undname.obj
 0002:000010c0       ??_C@_0BL@LLKPOHJI@?$GAcopy?5constructor?5closure?8@ 000000014003d0c0     libvcruntimed:undname.obj
 0002:000010e0       ??_C@_0BA@KBCDOMBN@?$GAudt?5returning?8@ 000000014003d0e0     libvcruntimed:undname.obj
 0002:000010f0       ??_C@_03KLGMFNMG@?$GAEH@   000000014003d0f0     libvcruntimed:undname.obj
 0002:000010f4       ??_C@_05KHLCHHI@?$GARTTI@  000000014003d0f4     libvcruntimed:undname.obj
 0002:00001100       ??_C@_0BA@KKLDJDLB@?$GAlocal?5vftable?8@ 000000014003d100     libvcruntimed:undname.obj
 0002:00001110       ??_C@_0CE@IIHCMGGL@?$GAlocal?5vftable?5constructor?5clos@ 000000014003d110     libvcruntimed:undname.obj
 0002:00001134       ??_C@_06FHBGPFGH@?5new?$FL?$FN@ 000000014003d134     libvcruntimed:undname.obj
 0002:00001140       ??_C@_09LBNFPBCA@?5delete?$FL?$FN@ 000000014003d140     libvcruntimed:undname.obj
 0002:00001150       ??_C@_0P@HJKNJFNN@?$GAomni?5callsig?8@ 000000014003d150     libvcruntimed:undname.obj
 0002:00001160       ??_C@_0BL@CNOONJFP@?$GAplacement?5delete?5closure?8@ 000000014003d160     libvcruntimed:undname.obj
 0002:00001180       ??_C@_0BN@CKNJLHMB@?$GAplacement?5delete?$FL?$FN?5closure?8@ 000000014003d180     libvcruntimed:undname.obj
 0002:000011a0       ??_C@_0CG@CFDHKGGD@?$GAmanaged?5vector?5constructor?5ite@ 000000014003d1a0     libvcruntimed:undname.obj
 0002:000011c8       ??_C@_0CF@IMGKMJNO@?$GAmanaged?5vector?5destructor?5iter@ 000000014003d1c8     libvcruntimed:undname.obj
 0002:000011f0       ??_C@_0CG@HLDDJMAG@?$GAeh?5vector?5copy?5constructor?5ite@ 000000014003d1f0     libvcruntimed:undname.obj
 0002:00001218       ??_C@_0CM@FCBBDIGB@?$GAeh?5vector?5vbase?5copy?5construct@ 000000014003d218     libvcruntimed:undname.obj
 0002:00001248       ??_C@_0BL@CLIPGLGB@?$GAdynamic?5initializer?5for?5?8@ 000000014003d248     libvcruntimed:undname.obj
 0002:00001268       ??_C@_0CB@PDBIFEP@?$GAdynamic?5atexit?5destructor?5for?5@ 000000014003d268     libvcruntimed:undname.obj
 0002:00001290       ??_C@_0CD@CGAJBKEJ@?$GAvector?5copy?5constructor?5iterat@ 000000014003d290     libvcruntimed:undname.obj
 0002:000012b8       ??_C@_0CJ@GJELGAMM@?$GAvector?5vbase?5copy?5constructor?5@ 000000014003d2b8     libvcruntimed:undname.obj
 0002:000012e8       ??_C@_0CL@FGIJHLCE@?$GAmanaged?5vector?5copy?5constructo@ 000000014003d2e8     libvcruntimed:undname.obj
 0002:00001318       ??_C@_0BM@PMGGMLDN@?$GAlocal?5static?5thread?5guard?8@ 000000014003d318     libvcruntimed:undname.obj
 0002:00001338       ??_C@_0N@BDNMDMOL@operator?5?$CC?$CC?5@ 000000014003d338     libvcruntimed:undname.obj
 0002:00001348       ??_C@_0BC@GGEBGALA@operator?5co_await@ 000000014003d348     libvcruntimed:undname.obj
 0002:00001360       ??_C@_0M@GAAIMMOH@operator?$DM?$DN?$DO@ 000000014003d360     libvcruntimed:undname.obj
 0002:00001370       ??_C@_0BC@DAFEJGAK@?5Type?5Descriptor?8@ 000000014003d370     libvcruntimed:undname.obj
 0002:00001388       ??_C@_0BM@LDKODKLH@?5Base?5Class?5Descriptor?5at?5?$CI@ 000000014003d388     libvcruntimed:undname.obj
 0002:000013a8       ??_C@_0BD@LGICGFMM@?5Base?5Class?5Array?8@ 000000014003d3a8     libvcruntimed:undname.obj
 0002:000013c0       ??_C@_0BN@MECKDCOJ@?5Class?5Hierarchy?5Descriptor?8@ 000000014003d3c0     libvcruntimed:undname.obj
 0002:000013e0       ??_C@_0BK@CFCOFLF@?5Complete?5Object?5Locator?8@ 000000014003d3e0     libvcruntimed:undname.obj
 0002:00001400       ??_C@_0BG@JNJLAMPM@?$GAanonymous?5namespace?8@ 000000014003d400     libvcruntimed:undname.obj
 0002:00001418       ??_C@_02DKCKIIND@?$CFs@    000000014003d418     libvcruntimed:undname.obj
 0002:00001438       ??_C@_1DM@KHCHBNEB@?$AAa?$AAp?$AAi?$AA?9?$AAm?$AAs?$AA?9?$AAw?$AAi?$AAn?$AA?9?$AAc?$AAo?$AAr?$AAe@ 000000014003d438     libvcruntimed:winapi_downlevel.obj
 0002:00001478       ??_C@_1DK@LPPGFMPP@?$AAa?$AAp?$AAi?$AA?9?$AAm?$AAs?$AA?9?$AAw?$AAi?$AAn?$AA?9?$AAc?$AAo?$AAr?$AAe@ 000000014003d478     libvcruntimed:winapi_downlevel.obj
 0002:000014b8       ??_C@_1BC@GDMECMAK@?$AAk?$AAe?$AAr?$AAn?$AAe?$AAl?$AA3?$AA2@ 000000014003d4b8     libvcruntimed:winapi_downlevel.obj
 0002:000014d0       ??_C@_17CNPHIMPH@?$AA?$CF?$AAl?$AAs@ 000000014003d4d0     libvcruntimed:winapi_downlevel.obj
 0002:000014d8       ??_C@_1BA@PFFKHIOG@?$AAa?$AAp?$AAi?$AA?9?$AAm?$AAs?$AA?9@ 000000014003d4d8     libvcruntimed:winapi_downlevel.obj
 0002:000014f0       ??_C@_1EM@LBIFGLGH@?$AAc?$AAa?$AAc?$AAh?$AAe?$AAd?$AA_?$AAh?$AAa?$AAn?$AAd?$AAl?$AAe?$AA?5?$AA?$DN@ 000000014003d4f0     libvcruntimed:winapi_downlevel.obj
 0002:00001540       ??_C@_1JO@IKCMCKBI@?$AAd?$AA?3?$AA?2?$AAa?$AAg?$AAe?$AAn?$AAt?$AA?2?$AA_?$AAw?$AAo?$AAr?$AAk?$AA?2@ 000000014003d540     libvcruntimed:winapi_downlevel.obj
 0002:000015e0       ??_C@_1DI@MAHEDLDB@?$AAc?$AAa?$AAc?$AAh?$AAe?$AAd?$AA_?$AAh?$AAa?$AAn?$AAd?$AAl?$AAe?$AA?5?$AA?$DN@ 000000014003d5e0     libvcruntimed:winapi_downlevel.obj
 0002:00001620       ??_C@_1FC@IBNCGNKL@?$AAc?$AAa?$AAc?$AAh?$AAe?$AAd?$AA_?$AAf?$AAp?$AA?5?$AA?$DN?$AA?$DN?$AA?5?$AAi?$AAn@ 000000014003d620     libvcruntimed:winapi_downlevel.obj
 0002:00001678       ??_C@_1CI@GDJBAGLP@?$AAc?$AAa?$AAc?$AAh?$AAe?$AAd?$AA_?$AAf?$AAp?$AA?5?$AA?$DN?$AA?$DN?$AA?5?$AAn?$AAe@ 000000014003d678     libvcruntimed:winapi_downlevel.obj
 0002:000016a8       ??_C@_08KNHFBNJ@FlsAlloc@  000000014003d6a8     libvcruntimed:winapi_downlevel.obj
 0002:000016c0       ??_C@_07PEJMOBNF@FlsFree@  000000014003d6c0     libvcruntimed:winapi_downlevel.obj
 0002:000016d0       ??_C@_0M@GDNOONDI@FlsGetValue@ 000000014003d6d0     libvcruntimed:winapi_downlevel.obj
 0002:000016e8       ??_C@_0M@JCPCPOEF@FlsSetValue@ 000000014003d6e8     libvcruntimed:winapi_downlevel.obj
 0002:00001700       ??_C@_0BM@HCFOFFN@InitializeCriticalSectionEx@ 000000014003d700     libvcruntimed:winapi_downlevel.obj
 0002:000017c0       ??_7exception@std@@6B@     000000014003d7c0     libvcruntimed:frame.obj
 0002:000017d0       ??_C@_0BC@EOODALEL@Unknown?5exception@ 000000014003d7d0     libvcruntimed:frame.obj
 0002:000017f0       ??_7bad_exception@std@@6B@ 000000014003d7f0     libvcruntimed:frame.obj
 0002:00001800       ??_C@_0O@DPKOEFFH@bad?5exception@ 000000014003d800     libvcruntimed:frame.obj
 0002:00001810       ??_C@_1FK@OACNEHHA@?$AAt?$AAo?$AA?9?$AA?$DO?$AA_?$AAW?$AAh?$AAa?$AAt?$AA?5?$AA?$DN?$AA?$DN?$AA?5?$AAn?$AAu@ 000000014003d810     libvcruntimed:std_exception.obj
 0002:00001870       ??_C@_1IM@CBBCJHKN@?$AAd?$AA?3?$AA?2?$AAa?$AAg?$AAe?$AAn?$AAt?$AA?2?$AA_?$AAw?$AAo?$AAr?$AAk?$AA?2@ 000000014003d870     libvcruntimed:std_exception.obj
 0002:00001900       __acrt_exception_action_table 000000014003d900     libucrtd:exception_filter.obj
 0002:000019c0       __acrt_signal_action_table_count 000000014003d9c0     libucrtd:exception_filter.obj
 0002:000019c8       __acrt_signal_action_first_fpe_index 000000014003d9c8     libucrtd:exception_filter.obj
 0002:000019d0       __acrt_signal_action_fpe_count 000000014003d9d0     libucrtd:exception_filter.obj
 0002:000019e0       ??_C@_1IC@DCNEKBE@?$AAm?$AAi?$AAn?$AAk?$AAe?$AAr?$AAn?$AAe?$AAl?$AA?2?$AAc?$AAr?$AAt?$AAs?$AA?2@ 000000014003d9e0     libucrtd:report_runtime_error.obj
 0002:00001a68       ??_C@_1DI@BLFJHKKP@?$AA_?$AA_?$AAa?$AAc?$AAr?$AAt?$AA_?$AAr?$AAe?$AAp?$AAo?$AAr?$AAt?$AA_?$AAr@ 000000014003da68     libucrtd:report_runtime_error.obj
 0002:00001aa0       ??_C@_1LE@MHPGJGKE@?$AAw?$AAc?$AAs?$AAc?$AAp?$AAy?$AA_?$AAs?$AA?$CI?$AAo?$AAu?$AAt?$AAm?$AAs?$AAg@ 000000014003daa0     libucrtd:report_runtime_error.obj
 0002:00001b58       ??_C@_1DE@JNGNBFGO@?$AAR?$AAu?$AAn?$AAt?$AAi?$AAm?$AAe?$AA?5?$AAE?$AAr?$AAr?$AAo?$AAr?$AA?$CB?$AA?6@ 000000014003db58     libucrtd:report_runtime_error.obj
 0002:00001b90       ??_C@_1HK@FJJNAABO@?$AAw?$AAc?$AAs?$AAc?$AAp?$AAy?$AA_?$AAs?$AA?$CI?$AAp?$AAr?$AAo?$AAg?$AAn?$AAa@ 000000014003db90     libucrtd:report_runtime_error.obj
 0002:00001c10       ??_C@_1CO@EAEJAADC@?$AA?$DM?$AAp?$AAr?$AAo?$AAg?$AAr?$AAa?$AAm?$AA?5?$AAn?$AAa?$AAm?$AAe?$AA?5?$AAu@ 000000014003dc10     libucrtd:report_runtime_error.obj
 0002:00001c40       ??_C@_1HI@FLHKGEBE@?$AAw?$AAc?$AAs?$AAn?$AAc?$AAp?$AAy?$AA_?$AAs?$AA?$CI?$AAp?$AAc?$AAh?$AA?0?$AA?5@ 000000014003dc40     libucrtd:report_runtime_error.obj
 0002:00001cb8       ??_C@_17LGKOMLJ@?$AA?4?$AA?4?$AA?4@ 000000014003dcb8     libucrtd:report_runtime_error.obj
 0002:00001cc0       ??_C@_1IG@MNNKBLBI@?$AAw?$AAc?$AAs?$AAc?$AAa?$AAt?$AA_?$AAs?$AA?$CI?$AAo?$AAu?$AAt?$AAm?$AAs?$AAg@ 000000014003dcc0     libucrtd:report_runtime_error.obj
 0002:00001d48       ??_C@_15IABLJNFO@?$AA?6?$AA?6@ 000000014003dd48     libucrtd:report_runtime_error.obj
 0002:00001d50       ??_C@_1IG@DFBBBDAN@?$AAw?$AAc?$AAs?$AAc?$AAa?$AAt?$AA_?$AAs?$AA?$CI?$AAo?$AAu?$AAt?$AAm?$AAs?$AAg@ 000000014003dd50     libucrtd:report_runtime_error.obj
 0002:00001de0       ??_C@_1EK@MBDPDCGA@?$AAM?$AAi?$AAc?$AAr?$AAo?$AAs?$AAo?$AAf?$AAt?$AA?5?$AAV?$AAi?$AAs?$AAu?$AAa@ 000000014003dde0     libucrtd:report_runtime_error.obj
 0002:00001e30       ??_C@_0DI@KNDIGDEP@minkernel?2crts?2ucrt?2src?2appcrt?2@ 000000014003de30     libucrtd:argv_parsing.obj
 0002:00001e70       ??_C@_1JO@PGBIJBAM@?$AAm?$AAo?$AAd?$AAe?$AA?5?$AA?$DN?$AA?$DN?$AA?5?$AA_?$AAc?$AAr?$AAt?$AA_?$AAa?$AAr@ 000000014003de70     libucrtd:argv_parsing.obj
 0002:00001f10       ??_C@_1HA@JMLCANEE@?$AAm?$AAi?$AAn?$AAk?$AAe?$AAr?$AAn?$AAe?$AAl?$AA?2?$AAc?$AAr?$AAt?$AAs?$AA?2@ 000000014003df10     libucrtd:argv_parsing.obj
 0002:00001f80       ??_C@_1CM@LHOJELIC@?$AAc?$AAo?$AAm?$AAm?$AAo?$AAn?$AA_?$AAc?$AAo?$AAn?$AAf?$AAi?$AAg?$AAu?$AAr@ 000000014003df80     libucrtd:argv_parsing.obj
 0002:00001fb0       ??_C@_0EG@LEHKHOEH@minkernel?2crts?2ucrt?2src?2desktop@ 000000014003dfb0     libucrtd:environment_initialization.obj
 0002:00002000       ??_C@_1IM@IMOFFPLG@?$AAm?$AAi?$AAn?$AAk?$AAe?$AAr?$AAn?$AAe?$AAl?$AA?2?$AAc?$AAr?$AAt?$AAs?$AA?2@ 000000014003e000     libucrtd:environment_initialization.obj
 0002:00002090       ??_C@_1CG@MNNNBNAK@?$AAc?$AAr?$AAe?$AAa?$AAt?$AAe?$AA_?$AAe?$AAn?$AAv?$AAi?$AAr?$AAo?$AAn?$AAm@ 000000014003e090     libucrtd:environment_initialization.obj
 0002:000020c0       ??_C@_1HI@OOPIFFGA@?$AAt?$AAr?$AAa?$AAi?$AAt?$AAs?$AA?3?$AA?3?$AAt?$AAc?$AAs?$AAc?$AAp?$AAy?$AA_@ 000000014003e0c0     libucrtd:environment_initialization.obj
 0002:00002138       ??_C@_1BI@BGOHAHKC@?$AAm?$AAs?$AAc?$AAo?$AAr?$AAe?$AAe?$AA?4?$AAd?$AAl?$AAl@ 000000014003e138     libucrtd:exit.obj
 0002:00002150       ??_C@_0P@MIGLKIOC@CorExitProcess@ 000000014003e150     libucrtd:exit.obj
 0002:00002160       ??_C@_1GC@CIJNGKLD@?$AAm?$AAi?$AAn?$AAk?$AAe?$AAr?$AAn?$AAe?$AAl?$AA?2?$AAc?$AAr?$AAt?$AAs?$AA?2@ 000000014003e160     libucrtd:setmode.obj
 0002:000021d0       ??_C@_1FO@LPCLHKGE@?$AA?$CI?$AAf?$AAh?$AA?5?$AA?$DO?$AA?$DN?$AA?5?$AA0?$AA?5?$AA?$CG?$AA?$CG?$AA?5?$AA?$CI?$AAu?$AAn@ 000000014003e1d0     libucrtd:setmode.obj
 0002:00002230       ??_C@_1CM@OKGMMMDH@?$AA?$CI?$AA_?$AAo?$AAs?$AAf?$AAi?$AAl?$AAe?$AA?$CI?$AAf?$AAh?$AA?$CJ?$AA?5?$AA?$CG?$AA?5@ 000000014003e230     libucrtd:setmode.obj
 0002:00002260       ??_C@_1JE@ECKHFIFP@?$AA?$CI?$AA?$CC?$AAI?$AAn?$AAv?$AAa?$AAl?$AAi?$AAd?$AA?5?$AAf?$AAi?$AAl?$AAe?$AA?5@ 000000014003e260     libucrtd:setmode.obj
 0002:00002300       ??_C@_1HC@GNDCDMJL@?$AAm?$AAo?$AAd?$AAe?$AA?5?$AA?$DN?$AA?$DN?$AA?5?$AA_?$AAO?$AA_?$AAT?$AAE?$AAX?$AAT@ 000000014003e300     libucrtd:setmode.obj
 0002:00002378       ??_C@_1BG@IEEHLOCL@?$AA_?$AAs?$AAe?$AAt?$AA_?$AAf?$AAm?$AAo?$AAd?$AAe@ 000000014003e378     libucrtd:setmode.obj
 0002:00002390       ??_C@_1GA@LDEGDKD@?$AA?$CI?$AA?$CC?$AAI?$AAn?$AAv?$AAa?$AAl?$AAi?$AAd?$AA?5?$AAp?$AAa?$AAr?$AAa?$AAm@ 000000014003e390     libucrtd:wsetlocale.obj
 0002:000023f0       ??_C@_1GK@DPKNLBIE@?$AAm?$AAi?$AAn?$AAk?$AAe?$AAr?$AAn?$AAe?$AAl?$AA?2?$AAc?$AAr?$AAt?$AAs?$AA?2@ 000000014003e3f0     libucrtd:wsetlocale.obj
 0002:00002460       ??_C@_1CI@FGIONOJM@?$AA_?$AAc?$AAo?$AAn?$AAf?$AAi?$AAg?$AAt?$AAh?$AAr?$AAe?$AAa?$AAd?$AAl?$AAo@ 000000014003e460     libucrtd:wsetlocale.obj
 0002:00002488       ??_C@_1CO@JKFLNGDK@?$AAm?$AAo?$AAd?$AAe?$AA?5?$AA?$DN?$AA?$DN?$AA?5?$AA0?$AA?5?$AA?$HM?$AA?$HM?$AA?5?$AAm?$AAo@ 000000014003e488     libucrtd:new_mode.obj
 0002:000024c0       ??_C@_1GC@PJMKBHEK@?$AAm?$AAi?$AAn?$AAk?$AAe?$AAr?$AAn?$AAe?$AAl?$AA?2?$AAc?$AAr?$AAt?$AAs?$AA?2@ 000000014003e4c0     libucrtd:new_mode.obj
 0002:00002528       ??_C@_1BM@PDPAKJNF@?$AA_?$AAs?$AAe?$AAt?$AA_?$AAn?$AAe?$AAw?$AA_?$AAm?$AAo?$AAd?$AAe@ 000000014003e528     libucrtd:new_mode.obj
 0002:00002570       ??_C@_0DC@NBHMIIKL@minkernel?2crts?2ucrt?2src?2appcrt?2@ 000000014003e570     libucrtd:onexit.obj
 0002:000026d8       ??_C@_04HJMOFLDF@Free@     000000014003e6d8     libucrtd:debug_heap.obj
 0002:000026e0       ??_C@_06EFAGIKOH@Normal@   000000014003e6e0     libucrtd:debug_heap.obj
 0002:000026e8       ??_C@_03OGPFLFLO@CRT@      000000014003e6e8     libucrtd:debug_heap.obj
 0002:000026ec       ??_C@_06KMEJCCGM@Ignore@   000000014003e6ec     libucrtd:debug_heap.obj
 0002:000026f4       ??_C@_06PJIGMIJB@Client@   000000014003e6f4     libucrtd:debug_heap.obj
 0002:00002700       ??_C@_1CE@LJFEPPMP@?$AA_?$AAC?$AAr?$AAt?$AAC?$AAh?$AAe?$AAc?$AAk?$AAM?$AAe?$AAm?$AAo?$AAr?$AAy@ 000000014003e700     libucrtd:debug_heap.obj
 0002:00002730       ??_C@_1GG@OCLHPJPK@?$AAm?$AAi?$AAn?$AAk?$AAe?$AAr?$AAn?$AAe?$AAl?$AA?2?$AAc?$AAr?$AAt?$AAs?$AA?2@ 000000014003e730     libucrtd:debug_heap.obj
 0002:00002798       ??_C@_0DF@BBEGIFEK@Client?5hook?5allocation?5failure?5@ 000000014003e798     libucrtd:debug_heap.obj
 0002:000027d0       ??_C@_0CB@CCLOLAHO@Client?5hook?5allocation?5failure?4@ 000000014003e7d0     libucrtd:debug_heap.obj
 0002:000027f8       ??_C@_0DC@JEMAGEKG@Error?3?5memory?5allocation?3?5bad?5m@ 000000014003e7f8     libucrtd:debug_heap.obj
 0002:00002830       ??_C@_0DI@KKJPDPGM@Client?5hook?5re?9allocation?5failu@ 000000014003e830     libucrtd:debug_heap.obj
 0002:00002868       ??_C@_0CE@DOFMDOL@Client?5hook?5re?9allocation?5failu@ 000000014003e868     libucrtd:debug_heap.obj
 0002:00002890       ??_C@_0FA@EFEIGJKG@Error?3?5memory?5allocation?3?5bad?5m@ 000000014003e890     libucrtd:debug_heap.obj
 0002:000028e0       ??_C@_0EM@LGFLMAGJ@The?5Block?5at?50x?$CFp?5was?5allocated@ 000000014003e8e0     libucrtd:debug_heap.obj
 0002:00002930       ??_C@_1DM@DEDLGNML@?$AA_?$AAC?$AAr?$AAt?$AAI?$AAs?$AAV?$AAa?$AAl?$AAi?$AAd?$AAH?$AAe?$AAa?$AAp@ 000000014003e930     libucrtd:debug_heap.obj
 0002:00002970       ??_C@_1PC@MCGKJLN@?$AAo?$AAl?$AAd?$AA_?$AAh?$AAe?$AAa?$AAd?$AA?9?$AA?$DO?$AA_?$AAl?$AAi?$AAn?$AAe@ 000000014003e970     libucrtd:debug_heap.obj
 0002:00002a68       ??_C@_0DA@HFBKENN@Error?3?5possible?5heap?5corruption@ 000000014003ea68     libucrtd:debug_heap.obj
 0002:00002aa0       ??_C@_1JM@MCMEPJEP@?$AAr?$AAe?$AAa?$AAl?$AAl?$AAo?$AAc?$AAa?$AAt?$AAi?$AAo?$AAn?$AA_?$AAi?$AAs@ 000000014003eaa0     libucrtd:debug_heap.obj
 0002:00002b40       ??_C@_1DM@LNOPKAIJ@?$AA_?$AA_?$AAa?$AAc?$AAr?$AAt?$AA_?$AAl?$AAa?$AAs?$AAt?$AA_?$AAb?$AAl?$AAo@ 000000014003eb40     libucrtd:debug_heap.obj
 0002:00002b80       ??_C@_1DO@HABCJBHO@?$AA_?$AA_?$AAa?$AAc?$AAr?$AAt?$AA_?$AAf?$AAi?$AAr?$AAs?$AAt?$AA_?$AAb?$AAl@ 000000014003eb80     libucrtd:debug_heap.obj
 0002:00002bc0       ??_C@_1CC@CKEAHJPH@?$AAb?$AAl?$AAo?$AAc?$AAk?$AA?5?$AA?$CB?$AA?$DN?$AA?5?$AAn?$AAu?$AAl?$AAl?$AAp?$AAt@ 000000014003ebc0     libucrtd:debug_heap.obj
 0002:00002bf0       ??_C@_0EJ@HEIBCIMJ@The?5Block?5at?50x?$CFp?5was?5allocated@ 000000014003ebf0     libucrtd:debug_heap.obj
 0002:00002c40       ??_C@_0BL@KEIPLFAC@Client?5hook?5free?5failure?4?6@ 000000014003ec40     libucrtd:debug_heap.obj
 0002:00002c60       ??_C@_1FA@KDNEBILF@?$AAi?$AAs?$AA_?$AAb?$AAl?$AAo?$AAc?$AAk?$AA_?$AAt?$AAy?$AAp?$AAe?$AA_?$AAv@ 000000014003ec60     libucrtd:debug_heap.obj
 0002:00002cb0       ??_C@_0KI@JGFOHMEB@HEAP?5CORRUPTION?5DETECTED?3?5befor@ 000000014003ecb0     libucrtd:debug_heap.obj
 0002:00002d60       ??_C@_0IK@PJCGLBOB@HEAP?5CORRUPTION?5DETECTED?3?5befor@ 000000014003ed60     libucrtd:debug_heap.obj
 0002:00002df0       ??_C@_0KE@MBMNHHHN@HEAP?5CORRUPTION?5DETECTED?3?5after@ 000000014003edf0     libucrtd:debug_heap.obj
 0002:00002ea0       ??_C@_0IG@LEMBDCJK@HEAP?5CORRUPTION?5DETECTED?3?5after@ 000000014003eea0     libucrtd:debug_heap.obj
 0002:00002f30       ??_C@_1OK@GFEOEJAF@?$AAh?$AAe?$AAa?$AAd?$AAe?$AAr?$AA?9?$AA?$DO?$AA_?$AAl?$AAi?$AAn?$AAe?$AA_?$AAn@ 000000014003ef30     libucrtd:debug_heap.obj
 0002:00003020       ??_C@_1ME@GFALMLNA@?$AAh?$AAe?$AAa?$AAd?$AAe?$AAr?$AA?9?$AA?$DO?$AA_?$AAb?$AAl?$AAo?$AAc?$AAk?$AA_@ 000000014003f020     libucrtd:debug_heap.obj
 0002:000030e8       ??_C@_1DI@ILNOPEPI@?$AA_?$AA_?$AAa?$AAc?$AAr?$AAt?$AA_?$AAl?$AAa?$AAs?$AAt?$AA_?$AAb?$AAl?$AAo@ 000000014003f0e8     libucrtd:debug_heap.obj
 0002:00003120       ??_C@_1DK@KEHFGDIJ@?$AA_?$AA_?$AAa?$AAc?$AAr?$AAt?$AA_?$AAf?$AAi?$AAr?$AAs?$AAt?$AA_?$AAb?$AAl@ 000000014003f120     libucrtd:debug_heap.obj
 0002:00003160       ??_C@_1BG@MBKOGDLD@?$AA_?$AAm?$AAs?$AAi?$AAz?$AAe?$AA_?$AAd?$AAb?$AAg@ 000000014003f160     libucrtd:debug_heap.obj
 0002:00003178       ??_C@_07OHKEFPKJ@DAMAGED@  000000014003f178     libucrtd:debug_heap.obj
 0002:00003180       ??_C@_0KA@IHNJJKPL@HEAP?5CORRUPTION?5DETECTED?3?5on?5to@ 000000014003f180     libucrtd:debug_heap.obj
 0002:00003220       ??_C@_0IC@BBJIOOJH@HEAP?5CORRUPTION?5DETECTED?3?5on?5to@ 000000014003f220     libucrtd:debug_heap.obj
 0002:000032b0       ??_C@_0EG@DGJMPDBH@?$CFhs?5located?5at?50x?$CFp?5is?5?$CFIu?5byte@ 000000014003f2b0     libucrtd:debug_heap.obj
 0002:000032f8       ??_C@_0CI@JMLBEDHJ@?$CFhs?5located?5at?50x?$CFp?5is?5?$CFIu?5byte@ 000000014003f2f8     libucrtd:debug_heap.obj
 0002:00003320       ??_C@_0EG@GPFHANHO@Cycle?5in?5block?5list?5detected?5wh@ 000000014003f320     libucrtd:debug_heap.obj
 0002:00003368       ??_C@_0BJ@ELMAOCAJ@Heap?5validation?5failed?4?6@ 000000014003f368     libucrtd:debug_heap.obj
 0002:00003390       ??_C@_1IE@BBIFDGEB@?$AAn?$AAe?$AAw?$AA_?$AAb?$AAi?$AAt?$AAs?$AA?5?$AA?$DN?$AA?$DN?$AA?5?$AA_?$AAC?$AAR@ 000000014003f390     libucrtd:debug_heap.obj
 0002:00003418       ??_C@_1BO@GJFDNMNF@?$AA_?$AAC?$AAr?$AAt?$AAS?$AAe?$AAt?$AAD?$AAb?$AAg?$AAF?$AAl?$AAa?$AAg@ 000000014003f418     libucrtd:debug_heap.obj
 0002:00003438       ??_C@_1CC@BBKMONGA@?$AAs?$AAt?$AAa?$AAt?$AAe?$AA?5?$AA?$CB?$AA?$DN?$AA?5?$AAn?$AAu?$AAl?$AAl?$AAp?$AAt@ 000000014003f438     libucrtd:debug_heap.obj
 0002:00003460       ??_C@_1CE@NJJKELF@?$AA_?$AAC?$AAr?$AAt?$AAM?$AAe?$AAm?$AAC?$AAh?$AAe?$AAc?$AAk?$AAp?$AAo?$AAi@ 000000014003f460     libucrtd:debug_heap.obj
 0002:00003488       ??_C@_0DP@LEFMFBOD@Bad?5memory?5block?5found?5at?50x?$CFp?4@ 000000014003f488     libucrtd:debug_heap.obj
 0002:000034c8       ??_C@_0CB@EAAIGELO@Bad?5memory?5block?5found?5at?50x?$CFp?4@ 000000014003f4c8     libucrtd:debug_heap.obj
 0002:000034ec       ??_C@_05MKKEDADM@?$CF?42X?5@ 000000014003f4ec     libucrtd:debug_heap.obj
 0002:000034f8       ??_C@_1CC@DIJAHFFJ@?$AAp?$AAr?$AAi?$AAn?$AAt?$AA_?$AAb?$AAl?$AAo?$AAc?$AAk?$AA_?$AAd?$AAa?$AAt@ 000000014003f4f8     libucrtd:debug_heap.obj
 0002:00003520       ??_C@_1BI@KALLJECN@?$AA?$CI?$AA?$CK?$AA_?$AAe?$AAr?$AAr?$AAn?$AAo?$AA?$CI?$AA?$CJ?$AA?$CJ@ 000000014003f520     libucrtd:debug_heap.obj
 0002:00003538       ??_C@_0BA@HJBKCELP@?5Data?3?5?$DM?$CFs?$DO?5?$CFs?6@ 000000014003f538     libucrtd:debug_heap.obj
 0002:00003548       ??_C@_0BE@KCIPKCIA@Dumping?5objects?5?9?$DO?6@ 000000014003f548     libucrtd:debug_heap.obj
 0002:00003560       ??_C@_0BE@OIEFNFL@?$CDFile?5Error?$CD?$CI?$CFd?$CJ?5?3?5@ 000000014003f560     libucrtd:debug_heap.obj
 0002:00003578       ??_C@_0L@JMEFFCCJ@?$CFhs?$CI?$CFd?$CJ?5?3?5@ 000000014003f578     libucrtd:debug_heap.obj
 0002:00003584       ??_C@_06PKLGBFGM@?$HL?$CFld?$HN?5@ 000000014003f584     libucrtd:debug_heap.obj
 0002:00003590       ??_C@_0DD@GHNAAKBB@client?5block?5at?50x?$CFp?0?5subtype?5?$CF@ 000000014003f590     libucrtd:debug_heap.obj
 0002:000035c8       ??_C@_0CH@FAGDDGPN@normal?5block?5at?50x?$CFp?0?5?$CFIu?5bytes@ 000000014003f5c8     libucrtd:debug_heap.obj
 0002:000035f0       ??_C@_0DA@MDLBNIBM@crt?5block?5at?50x?$CFp?0?5subtype?5?$CFx?0?5@ 000000014003f5f0     libucrtd:debug_heap.obj
 0002:00003620       ??_C@_0BH@GFGKJDCO@Object?5dump?5complete?4?6@ 000000014003f620     libucrtd:debug_heap.obj
 0002:00003638       ??_C@_0BI@JBFPOEJA@Detected?5memory?5leaks?$CB?6@ 000000014003f638     libucrtd:debug_heap.obj
 0002:00003650       ??_C@_1GI@BBAEIKL@?$AA?$CI?$AA?$CI?$AAd?$AAe?$AAs?$AAt?$AAi?$AAn?$AAa?$AAt?$AAi?$AAo?$AAn?$AA?$CJ?$AA?$CJ@ 000000014003f650     libucrtd:strcpy_s.obj
 0002:000036c0       ??_C@_1HI@PBJPCEBC@?$AAm?$AAi?$AAn?$AAk?$AAe?$AAr?$AAn?$AAe?$AAl?$AA?2?$AAc?$AAr?$AAt?$AAs?$AA?2@ 000000014003f6c0     libucrtd:strcpy_s.obj
 0002:00003738       ??_C@_1CA@FHIAGDFH@?$AAc?$AAo?$AAm?$AAm?$AAo?$AAn?$AA_?$AAt?$AAc?$AAs?$AAc?$AAp?$AAy?$AA_?$AAs@ 000000014003f738     libucrtd:strcpy_s.obj
 0002:00003758       ??_C@_1CK@EIOKGPJL@?$AA?$CI?$AA?$CI?$AA?$CI?$AAs?$AAo?$AAu?$AAr?$AAc?$AAe?$AA?$CJ?$AA?$CJ?$AA?$CJ?$AA?5?$AA?$CB?$AA?$DN@ 000000014003f758     libucrtd:strcpy_s.obj
 0002:00003788       ??_C@_1CI@HCPHDDLE@?$AAB?$AAu?$AAf?$AAf?$AAe?$AAr?$AA?5?$AAi?$AAs?$AA?5?$AAt?$AAo?$AAo?$AA?5?$AAs@ 000000014003f788     libucrtd:strcpy_s.obj
 0002:000037b0       ??_C@_1DM@MADKGDLO@?$AA?$CI?$AAL?$AA?$CC?$AAB?$AAu?$AAf?$AAf?$AAe?$AAr?$AA?5?$AAi?$AAs?$AA?5?$AAt?$AAo@ 000000014003f7b0     libucrtd:strcpy_s.obj
 0002:000037f0       ??_C@_1DA@LLLMNMKI@?$AAa?$AAb?$AAo?$AAr?$AAt?$AA?$CI?$AA?$CJ?$AA?5?$AAh?$AAa?$AAs?$AA?5?$AAb?$AAe?$AAe@ 000000014003f7f0     libucrtd:abort.obj
 0002:00003820       ?format_validation_lookup_table_spectre@__crt_stdio_output@@3V?$spectre_mitigated_lookup_table@Ustate_transition_pair@__crt_stdio_output@@$0IA@@1@B 000000014003f820     libucrtd:output.obj
 0002:00003c20       ??_C@_1GA@MOBAPGIO@?$AAm?$AAi?$AAn?$AAk?$AAe?$AAr?$AAn?$AAe?$AAl?$AA?2?$AAc?$AAr?$AAt?$AAs?$AA?2@ 000000014003fc20     libucrtd:output.obj
 0002:00003c80       ??_C@_1CE@EAKLPBKK@?$AAf?$AAo?$AAr?$AAm?$AAa?$AAt?$AA?5?$AA?$CB?$AA?$DN?$AA?5?$AAn?$AAu?$AAl?$AAl?$AAp@ 000000014003fc80     libucrtd:output.obj
 0002:00003ca8       ??_C@_1CA@PIMGHCEK@?$AAc?$AAo?$AAm?$AAm?$AAo?$AAn?$AA_?$AAv?$AAs?$AAp?$AAr?$AAi?$AAn?$AAt?$AAf@ 000000014003fca8     libucrtd:output.obj
 0002:00003cd0       ??_C@_1EO@EGEEFEFM@?$AAb?$AAu?$AAf?$AAf?$AAe?$AAr?$AA_?$AAc?$AAo?$AAu?$AAn?$AAt?$AA?5?$AA?$DN?$AA?$DN@ 000000014003fcd0     libucrtd:output.obj
 0002:00003d20       ??_C@_1CE@JEILLNB@?$AAc?$AAo?$AAm?$AAm?$AAo?$AAn?$AA_?$AAv?$AAs?$AAp?$AAr?$AAi?$AAn?$AAt?$AAf@ 000000014003fd20     libucrtd:output.obj
 0002:00003d50       ??_C@_1EM@OAFHAOLH@?$AAb?$AAu?$AAf?$AAf?$AAe?$AAr?$AA?5?$AA?$CB?$AA?$DN?$AA?5?$AAn?$AAu?$AAl?$AAl?$AAp@ 000000014003fd50     libucrtd:output.obj
 0002:00003da0       ??_C@_1DA@HPBFKMEB@?$AA?$CI?$AA?$CC?$AAB?$AAu?$AAf?$AAf?$AAe?$AAr?$AA?5?$AAt?$AAo?$AAo?$AA?5?$AAs?$AAm@ 000000014003fda0     libucrtd:output.obj
 0002:00003dd0       ??_C@_1CG@LHFJHFBB@?$AAc?$AAo?$AAm?$AAm?$AAo?$AAn?$AA_?$AAv?$AAs?$AAn?$AAp?$AAr?$AAi?$AAn?$AAt@ 000000014003fdd0     libucrtd:output.obj
 0002:00003df8       ??_C@_1CM@JOIJBMEM@?$AA_?$AAf?$AAo?$AAr?$AAm?$AAa?$AAt?$AA_?$AAi?$AAt?$AA?5?$AA?$CB?$AA?$DN?$AA?5?$AAn@ 000000014003fdf8     libucrtd:output.obj
 0002:00003e30       ??_C@_1HA@DMAAKIJP@?$AAm?$AAi?$AAn?$AAk?$AAe?$AAr?$AAn?$AAe?$AAl?$AA?2?$AAc?$AAr?$AAt?$AAs?$AA?2@ 000000014003fe30     libucrtd:output.obj
 0002:00003ea0       ??_C@_1EE@DMAIGNBG@?$AA?$CI?$AA?$CC?$AAI?$AAn?$AAc?$AAo?$AAr?$AAr?$AAe?$AAc?$AAt?$AA?5?$AAf?$AAo?$AAr@ 000000014003fea0     libucrtd:output.obj
 0002:00003ef0       ??_C@_1FG@OBJBDPAC@?$AA?$CI?$AA?$CC?$AAN?$AA?5?$AAl?$AAe?$AAn?$AAg?$AAt?$AAh?$AA?5?$AAm?$AAo?$AAd?$AAi@ 000000014003fef0     libucrtd:output.obj
 0002:00003f50       ??_C@_1EC@GJPNJDCN@?$AA_?$AAl?$AAe?$AAn?$AAg?$AAt?$AAh?$AA?5?$AA?$DN?$AA?$DN?$AA?5?$AAl?$AAe?$AAn?$AAg@ 000000014003ff50     libucrtd:output.obj
 0002:00003f98       ??_C@_1DG@CEJKFDMO@?$AAs?$AAt?$AAa?$AAt?$AAe?$AA_?$AAc?$AAa?$AAs?$AAe?$AA_?$AAn?$AAo?$AAr?$AAm@ 000000014003ff98     libucrtd:output.obj
 0002:00003fd0       ??_C@_1CI@DDKMNCPP@?$AA_?$AAc?$AAo?$AAn?$AAt?$AAe?$AAx?$AAt?$AA?5?$AA?$CB?$AA?$DN?$AA?5?$AAn?$AAu?$AAl@ 000000014003ffd0     libucrtd:output.obj
 0002:00004000       ??_C@_1HK@IIPGOADH@?$AA_?$AA_?$AAc?$AAr?$AAt?$AA_?$AAs?$AAt?$AAd?$AAi?$AAo?$AA_?$AAo?$AAu?$AAt@ 0000000140040000     libucrtd:output.obj
 0002:00004080       ??_C@_1HE@IACOMEJF@?$AA_?$AA_?$AAc?$AAr?$AAt?$AA_?$AAs?$AAt?$AAd?$AAi?$AAo?$AA_?$AAo?$AAu?$AAt@ 0000000140040080     libucrtd:output.obj
 0002:00004100       ??_C@_1GC@BNMHNGKM@?$AA_?$AAs?$AAt?$AAa?$AAt?$AAe?$AA?5?$AA?$DN?$AA?$DN?$AA?5?$AAs?$AAt?$AAa?$AAt?$AAe@ 0000000140040100     libucrtd:output.obj
 0002:00004170       ??_C@_1BEC@NDOOKIMC@?$AA_?$AA_?$AAc?$AAr?$AAt?$AA_?$AAs?$AAt?$AAd?$AAi?$AAo?$AA_?$AAo?$AAu?$AAt@ 0000000140040170     libucrtd:output.obj
 0002:000042c0       ??_C@_1EK@PNGFDECN@?$AA?$CI?$AA?$CC?$AA?8?$AAn?$AA?8?$AA?5?$AAf?$AAo?$AAr?$AAm?$AAa?$AAt?$AA?5?$AAs?$AAp@ 00000001400402c0     libucrtd:output.obj
 0002:00004310       ??_C@_1EO@GHKFGFKL@?$AA?$CI?$AA?$CC?$AAI?$AAn?$AAv?$AAa?$AAl?$AAi?$AAd?$AA?5?$AAi?$AAn?$AAt?$AAe?$AAg@ 0000000140040310     libucrtd:output.obj
 0002:00004360       ??_C@_1BDG@KOLEFKPF@?$AA_?$AA_?$AAc?$AAr?$AAt?$AA_?$AAs?$AAt?$AAd?$AAi?$AAo?$AA_?$AAo?$AAu?$AAt@ 0000000140040360     libucrtd:output.obj
 0002:00004498       ??_C@_1O@CEDCILHN@?$AA?$CI?$AAn?$AAu?$AAl?$AAl?$AA?$CJ@ 0000000140040498     libucrtd:output.obj
 0002:000044a8       ??_C@_06OJHGLDPL@?$CInull?$CJ@ 00000001400404a8     libucrtd:output.obj
 0002:000044b0       ??_C@_1CK@LGDCECDH@?$AA_?$AAf?$AAo?$AAr?$AAm?$AAa?$AAt?$AA_?$AAc?$AAh?$AAa?$AAr?$AA?5?$AA?$CB?$AA?$DN@ 00000001400404b0     libucrtd:output.obj
 0002:000044e0       ??_C@_0DI@KIFBHMNO@minkernel?2crts?2ucrt?2inc?2corecrt@ 00000001400404e0     libucrtd:output.obj
 0002:00004520       ??_C@_1BMK@JGIBNIA@?$AA_?$AA_?$AAc?$AAr?$AAt?$AA_?$AAs?$AAt?$AAd?$AAi?$AAo?$AA_?$AAo?$AAu?$AAt@ 0000000140040520     libucrtd:output.obj
 0002:000046f0       ??_C@_1BLC@INKIGOCN@?$AA_?$AA_?$AAc?$AAr?$AAt?$AA_?$AAs?$AAt?$AAd?$AAi?$AAo?$AA_?$AAo?$AAu?$AAt@ 00000001400406f0     libucrtd:output.obj
 0002:000048b0       ??_C@_1BNK@KHNJGCCP@?$AA_?$AA_?$AAc?$AAr?$AAt?$AA_?$AAs?$AAt?$AAd?$AAi?$AAo?$AA_?$AAo?$AAu?$AAt@ 00000001400408b0     libucrtd:output.obj
 0002:00004a90       ??_C@_1BNO@OHFFMOOJ@?$AA_?$AA_?$AAc?$AAr?$AAt?$AA_?$AAs?$AAt?$AAd?$AAi?$AAo?$AA_?$AAo?$AAu?$AAt@ 0000000140040a90     libucrtd:output.obj
 0002:00004c70       ??_C@_1BMC@FAGJFBLI@?$AA_?$AA_?$AAc?$AAr?$AAt?$AA_?$AAs?$AAt?$AAd?$AAi?$AAo?$AA_?$AAo?$AAu?$AAt@ 0000000140040c70     libucrtd:output.obj
 0002:00004e40       ??_C@_1BMG@CGPDIFDK@?$AA_?$AA_?$AAc?$AAr?$AAt?$AA_?$AAs?$AAt?$AAd?$AAi?$AAo?$AA_?$AAo?$AAu?$AAt@ 0000000140040e40     libucrtd:output.obj
 0002:00005010       ??_C@_1BNC@OHPDPPJK@?$AA_?$AA_?$AAc?$AAr?$AAt?$AA_?$AAs?$AAt?$AAd?$AAi?$AAo?$AA_?$AAo?$AAu?$AAt@ 0000000140041010     libucrtd:output.obj
 0002:000051f0       ??_C@_1BLK@FOLFMPJH@?$AA_?$AA_?$AAc?$AAr?$AAt?$AA_?$AAs?$AAt?$AAd?$AAi?$AAo?$AA_?$AAo?$AAu?$AAt@ 00000001400411f0     libucrtd:output.obj
 0002:000053b0       ??_C@_1BNO@NAODCKFA@?$AA_?$AA_?$AAc?$AAr?$AAt?$AA_?$AAs?$AAt?$AAd?$AAi?$AAo?$AA_?$AAo?$AAu?$AAt@ 00000001400413b0     libucrtd:output.obj
 0002:00005590       ??_C@_1BMG@BBEFGBID@?$AA_?$AA_?$AAc?$AAr?$AAt?$AA_?$AAs?$AAt?$AAd?$AAi?$AAo?$AA_?$AAo?$AAu?$AAt@ 0000000140041590     libucrtd:output.obj
 0002:00005760       ??_C@_1BNC@JPKLPOHO@?$AA_?$AA_?$AAc?$AAr?$AAt?$AA_?$AAs?$AAt?$AAd?$AAi?$AAo?$AA_?$AAo?$AAu?$AAt@ 0000000140041760     libucrtd:output.obj
 0002:00005950       ??_C@_1BA@GLMCNLEM@?$AAW?$AAa?$AAr?$AAn?$AAi?$AAn?$AAg@ 0000000140041950     libucrtd:dbgrpt.obj
 0002:00005960       ??_C@_1M@ILHOPKA@?$AAE?$AAr?$AAr?$AAo?$AAr@ 0000000140041960     libucrtd:dbgrpt.obj
 0002:00005970       ??_C@_1CC@CGHMNGDG@?$AAA?$AAs?$AAs?$AAe?$AAr?$AAt?$AAi?$AAo?$AAn?$AA?5?$AAF?$AAa?$AAi?$AAl?$AAe@ 0000000140041970     libucrtd:dbgrpt.obj
 0002:000059a0       ??_C@_1OG@PMPPFHAF@?$AA?6?$AA?6?$AAF?$AAo?$AAr?$AA?5?$AAi?$AAn?$AAf?$AAo?$AAr?$AAm?$AAa?$AAt?$AAi@ 00000001400419a0     libucrtd:dbgrpt.obj
 0002:00005a90       ??_C@_1MG@LJLILFFD@?$AAD?$AAe?$AAb?$AAu?$AAg?$AA?5?$AA?$CF?$AAl?$AAs?$AA?$CB?$AA?6?$AA?6?$AAP?$AAr?$AAo@ 0000000140041a90     libucrtd:dbgrpt.obj
 0002:00005b60       ??_C@_1MG@OODCADGL@?$AAD?$AAe?$AAb?$AAu?$AAg?$AA?5?$AA?$CF?$AAl?$AAs?$AA?$CB?$AA?6?$AA?6?$AAP?$AAr?$AAo@ 0000000140041b60     libucrtd:dbgrpt.obj
 0002:00005c28       ??_C@_0BH@DNAGHKFM@?$DMprogram?5name?5unknown?$DO@ 0000000140041c28     libucrtd:dbgrpt.obj
 0002:00005c40       ??_C@_1FO@GMJDLAJD@?$AAm?$AAi?$AAn?$AAk?$AAe?$AAr?$AAn?$AAe?$AAl?$AA?2?$AAc?$AAr?$AAt?$AAs?$AA?2@ 0000000140041c40     libucrtd:dbgrpt.obj
 0002:00005ca0       ??_C@_1CM@EHMOGBJJ@?$AAc?$AAo?$AAm?$AAm?$AAo?$AAn?$AA_?$AAm?$AAe?$AAs?$AAs?$AAa?$AAg?$AAe?$AA_@ 0000000140041ca0     libucrtd:dbgrpt.obj
 0002:00005cd0       ??_C@_1PE@ECNALGCA@?$AAt?$AAr?$AAa?$AAi?$AAt?$AAs?$AA?3?$AA?3?$AAt?$AAc?$AAs?$AAc?$AAp?$AAy?$AA_@ 0000000140041cd0     libucrtd:dbgrpt.obj
 0002:00005dc4       ??_C@_11LOCGONAA@@         0000000140041dc4     libucrtd:dbgrpt.obj
 0002:00005dc8       ??_C@_1BK@PEDCIPMA@?$AAE?$AAx?$AAp?$AAr?$AAe?$AAs?$AAs?$AAi?$AAo?$AAn?$AA?3?$AA?5@ 0000000140041dc8     libucrtd:dbgrpt.obj
 0002:00005de8       ??_C@_1BA@GLLGCPCK@?$AA?6?$AAL?$AAi?$AAn?$AAe?$AA?3?$AA?5@ 0000000140041de8     libucrtd:dbgrpt.obj
 0002:00005df8       ??_C@_1BA@LNHECFIM@?$AA?6?$AAF?$AAi?$AAl?$AAe?$AA?3?$AA?5@ 0000000140041df8     libucrtd:dbgrpt.obj
 0002:00005e08       ??_C@_1BE@CGCJKGHI@?$AA?6?$AAM?$AAo?$AAd?$AAu?$AAl?$AAe?$AA?3?$AA?5@ 0000000140041e08     libucrtd:dbgrpt.obj
 0002:00005e20       ??_C@_1JM@IBOIJEOO@?$AAw?$AAc?$AAs?$AAc?$AAp?$AAy?$AA_?$AAs?$AA?$CI?$AAm?$AAe?$AAs?$AAs?$AAa?$AAg@ 0000000140041e20     libucrtd:dbgrpt.obj
 0002:00005ec0       ??_C@_1FG@BBOLDHGF@?$AA_?$AAC?$AAr?$AAt?$AAD?$AAb?$AAg?$AAR?$AAe?$AAp?$AAo?$AAr?$AAt?$AA?3?$AA?5@ 0000000140041ec0     libucrtd:dbgrpt.obj
 0002:00005f20       ??_C@_1GE@DPGDJKLM@?$AAm?$AAi?$AAn?$AAk?$AAe?$AAr?$AAn?$AAe?$AAl?$AA?2?$AAc?$AAr?$AAt?$AAs?$AA?2@ 0000000140041f20     libucrtd:atox.obj
 0002:00005f90       ??_C@_1EO@MLJCKPIB@?$AAb?$AAa?$AAs?$AAe?$AA?5?$AA?$DN?$AA?$DN?$AA?5?$AA0?$AA?5?$AA?$HM?$AA?$HM?$AA?5?$AA?$CI?$AA2@ 0000000140041f90     libucrtd:atox.obj
 0002:00005fe0       ??_C@_1DI@BANODKFL@?$AA_?$AA_?$AAc?$AAr?$AAt?$AA_?$AAs?$AAt?$AAr?$AAt?$AAo?$AAx?$AA?3?$AA?3?$AAp@ 0000000140041fe0     libucrtd:atox.obj
 0002:00006018       ??_C@_1CM@GJENOOEJ@?$AAc?$AA?5?$AA?$DN?$AA?$DN?$AA?5?$AA?8?$AA?2?$AA0?$AA?8?$AA?5?$AA?$HM?$AA?$HM?$AA?5?$AA?$CK?$AA_@ 0000000140042018     libucrtd:atox.obj
 0002:00006050       ??_C@_1HA@CONLANFI@?$AA_?$AA_?$AAc?$AAr?$AAt?$AA_?$AAs?$AAt?$AAr?$AAt?$AAo?$AAx?$AA?3?$AA?3?$AAc@ 0000000140042050     libucrtd:atox.obj
 0002:000060c0       ??_C@_1BM@PNEBBBDO@?$AA_?$AAp?$AA?5?$AA?$CB?$AA?$DN?$AA?5?$AAn?$AAu?$AAl?$AAl?$AAp?$AAt?$AAr@ 00000001400420c0     libucrtd:atox.obj
 0002:000060e0       ??_C@_1HG@FCDBLOEG@?$AA_?$AA_?$AAc?$AAr?$AAt?$AA_?$AAs?$AAt?$AAr?$AAt?$AAo?$AAx?$AA?3?$AA?3?$AAc@ 00000001400420e0     libucrtd:atox.obj
 0002:00006160       ??_C@_1GK@MNHIDABG@?$AA_?$AA_?$AAc?$AAr?$AAt?$AA_?$AAs?$AAt?$AAr?$AAt?$AAo?$AAx?$AA?3?$AA?3?$AAc@ 0000000140042160     libucrtd:atox.obj
 0002:000061d0       ??_C@_1HA@MKKIHBHP@?$AA_?$AA_?$AAc?$AAr?$AAt?$AA_?$AAs?$AAt?$AAr?$AAt?$AAo?$AAx?$AA?3?$AA?3?$AAc@ 00000001400421d0     libucrtd:atox.obj
 0002:00006240       ??_C@_0DM@DKIFNNOL@minkernel?2crts?2ucrt?2src?2appcrt?2@ 0000000140042240     libucrtd:per_thread_data.obj
 0002:00006280       ??_C@_1DE@BCNCAIK@?$AA?$CI?$AA?$CC?$AAI?$AAn?$AAv?$AAa?$AAl?$AAi?$AAd?$AA?5?$AAe?$AAr?$AAr?$AAo?$AAr@ 0000000140042280     libucrtd:set_error_mode.obj
 0002:000062c0       ??_C@_1GO@EBFPMMIJ@?$AAm?$AAi?$AAn?$AAk?$AAe?$AAr?$AAn?$AAe?$AAl?$AA?2?$AAc?$AAr?$AAt?$AAs?$AA?2@ 00000001400422c0     libucrtd:set_error_mode.obj
 0002:00006330       ??_C@_1CA@LFDHAMEM@?$AA_?$AAs?$AAe?$AAt?$AA_?$AAe?$AAr?$AAr?$AAo?$AAr?$AA_?$AAm?$AAo?$AAd?$AAe@ 0000000140042330     libucrtd:set_error_mode.obj
 0002:00006350       ??_C@_1CA@EOJJMFA@?$AAc?$AAo?$AAm?$AAm?$AAo?$AAn?$AA_?$AAt?$AAc?$AAs?$AAc?$AAa?$AAt?$AA_?$AAs@ 0000000140042350     libucrtd:wcscat_s.obj
 0002:00006370       ??_C@_1DM@FHLMIEG@?$AAS?$AAt?$AAr?$AAi?$AAn?$AAg?$AA?5?$AAi?$AAs?$AA?5?$AAn?$AAo?$AAt?$AA?5?$AAn@ 0000000140042370     libucrtd:wcscat_s.obj
 0002:000063b0       ??_C@_1FA@MJKDNFFB@?$AA?$CI?$AAL?$AA?$CC?$AAS?$AAt?$AAr?$AAi?$AAn?$AAg?$AA?5?$AAi?$AAs?$AA?5?$AAn?$AAo@ 00000001400423b0     libucrtd:wcscat_s.obj
 0002:00006400       ??_C@_1CC@CHNFGJIC@?$AAc?$AAo?$AAm?$AAm?$AAo?$AAn?$AA_?$AAt?$AAc?$AAs?$AAn?$AAc?$AAp?$AAy?$AA_@ 0000000140042400     libucrtd:wcsncpy_s.obj
 0002:00006598       ??_C@_1CE@JMFACANE@?$AAr?$AAe?$AAs?$AAu?$AAl?$AAt?$AA?5?$AA?$CB?$AA?$DN?$AA?5?$AAn?$AAu?$AAl?$AAl?$AAp@ 0000000140042598     libucrtd:errno.obj
 0002:000065e8       ??_C@_0DI@DNFGFCIK@minkernel?2crts?2ucrt?2inc?2corecrt@ 00000001400425e8     libucrtd:argv_wildcards.obj
 0002:00006620       ??_C@_1HE@CEMHPOHH@?$AAm?$AAi?$AAn?$AAk?$AAe?$AAr?$AAn?$AAe?$AAl?$AA?2?$AAc?$AAr?$AAt?$AAs?$AA?2@ 0000000140042620     libucrtd:argv_wildcards.obj
 0002:00006698       ??_C@_1DK@IBFFOJGB@?$AAc?$AAo?$AAm?$AAm?$AAo?$AAn?$AA_?$AAe?$AAx?$AAp?$AAa?$AAn?$AAd?$AA_?$AAa@ 0000000140042698     libucrtd:argv_wildcards.obj
 0002:000066e0       ??_C@_1MC@FLPKOFON@?$AAt?$AAr?$AAa?$AAi?$AAt?$AAs?$AA?3?$AA?3?$AAt?$AAc?$AAs?$AAn?$AAc?$AAp?$AAy@ 00000001400426e0     libucrtd:argv_wildcards.obj
 0002:000067a8       ??_C@_0DK@FPFMIIJB@minkernel?2crts?2ucrt?2src?2appcrt?2@ 00000001400427a8     libucrtd:argv_wildcards.obj
 0002:000067f0       ??_C@_1EA@KOCCBLAD@?$AAc?$AAo?$AAp?$AAy?$AA_?$AAa?$AAn?$AAd?$AA_?$AAa?$AAd?$AAd?$AA_?$AAa?$AAr@ 00000001400427f0     libucrtd:argv_wildcards.obj
 0002:00006830       ??_C@_1KM@GDJIGAGL@?$AAt?$AAr?$AAa?$AAi?$AAt?$AAs?$AA?3?$AA?3?$AAt?$AAc?$AAs?$AAn?$AAc?$AAp?$AAy@ 0000000140042830     libucrtd:argv_wildcards.obj
 0002:000068e0       ??_C@_1PI@FGFLAGCC@?$AAt?$AAr?$AAa?$AAi?$AAt?$AAs?$AA?3?$AA?3?$AAt?$AAc?$AAs?$AAn?$AAc?$AAp?$AAy@ 00000001400428e0     libucrtd:argv_wildcards.obj
 0002:00006a20       ??_C@_1M@HPNHIDJI@?$AAj?$AAa?$AA?9?$AAJ?$AAP@ 0000000140042a20     libucrtd:mbctype.obj
 0002:00006a30       ??_C@_1M@BIBDDEMK@?$AAz?$AAh?$AA?9?$AAC?$AAN@ 0000000140042a30     libucrtd:mbctype.obj
 0002:00006a40       ??_C@_1M@JLOOOEGK@?$AAk?$AAo?$AA?9?$AAK?$AAR@ 0000000140042a40     libucrtd:mbctype.obj
 0002:00006a50       ??_C@_1M@CLNBBOPM@?$AAz?$AAh?$AA?9?$AAT?$AAW@ 0000000140042a50     libucrtd:mbctype.obj
 0002:00006a60       ??_C@_0DE@HGDKNBFD@minkernel?2crts?2ucrt?2src?2appcrt?2@ 0000000140042a60     libucrtd:mbctype.obj
 0002:00006aa0       ??_C@_0ED@BLPEHJAI@minkernel?2crts?2ucrt?2src?2desktop@ 0000000140042aa0     libucrtd:get_environment_from_os.obj
 0002:00006af0       ??_C@_1FO@NMANMHOD@?$AAc?$AAa?$AAc?$AAh?$AAe?$AAd?$AA_?$AAs?$AAt?$AAa?$AAt?$AAe?$AA?5?$AA?$DN?$AA?$DN@ 0000000140042af0     libucrtd:win_policies.obj
 0002:00006b50       ??_C@_1HC@GHLNKBJK@?$AAm?$AAi?$AAn?$AAk?$AAe?$AAr?$AAn?$AAe?$AAl?$AA?2?$AAc?$AAr?$AAt?$AAs?$AA?2@ 0000000140042b50     libucrtd:win_policies.obj
 0002:00006bc8       ??_C@_0DB@JFFPGLDM@minkernel?2crts?2ucrt?2src?2appcrt?2@ 0000000140042bc8     libucrtd:osfinfo.obj
 0002:00006c00       ??_C@_1EM@BPODPNEJ@?$AAs?$AAt?$AAa?$AAt?$AAi?$AAc?$AA_?$AAc?$AAa?$AAs?$AAt?$AA?$DM?$AAu?$AAn?$AAs@ 0000000140042c00     libucrtd:osfinfo.obj
 0002:00006c50       ??_C@_1GC@LDGKBAFM@?$AAm?$AAi?$AAn?$AAk?$AAe?$AAr?$AAn?$AAe?$AAl?$AA?2?$AAc?$AAr?$AAt?$AAs?$AA?2@ 0000000140042c50     libucrtd:osfinfo.obj
 0002:00006cb8       ??_C@_1DM@JELNOMLN@?$AA_?$AA_?$AAa?$AAc?$AAr?$AAt?$AA_?$AAl?$AAo?$AAw?$AAi?$AAo?$AA_?$AAe?$AAn@ 0000000140042cb8     libucrtd:osfinfo.obj
 0002:00006d00       ??_C@_1FK@MGHFJLAL@?$AAf?$AAh?$AA?5?$AA?$DO?$AA?$DN?$AA?5?$AA0?$AA?5?$AA?$CG?$AA?$CG?$AA?5?$AA?$CI?$AAu?$AAn?$AAs@ 0000000140042d00     libucrtd:osfinfo.obj
 0002:00006d60       ??_C@_1BO@EMBOBGKE@?$AA_?$AAg?$AAe?$AAt?$AA_?$AAo?$AAs?$AAf?$AAh?$AAa?$AAn?$AAd?$AAl?$AAe@ 0000000140042d60     libucrtd:osfinfo.obj
 0002:00006d80       ??_C@_1CI@ILOIOBLM@?$AA_?$AAo?$AAs?$AAf?$AAi?$AAl?$AAe?$AA?$CI?$AAf?$AAh?$AA?$CJ?$AA?5?$AA?$CG?$AA?5?$AAF@ 0000000140042d80     libucrtd:osfinfo.obj
 0002:00006db0       __lc_time_c                0000000140042db0     libucrtd:nlsdata.obj
 0002:00007070       ??_C@_03KOEHGMDN@Sun@      0000000140043070     libucrtd:nlsdata.obj
 0002:00007074       ??_C@_03PDAGKDH@Mon@       0000000140043074     libucrtd:nlsdata.obj
 0002:00007078       ??_C@_03NAGEINEP@Tue@      0000000140043078     libucrtd:nlsdata.obj
 0002:0000707c       ??_C@_03MHOMLAJA@Wed@      000000014004307c     libucrtd:nlsdata.obj
 0002:00007080       ??_C@_03IOFIKPDN@Thu@      0000000140043080     libucrtd:nlsdata.obj
 0002:00007084       ??_C@_03IDIOELNC@Fri@      0000000140043084     libucrtd:nlsdata.obj
 0002:00007088       ??_C@_03FEFJNEK@Sat@       0000000140043088     libucrtd:nlsdata.obj
 0002:0000708c       ??_C@_06OOPIFAJ@Sunday@    000000014004308c     libucrtd:nlsdata.obj
 0002:00007094       ??_C@_06JLEDEDGH@Monday@   0000000140043094     libucrtd:nlsdata.obj
 0002:000070a0       ??_C@_07BAAGCFCM@Tuesday@  00000001400430a0     libucrtd:nlsdata.obj
 0002:000070a8       ??_C@_09DLIGFAKA@Wednesday@ 00000001400430a8     libucrtd:nlsdata.obj
 0002:000070b8       ??_C@_08HACCIKIA@Thursday@ 00000001400430b8     libucrtd:nlsdata.obj
 0002:000070c4       ??_C@_06JECMNKMI@Friday@   00000001400430c4     libucrtd:nlsdata.obj
 0002:000070d0       ??_C@_08INBOOONO@Saturday@ 00000001400430d0     libucrtd:nlsdata.obj
 0002:000070dc       ??_C@_03JIHJHPIE@Jan@      00000001400430dc     libucrtd:nlsdata.obj
 0002:000070e0       ??_C@_03HJBDCHOM@Feb@      00000001400430e0     libucrtd:nlsdata.obj
 0002:000070e4       ??_C@_03ODNJBKGA@Mar@      00000001400430e4     libucrtd:nlsdata.obj
 0002:000070e8       ??_C@_03LEOLGMJP@Apr@      00000001400430e8     libucrtd:nlsdata.obj
 0002:000070ec       ??_C@_03CNMDKL@May@        00000001400430ec     libucrtd:nlsdata.obj
 0002:000070f0       ??_C@_03IDFGHECI@Jun@      00000001400430f0     libucrtd:nlsdata.obj
 0002:000070f4       ??_C@_03LBGABGKK@Jul@      00000001400430f4     libucrtd:nlsdata.obj
 0002:000070f8       ??_C@_03IFJFEIGA@Aug@      00000001400430f8     libucrtd:nlsdata.obj
 0002:000070fc       ??_C@_03GGCAPAJC@Sep@      00000001400430fc     libucrtd:nlsdata.obj
 0002:00007100       ??_C@_03BMAOKBAD@Oct@      0000000140043100     libucrtd:nlsdata.obj
 0002:00007104       ??_C@_03JPJOFNIA@Nov@      0000000140043104     libucrtd:nlsdata.obj
 0002:00007108       ??_C@_03MKABNOCG@Dec@      0000000140043108     libucrtd:nlsdata.obj
 0002:00007110       ??_C@_07CGJPFGJA@January@  0000000140043110     libucrtd:nlsdata.obj
 0002:00007118       ??_C@_08GNJGEPFN@February@ 0000000140043118     libucrtd:nlsdata.obj
 0002:00007124       ??_C@_05HPCKOFNC@March@    0000000140043124     libucrtd:nlsdata.obj
 0002:0000712c       ??_C@_05DMJDNLEJ@April@    000000014004312c     libucrtd:nlsdata.obj
 0002:00007134       ??_C@_04CNLMGBGM@June@     0000000140043134     libucrtd:nlsdata.obj
 0002:0000713c       ??_C@_04MIEPOIFP@July@     000000014004313c     libucrtd:nlsdata.obj
 0002:00007144       ??_C@_06LBBHFDDG@August@   0000000140043144     libucrtd:nlsdata.obj
 0002:00007150       ??_C@_09BHHEALKD@September@ 0000000140043150     libucrtd:nlsdata.obj
 0002:00007160       ??_C@_07JJNFCEND@October@  0000000140043160     libucrtd:nlsdata.obj
 0002:00007168       ??_C@_08HCHEGEOA@November@ 0000000140043168     libucrtd:nlsdata.obj
 0002:00007178       ??_C@_08EDHMEBNP@December@ 0000000140043178     libucrtd:nlsdata.obj
 0002:00007184       ??_C@_02DEDBPAFC@AM@       0000000140043184     libucrtd:nlsdata.obj
 0002:00007188       ??_C@_02CJNFDJBF@PM@       0000000140043188     libucrtd:nlsdata.obj
 0002:00007190       ??_C@_08BPBNCDIB@MM?1dd?1yy@ 0000000140043190     libucrtd:nlsdata.obj
 0002:000071a0       ??_C@_0BE@CKGJFCPC@dddd?0?5MMMM?5dd?0?5yyyy@ 00000001400431a0     libucrtd:nlsdata.obj
 0002:000071b8       ??_C@_08JCCMCCIL@HH?3mm?3ss@ 00000001400431b8     libucrtd:nlsdata.obj
 0002:000071c8       ??_C@_17MBGCMIPB@?$AAS?$AAu?$AAn@ 00000001400431c8     libucrtd:nlsdata.obj
 0002:000071d0       ??_C@_17KBOMKBF@?$AAM?$AAo?$AAn@ 00000001400431d0     libucrtd:nlsdata.obj
 0002:000071d8       ??_C@_17BMKGEGOJ@?$AAT?$AAu?$AAe@ 00000001400431d8     libucrtd:nlsdata.obj
 0002:000071e0       ??_C@_17CJEDCEPE@?$AAW?$AAe?$AAd@ 00000001400431e0     libucrtd:nlsdata.obj
 0002:000071e8       ??_C@_17PDPHAADD@?$AAT?$AAh?$AAu@ 00000001400431e8     libucrtd:nlsdata.obj
 0002:000071f0       ??_C@_17HFOLPPLP@?$AAF?$AAr?$AAi@ 00000001400431f0     libucrtd:nlsdata.obj
 0002:000071f8       ??_C@_17GGIBDPIH@?$AAS?$AAa?$AAt@ 00000001400431f8     libucrtd:nlsdata.obj
 0002:00007200       ??_C@_1O@IHNHDHPB@?$AAS?$AAu?$AAn?$AAd?$AAa?$AAy@ 0000000140043200     libucrtd:nlsdata.obj
 0002:00007210       ??_C@_1O@MMNBFLIA@?$AAM?$AAo?$AAn?$AAd?$AAa?$AAy@ 0000000140043210     libucrtd:nlsdata.obj
 0002:00007220       ??_C@_1BA@ENFBFFEK@?$AAT?$AAu?$AAe?$AAs?$AAd?$AAa?$AAy@ 0000000140043220     libucrtd:nlsdata.obj
 0002:00007230       ??_C@_1BE@EBOGMDOH@?$AAW?$AAe?$AAd?$AAn?$AAe?$AAs?$AAd?$AAa?$AAy@ 0000000140043230     libucrtd:nlsdata.obj
 0002:00007248       ??_C@_1BC@HHMNLIHE@?$AAT?$AAh?$AAu?$AAr?$AAs?$AAd?$AAa?$AAy@ 0000000140043248     libucrtd:nlsdata.obj
 0002:00007260       ??_C@_1O@PDICJHAG@?$AAF?$AAr?$AAi?$AAd?$AAa?$AAy@ 0000000140043260     libucrtd:nlsdata.obj
 0002:00007270       ??_C@_1BC@ENMNNPAJ@?$AAS?$AAa?$AAt?$AAu?$AAr?$AAd?$AAa?$AAy@ 0000000140043270     libucrtd:nlsdata.obj
 0002:00007288       ??_C@_17DKNBKCHM@?$AAJ?$AAa?$AAn@ 0000000140043288     libucrtd:nlsdata.obj
 0002:00007290       ??_C@_17LMDJEKJN@?$AAF?$AAe?$AAb@ 0000000140043290     libucrtd:nlsdata.obj
 0002:00007298       ??_C@_17CKNLEDEC@?$AAM?$AAa?$AAr@ 0000000140043298     libucrtd:nlsdata.obj
 0002:000072a0       ??_C@_17LFPOIHDD@?$AAA?$AAp?$AAr@ 00000001400432a0     libucrtd:nlsdata.obj
 0002:000072a8       ??_C@_17PNNKMEED@?$AAM?$AAa?$AAy@ 00000001400432a8     libucrtd:nlsdata.obj
 0002:000072b0       ??_C@_17KCJGOCPB@?$AAJ?$AAu?$AAn@ 00000001400432b0     libucrtd:nlsdata.obj
 0002:000072b8       ??_C@_17IJPCKHK@?$AAJ?$AAu?$AAl@ 00000001400432b8     libucrtd:nlsdata.obj
 0002:000072c0       ??_C@_17ICPELBCN@?$AAA?$AAu?$AAg@ 00000001400432c0     libucrtd:nlsdata.obj
 0002:000072c8       ??_C@_17HCHCOKMG@?$AAS?$AAe?$AAp@ 00000001400432c8     libucrtd:nlsdata.obj
 0002:000072d0       ??_C@_17FNLKOI@?$AAO?$AAc?$AAt@ 00000001400432d0     libucrtd:nlsdata.obj
 0002:000072d8       ??_C@_17BBDMLCIG@?$AAN?$AAo?$AAv@ 00000001400432d8     libucrtd:nlsdata.obj
 0002:000072e0       ??_C@_17EGKACKIF@?$AAD?$AAe?$AAc@ 00000001400432e0     libucrtd:nlsdata.obj
 0002:000072e8       ??_C@_1BA@EFMEIEBA@?$AAJ?$AAa?$AAn?$AAu?$AAa?$AAr?$AAy@ 00000001400432e8     libucrtd:nlsdata.obj
 0002:000072f8       ??_C@_1BC@JGDDFFAM@?$AAF?$AAe?$AAb?$AAr?$AAu?$AAa?$AAr?$AAy@ 00000001400432f8     libucrtd:nlsdata.obj
 0002:00007310       ??_C@_1M@IKEENEDF@?$AAM?$AAa?$AAr?$AAc?$AAh@ 0000000140043310     libucrtd:nlsdata.obj
 0002:00007320       ??_C@_1M@GJNLMHFD@?$AAA?$AAp?$AAr?$AAi?$AAl@ 0000000140043320     libucrtd:nlsdata.obj
 0002:00007330       ??_C@_19EPFLPGAP@?$AAJ?$AAu?$AAn?$AAe@ 0000000140043330     libucrtd:nlsdata.obj
 0002:00007340       ??_C@_19BIFMLPCD@?$AAJ?$AAu?$AAl?$AAy@ 0000000140043340     libucrtd:nlsdata.obj
 0002:00007350       ??_C@_1O@PAHLKOAC@?$AAA?$AAu?$AAg?$AAu?$AAs?$AAt@ 0000000140043350     libucrtd:nlsdata.obj
 0002:00007360       ??_C@_1BE@DKAAMBJL@?$AAS?$AAe?$AAp?$AAt?$AAe?$AAm?$AAb?$AAe?$AAr@ 0000000140043360     libucrtd:nlsdata.obj
 0002:00007378       ??_C@_1BA@EPANDLNG@?$AAO?$AAc?$AAt?$AAo?$AAb?$AAe?$AAr@ 0000000140043378     libucrtd:nlsdata.obj
 0002:00007388       ??_C@_1BC@BGLIFPF@?$AAN?$AAo?$AAv?$AAe?$AAm?$AAb?$AAe?$AAr@ 0000000140043388     libucrtd:nlsdata.obj
 0002:000073a0       ??_C@_1BC@FEMKIFH@?$AAD?$AAe?$AAc?$AAe?$AAm?$AAb?$AAe?$AAr@ 00000001400433a0     libucrtd:nlsdata.obj
 0002:000073b4       ??_C@_15ODEHAHHF@?$AAA?$AAM@ 00000001400433b4     libucrtd:nlsdata.obj
 0002:000073bc       ??_C@_15CLMNNGEL@?$AAP?$AAM@ 00000001400433bc     libucrtd:nlsdata.obj
 0002:000073c8       ??_C@_1BC@IEBCMHCM@?$AAM?$AAM?$AA?1?$AAd?$AAd?$AA?1?$AAy?$AAy@ 00000001400433c8     libucrtd:nlsdata.obj
 0002:000073e0       ??_C@_1CI@KNAKOEBC@?$AAd?$AAd?$AAd?$AAd?$AA?0?$AA?5?$AAM?$AAM?$AAM?$AAM?$AA?5?$AAd?$AAd?$AA?0?$AA?5@ 00000001400433e0     libucrtd:nlsdata.obj
 0002:00007408       ??_C@_1BC@GDGBMEMK@?$AAH?$AAH?$AA?3?$AAm?$AAm?$AA?3?$AAs?$AAs@ 0000000140043408     libucrtd:nlsdata.obj
 0002:00007420       ??_C@_1M@BMHNFIME@?$AAe?$AAn?$AA?9?$AAU?$AAS@ 0000000140043420     libucrtd:nlsdata.obj
 0002:00007430       __newctype                 0000000140043430     libucrtd:ctype.obj
 0002:00007730       __newclmap                 0000000140043730     libucrtd:ctype.obj
 0002:000078b0       __newcumap                 00000001400438b0     libucrtd:ctype.obj
 0002:00007a30       _wctype                    0000000140043a30     libucrtd:ctype.obj
 0002:00007c38       ??_C@_1CI@JELMFMDH@?$AAc?$AA?5?$AA?$DO?$AA?$DN?$AA?5?$AA?9?$AA1?$AA?5?$AA?$CG?$AA?$CG?$AA?5?$AAc?$AA?5?$AA?$DM?$AA?$DN@ 0000000140043c38     libucrtd:isctype.obj
 0002:00007c60       ??_C@_1GG@KPBGDFHJ@?$AAm?$AAi?$AAn?$AAk?$AAe?$AAr?$AAn?$AAe?$AAl?$AA?2?$AAc?$AAr?$AAt?$AAs?$AA?2@ 0000000140043c60     libucrtd:isctype.obj
 0002:00007cd0       ??_C@_1FE@KNPCCODH@?$AA?$CI?$AA?$CC?$AAC?$AAo?$AAr?$AAr?$AAu?$AAp?$AAt?$AAe?$AAd?$AA?5?$AAp?$AAo?$AAi@ 0000000140043cd0     libucrtd:getstringtypea.obj
 0002:00007d30       ??_C@_1EM@GPJLADAA@?$AAV?$AAC?$AAC?$AAR?$AAT?$AA?2?$AAv?$AAc?$AAr?$AAu?$AAn?$AAt?$AAi?$AAm?$AAe@ 0000000140043d30     libucrtd:getstringtypea.obj
 0002:00007d80       ??_C@_0DJ@HCPJODDK@minkernel?2crts?2ucrt?2src?2appcrt?2@ 0000000140043d80     libucrtd:getstringtypea.obj
 0002:00007dc0       ??_C@_1BKC@NBNHJIDM@?$AA?$CI?$AAp?$AAt?$AAl?$AAo?$AAc?$AAi?$AA?9?$AA?$DO?$AAl?$AAc?$AA_?$AAc?$AAa?$AAt@ 0000000140043dc0     libucrtd:locale_refcounting.obj
 0002:00007f70       ??_C@_1HK@HCNMEOLA@?$AAm?$AAi?$AAn?$AAk?$AAe?$AAr?$AAn?$AAe?$AAl?$AA?2?$AAc?$AAr?$AAt?$AAs?$AA?2@ 0000000140043f70     libucrtd:locale_refcounting.obj
 0002:00007fec       ??_C@_15PJPFLCCM@?$AAu?$AAk@ 0000000140043fec     libucrtd:get_qualified_locale.obj
 0002:000080a0       ??_C@_1EA@JGEFHKEI@?$AAa?$AAp?$AAi?$AA?9?$AAm?$AAs?$AA?9?$AAw?$AAi?$AAn?$AA?9?$AAc?$AAo?$AAr?$AAe@ 00000001400440a0     libucrtd:winapi_thunks.obj
 0002:000080e0       ??_C@_1DI@IJCEHOCB@?$AAa?$AAp?$AAi?$AA?9?$AAm?$AAs?$AA?9?$AAw?$AAi?$AAn?$AA?9?$AAc?$AAo?$AAr?$AAe@ 00000001400440e0     libucrtd:winapi_thunks.obj
 0002:00008120       ??_C@_1EI@MPIAOHOC@?$AAa?$AAp?$AAi?$AA?9?$AAm?$AAs?$AA?9?$AAw?$AAi?$AAn?$AA?9?$AAc?$AAo?$AAr?$AAe@ 0000000140044120     libucrtd:winapi_thunks.obj
 0002:00008170       ??_C@_1FK@FPHCKFIE@?$AAa?$AAp?$AAi?$AA?9?$AAm?$AAs?$AA?9?$AAw?$AAi?$AAn?$AA?9?$AAc?$AAo?$AAr?$AAe@ 0000000140044170     libucrtd:winapi_thunks.obj
 0002:000081d0       ??_C@_1EM@DILCGIIO@?$AAa?$AAp?$AAi?$AA?9?$AAm?$AAs?$AA?9?$AAw?$AAi?$AAn?$AA?9?$AAc?$AAo?$AAr?$AAe@ 00000001400441d0     libucrtd:winapi_thunks.obj
 0002:00008220       ??_C@_1DM@LNCGDDPN@?$AAa?$AAp?$AAi?$AA?9?$AAm?$AAs?$AA?9?$AAw?$AAi?$AAn?$AA?9?$AAc?$AAo?$AAr?$AAe@ 0000000140044220     libucrtd:winapi_thunks.obj
 0002:00008260       ??_C@_1DO@FPAPJEMD@?$AAa?$AAp?$AAi?$AA?9?$AAm?$AAs?$AA?9?$AAw?$AAi?$AAn?$AA?9?$AAc?$AAo?$AAr?$AAe@ 0000000140044260     libucrtd:winapi_thunks.obj
 0002:000082a0       ??_C@_1DK@NDHNAHIO@?$AAa?$AAp?$AAi?$AA?9?$AAm?$AAs?$AA?9?$AAw?$AAi?$AAn?$AA?9?$AAc?$AAo?$AAr?$AAe@ 00000001400442a0     libucrtd:winapi_thunks.obj
 0002:000082e0       ??_C@_1DM@KGHDGBCM@?$AAa?$AAp?$AAi?$AA?9?$AAm?$AAs?$AA?9?$AAw?$AAi?$AAn?$AA?9?$AAc?$AAo?$AAr?$AAe@ 00000001400442e0     libucrtd:winapi_thunks.obj
 0002:00008320       ??_C@_1EO@IJIOEFOH@?$AAa?$AAp?$AAi?$AA?9?$AAm?$AAs?$AA?9?$AAw?$AAi?$AAn?$AA?9?$AAr?$AAt?$AAc?$AAo@ 0000000140044320     libucrtd:winapi_thunks.obj
 0002:00008370       ??_C@_1FG@HHGEKANL@?$AAa?$AAp?$AAi?$AA?9?$AAm?$AAs?$AA?9?$AAw?$AAi?$AAn?$AA?9?$AAs?$AAe?$AAc?$AAu@ 0000000140044370     libucrtd:winapi_thunks.obj
 0002:000083d0       ??_C@_1EG@DBIOJECG@?$AAe?$AAx?$AAt?$AA?9?$AAm?$AAs?$AA?9?$AAw?$AAi?$AAn?$AA?9?$AAn?$AAt?$AAu?$AAs@ 00000001400443d0     libucrtd:winapi_thunks.obj
 0002:00008420       ??_C@_1EO@FIHMJCLF@?$AAe?$AAx?$AAt?$AA?9?$AAm?$AAs?$AA?9?$AAw?$AAi?$AAn?$AA?9?$AAn?$AAt?$AAu?$AAs@ 0000000140044420     libucrtd:winapi_thunks.obj
 0002:00008470       ??_C@_1BC@DNHGCMLG@?$AAa?$AAd?$AAv?$AAa?$AAp?$AAi?$AA3?$AA2@ 0000000140044470     libucrtd:winapi_thunks.obj
 0002:00008488       ??_C@_1M@OAIMIKLP@?$AAn?$AAt?$AAd?$AAl?$AAl@ 0000000140044488     libucrtd:winapi_thunks.obj
 0002:000084a0       ??_C@_1EG@DPGNFKGC@?$AAa?$AAp?$AAi?$AA?9?$AAm?$AAs?$AA?9?$AAw?$AAi?$AAn?$AA?9?$AAa?$AAp?$AAp?$AAm@ 00000001400444a0     libucrtd:winapi_thunks.obj
 0002:000084e8       ??_C@_1O@BCCLBEOE@?$AAu?$AAs?$AAe?$AAr?$AA3?$AA2@ 00000001400444e8     libucrtd:winapi_thunks.obj
 0002:000084f8       ??_C@_1BA@IAIFMGEF@?$AAe?$AAx?$AAt?$AA?9?$AAm?$AAs?$AA?9@ 00000001400444f8     libucrtd:winapi_thunks.obj
 0002:00008510       ??_C@_1HE@OILMBOBA@?$AAm?$AAi?$AAn?$AAk?$AAe?$AAr?$AAn?$AAe?$AAl?$AA?2?$AAc?$AAr?$AAt?$AAs?$AA?2@ 0000000140044510     libucrtd:winapi_thunks.obj
 0002:00008588       ??_C@_0BA@FHFNEAED@AreFileApisANSI@ 0000000140044588     libucrtd:winapi_thunks.obj
 0002:000085c0       ??_C@_0BA@HNOPNCHB@GetActiveWindow@ 00000001400445c0     libucrtd:winapi_thunks.obj
 0002:000085d8       ??_C@_0BD@HHGDFDBJ@GetLastActivePopup@ 00000001400445d8     libucrtd:winapi_thunks.obj
 0002:000085f8       ??_C@_0BI@DFKBFLJE@GetProcessWindowStation@ 00000001400445f8     libucrtd:winapi_thunks.obj
 0002:00008618       ??_C@_0BK@DEKFELLI@GetUserObjectInformationW@ 0000000140044618     libucrtd:winapi_thunks.obj
 0002:00008648       ??_C@_0O@KKBNKAPF@LCMapStringEx@ 0000000140044648     libucrtd:winapi_thunks.obj
 0002:00008660       ??_C@_0BB@HBDEELFH@LocaleNameToLCID@ 0000000140044660     libucrtd:winapi_thunks.obj
 0002:00008680       ??_C@_0M@CHKKJDAI@MessageBoxA@ 0000000140044680     libucrtd:winapi_thunks.obj
 0002:00008698       ??_C@_0M@DLDCCGNP@MessageBoxW@ 0000000140044698     libucrtd:winapi_thunks.obj
 0002:000086a8       ??_C@_0CF@OJOFEIGO@AppPolicyGetProcessTerminationM@ 00000001400446a8     libucrtd:winapi_thunks.obj
 0002:000086d8       ??_C@_0CE@OICFMIKE@AppPolicyGetShowDeveloperDiagno@ 00000001400446d8     libucrtd:winapi_thunks.obj
 0002:00008700       ??_C@_0BL@ODDJNEDA@AppPolicyGetWindowingModel@ 0000000140044700     libucrtd:winapi_thunks.obj
 0002:00008720       ??_C@_1DA@NBILLKNO@?$AAl?$AAo?$AAc?$AAa?$AAl?$AA_?$AAa?$AAc?$AAt?$AAi?$AAo?$AAn?$AA?5?$AA?$CB?$AA?$DN@ 0000000140044720     libucrtd:signal.obj
 0002:00008750       ??_C@_1FO@CCGDPEKE@?$AAm?$AAi?$AAn?$AAk?$AAe?$AAr?$AAn?$AAe?$AAl?$AA?2?$AAc?$AAr?$AAt?$AAs?$AA?2@ 0000000140044750     libucrtd:signal.obj
 0002:000087b0       ??_C@_1M@DMJEIKHL@?$AAr?$AAa?$AAi?$AAs?$AAe@ 00000001400447b0     libucrtd:signal.obj
 0002:000087c0       ??_C@_1DO@MLNEDKGB@?$AA?$CI?$AA?$CC?$AAI?$AAn?$AAv?$AAa?$AAl?$AAi?$AAd?$AA?5?$AAs?$AAi?$AAg?$AAn?$AAa@ 00000001400447c0     libucrtd:signal.obj
 0002:00008800       ??_C@_1DC@OGOLMDEL@?$AAp?$AAu?$AAb?$AAl?$AAi?$AAc?$AA_?$AAs?$AAt?$AAr?$AAe?$AAa?$AAm?$AA?5?$AA?$CB@ 0000000140044800     libucrtd:_sftbuf.obj
 0002:00008840       ??_C@_1FO@GEKPJHID@?$AAm?$AAi?$AAn?$AAk?$AAe?$AAr?$AAn?$AAe?$AAl?$AA?2?$AAc?$AAr?$AAt?$AAs?$AA?2@ 0000000140044840     libucrtd:expand.obj
 0002:000088a0       ??_C@_1BK@JMCGJOCC@?$AA_?$AAe?$AAx?$AAp?$AAa?$AAn?$AAd?$AA_?$AAb?$AAa?$AAs?$AAe@ 00000001400448a0     libucrtd:expand.obj
 0002:000088c0       ??_C@_1BBC@DECGKMGJ@?$AA_?$AAl?$AAo?$AAc?$AA_?$AAu?$AAp?$AAd?$AAa?$AAt?$AAe?$AA?4?$AAG?$AAe?$AAt@ 00000001400448c0     libucrtd:mbtowc.obj
 0002:000089e0       ??_C@_1GE@CGIHMDEJ@?$AAm?$AAi?$AAn?$AAk?$AAe?$AAr?$AAn?$AAe?$AAl?$AA?2?$AAc?$AAr?$AAt?$AAs?$AA?2@ 00000001400449e0     libucrtd:mbtowc.obj
 0002:00008a50       ??_C@_1HA@KNBGJAIN@?$AAU?$AAT?$AAF?$AA?9?$AA8?$AA?5?$AAi?$AAs?$AAn?$AA?8?$AAt?$AA?5?$AAs?$AAu?$AAp@ 0000000140044a50     libucrtd:mbtowc.obj
 0002:00008ac0       ??_C@_1BBA@EIIJPPL@?$AA_?$AAl?$AAo?$AAc?$AA_?$AAu?$AAp?$AAd?$AAa?$AAt?$AAe?$AA?4?$AAG?$AAe?$AAt@ 0000000140044ac0     libucrtd:mbtowc.obj
 0002:00008bd0       ??_C@_1IE@CDCHDACI@?$AA_?$AAl?$AAo?$AAc?$AA_?$AAu?$AAp?$AAd?$AAa?$AAt?$AAe?$AA?4?$AAG?$AAe?$AAt@ 0000000140044bd0     libucrtd:mbtowc.obj
 0002:00008c58       ??_C@_1DK@NBNOAGKB@?$AAd?$AAe?$AAs?$AAt?$AAi?$AAn?$AAa?$AAt?$AAi?$AAo?$AAn?$AA_?$AAc?$AAo?$AAu@ 0000000140044c58     libucrtd:wctomb.obj
 0002:00008ca0       ??_C@_1GE@FCCEPHFG@?$AAm?$AAi?$AAn?$AAk?$AAe?$AAr?$AAn?$AAe?$AAl?$AA?2?$AAc?$AAr?$AAt?$AAs?$AA?2@ 0000000140044ca0     libucrtd:wctomb.obj
 0002:00008d08       ??_C@_1BI@IEADNOHF@?$AA_?$AAw?$AAc?$AAt?$AAo?$AAm?$AAb?$AA_?$AAs?$AA_?$AAl@ 0000000140044d08     libucrtd:wctomb.obj
 0002:00008d20       ??_C@_1CM@ENFEGCNE@?$AAd?$AAe?$AAs?$AAt?$AAi?$AAn?$AAa?$AAt?$AAi?$AAo?$AAn?$AA_?$AAc?$AAo?$AAu@ 0000000140044d20     libucrtd:wctomb.obj
 0002:00008e00       ??_C@_03OEIAHPBN@INF@      0000000140044e00     libucrtd:cvt.obj
 0002:00008e04       ??_C@_03OJHLLCGB@inf@      0000000140044e04     libucrtd:cvt.obj
 0002:00008e08       ??_C@_03LKNCIKJB@NAN@      0000000140044e08     libucrtd:cvt.obj
 0002:00008e0c       ??_C@_03LHCJEHON@nan@      0000000140044e0c     libucrtd:cvt.obj
 0002:00008e10       ??_C@_09OFJJIMPC@NAN?$CISNAN?$CJ@ 0000000140044e10     libucrtd:cvt.obj
 0002:00008e20       ??_C@_09IPFBKMDL@nan?$CIsnan?$CJ@ 0000000140044e20     libucrtd:cvt.obj
 0002:00008e30       ??_C@_08IKHNHAJ@NAN?$CIIND?$CJ@ 0000000140044e30     libucrtd:cvt.obj
 0002:00008e40       ??_C@_08OFCDMILK@nan?$CIind?$CJ@ 0000000140044e40     libucrtd:cvt.obj
 0002:00008e50       ??_C@_1FO@GKAKAPLI@?$AAm?$AAi?$AAn?$AAk?$AAe?$AAr?$AAn?$AAe?$AAl?$AA?2?$AAc?$AAr?$AAt?$AAs?$AA?2@ 0000000140044e50     libucrtd:cvt.obj
 0002:00008eb0       ??_C@_1DE@EHGIGIDK@?$AAf?$AAp?$AA_?$AAf?$AAo?$AAr?$AAm?$AAa?$AAt?$AA_?$AAn?$AAa?$AAn?$AA_?$AAo@ 0000000140044eb0     libucrtd:cvt.obj
 0002:00008ef0       ??_C@_1LI@PCMLJPCO@?$AAs?$AAt?$AAr?$AAc?$AAp?$AAy?$AA_?$AAs?$AA?$CI?$AA?5?$AAr?$AAe?$AAs?$AAu?$AAl@ 0000000140044ef0     libucrtd:cvt.obj
 0002:00008fb0       ??_C@_1KO@LJHOFBCD@?$AAr?$AAe?$AAs?$AAu?$AAl?$AAt?$AA_?$AAb?$AAu?$AAf?$AAf?$AAe?$AAr?$AA_?$AAc@ 0000000140044fb0     libucrtd:cvt.obj
 0002:00009060       ??_C@_1CK@BOLHOMFO@?$AAf?$AAp?$AA_?$AAf?$AAo?$AAr?$AAm?$AAa?$AAt?$AA_?$AAe?$AA_?$AAi?$AAn?$AAt@ 0000000140045060     libucrtd:cvt.obj
 0002:00009090       ??_C@_1BBE@LHDOMEDC@?$AAs?$AAt?$AAr?$AAc?$AAp?$AAy?$AA_?$AAs?$AA?$CI?$AA?5?$AAp?$AA?0?$AA?5?$AAr?$AAe@ 0000000140045090     libucrtd:cvt.obj
 0002:000091a4       ??_C@_05KLBDPFGC@e?$CL000@ 00000001400451a4     libucrtd:cvt.obj
 0002:000091b0       ??_C@_1IC@FILKPBAB@?$AAr?$AAe?$AAs?$AAu?$AAl?$AAt?$AA_?$AAb?$AAu?$AAf?$AAf?$AAe?$AAr?$AA_?$AAc@ 00000001400451b0     libucrtd:cvt.obj
 0002:00009238       ??_C@_1BI@PNBDLNBB@?$AAf?$AAp?$AA_?$AAf?$AAo?$AAr?$AAm?$AAa?$AAt?$AA_?$AAa@ 0000000140045238     libucrtd:cvt.obj
 0002:00009250       ??_C@_1DC@MGKAFPFD@?$AAr?$AAe?$AAs?$AAu?$AAl?$AAt?$AA_?$AAb?$AAu?$AAf?$AAf?$AAe?$AAr?$AA?5?$AA?$CB@ 0000000140045250     libucrtd:cvt.obj
 0002:00009288       ??_C@_1CC@LDAHJAKK@?$AA_?$AA_?$AAa?$AAc?$AAr?$AAt?$AA_?$AAf?$AAp?$AA_?$AAf?$AAo?$AAr?$AAm?$AAa@ 0000000140045288     libucrtd:cvt.obj
 0002:000092b0       ??_C@_1DA@NMLJJOCO@?$AAr?$AAe?$AAs?$AAu?$AAl?$AAt?$AA_?$AAb?$AAu?$AAf?$AAf?$AAe?$AAr?$AA_?$AAc@ 00000001400452b0     libucrtd:cvt.obj
 0002:000092e0       ??_C@_1DE@MNOPBCOK@?$AAs?$AAc?$AAr?$AAa?$AAt?$AAc?$AAh?$AA_?$AAb?$AAu?$AAf?$AAf?$AAe?$AAr?$AA?5@ 00000001400452e0     libucrtd:cvt.obj
 0002:00009318       ??_C@_1DC@CKBKNFKH@?$AAs?$AAc?$AAr?$AAa?$AAt?$AAc?$AAh?$AA_?$AAb?$AAu?$AAf?$AAf?$AAe?$AAr?$AA_@ 0000000140045318     libucrtd:cvt.obj
 0002:00009350       ??_C@_1EI@JAHBOGIM@?$AA?$CI?$AA?$CC?$AAU?$AAn?$AAs?$AAu?$AAp?$AAp?$AAo?$AAr?$AAt?$AAe?$AAd?$AA?5?$AAf@ 0000000140045350     libucrtd:cvt.obj
 0002:00009398       ??_C@_1BO@MHPFFFJJ@?$AAs?$AAt?$AAr?$AAe?$AAa?$AAm?$AA?4?$AAv?$AAa?$AAl?$AAi?$AAd?$AA?$CI?$AA?$CJ@ 0000000140045398     libucrtd:fileno.obj
 0002:000093c0       ??_C@_1GA@KCAHHNGP@?$AAm?$AAi?$AAn?$AAk?$AAe?$AAr?$AAn?$AAe?$AAl?$AA?2?$AAc?$AAr?$AAt?$AAs?$AA?2@ 00000001400453c0     libucrtd:fileno.obj
 0002:00009420       ??_C@_1BA@JGHIEKKM@?$AA_?$AAf?$AAi?$AAl?$AAe?$AAn?$AAo@ 0000000140045420     libucrtd:fileno.obj
 0002:00009430       ??_C@_0CP@GDJHIDC@minkernel?2crts?2ucrt?2src?2appcrt?2@ 0000000140045430     libucrtd:_file.obj
 0002:00009460       ??_C@_1GA@LFAOKOOP@?$AAm?$AAi?$AAn?$AAk?$AAe?$AAr?$AAn?$AAe?$AAl?$AA?2?$AAc?$AAr?$AAt?$AAs?$AA?2@ 0000000140045460     libucrtd:dbgrptt.obj
 0002:000094c0       ??_C@_1CA@KHJHLKA@?$AA_?$AAV?$AAC?$AAr?$AAt?$AAD?$AAb?$AAg?$AAR?$AAe?$AAp?$AAo?$AAr?$AAt?$AAA@ 00000001400454c0     libucrtd:dbgrptt.obj
 0002:000094e0       ??_C@_1FA@JPHJBHEM@?$AA_?$AAi?$AAt?$AAo?$AAa?$AA_?$AAs?$AA?$CI?$AAn?$AAL?$AAi?$AAn?$AAe?$AA?0?$AA?5@ 00000001400454e0     libucrtd:dbgrptt.obj
 0002:00009530       ??_C@_0CG@BNGLOCEO@Second?5Chance?5Assertion?5Failed?3@ 0000000140045530     libucrtd:dbgrptt.obj
 0002:00009558       ??_C@_0P@DFJNDPOP@?$DMfile?5unknown?$DO@ 0000000140045558     libucrtd:dbgrptt.obj
 0002:00009568       ??_C@_07BHGABMGB@?0?5Line?5@ 0000000140045568     libucrtd:dbgrptt.obj
 0002:00009570       ??_C@_01EEMJAFIK@?6@       0000000140045570     libucrtd:dbgrptt.obj
 0002:00009580       ??_C@_1JI@GAALPGBM@?$AAs?$AAt?$AAr?$AAc?$AAp?$AAy?$AA_?$AAs?$AA?$CI?$AAs?$AAz?$AAU?$AAs?$AAe?$AAr@ 0000000140045580     libucrtd:dbgrptt.obj
 0002:00009618       ??_C@_0CL@EACFGMNB@_CrtDbgReport?3?5String?5too?5long?5@ 0000000140045618     libucrtd:dbgrptt.obj
 0002:00009650       ??_C@_1KK@GIGAEDMO@?$AAs?$AAt?$AAr?$AAc?$AAp?$AAy?$AA_?$AAs?$AA?$CI?$AAs?$AAz?$AAL?$AAi?$AAn?$AAe@ 0000000140045650     libucrtd:dbgrptt.obj
 0002:00009700       ??_C@_0BD@CAENFOHP@Assertion?5failed?3?5@ 0000000140045700     libucrtd:dbgrptt.obj
 0002:00009718       ??_C@_0BC@LAIDCHCH@Assertion?5failed?$CB@ 0000000140045718     libucrtd:dbgrptt.obj
 0002:00009730       ??_C@_1FK@NPGBPOFO@?$AAs?$AAt?$AAr?$AAc?$AAa?$AAt?$AA_?$AAs?$AA?$CI?$AAs?$AAz?$AAL?$AAi?$AAn?$AAe@ 0000000140045730     libucrtd:dbgrptt.obj
 0002:00009790       ??_C@_1EI@CACDLAFK@?$AAs?$AAt?$AAr?$AAc?$AAa?$AAt?$AA_?$AAs?$AA?$CI?$AAs?$AAz?$AAL?$AAi?$AAn?$AAe@ 0000000140045790     libucrtd:dbgrptt.obj
 0002:000097d8       ??_C@_01LIIJDEN@?$AN@      00000001400457d8     libucrtd:dbgrptt.obj
 0002:000097e0       ??_C@_1EI@LDHJEDO@?$AAs?$AAt?$AAr?$AAc?$AAa?$AAt?$AA_?$AAs?$AA?$CI?$AAs?$AAz?$AAL?$AAi?$AAn?$AAe@ 00000001400457e0     libucrtd:dbgrptt.obj
 0002:00009828       ??_C@_0M@IPILFDFN@?$CFs?$CI?$CFd?$CJ?5?3?5?$CFs@ 0000000140045828     libucrtd:dbgrptt.obj
 0002:00009840       ??_C@_1JG@CPKCIOEE@?$AAs?$AAt?$AAr?$AAc?$AAp?$AAy?$AA_?$AAs?$AA?$CI?$AAs?$AAz?$AAO?$AAu?$AAt?$AAM@ 0000000140045840     libucrtd:dbgrptt.obj
 0002:000098e0       ??_C@_1FI@IBIOIHEG@?$AAs?$AAt?$AAr?$AAc?$AAp?$AAy?$AA_?$AAs?$AA?$CI?$AAs?$AAz?$AAO?$AAu?$AAt?$AAM@ 00000001400458e0     libucrtd:dbgrptt.obj
 0002:00009940       ??_C@_1IM@OOKIFKOH@?$AAe?$AA?5?$AA?$DN?$AA?5?$AAm?$AAb?$AAs?$AAt?$AAo?$AAw?$AAc?$AAs?$AA_?$AAs?$AA?$CI@ 0000000140045940     libucrtd:dbgrptt.obj
 0002:000099d0       ??_C@_1MC@IGEECMDB@?$AAw?$AAc?$AAs?$AAc?$AAp?$AAy?$AA_?$AAs?$AA?$CI?$AAs?$AAz?$AAO?$AAu?$AAt?$AAM@ 00000001400459d0     libucrtd:dbgrptt.obj
 0002:00009aa0       ??_C@_1HO@PJOFIKFE@?$AA_?$AAC?$AAr?$AAt?$AAD?$AAb?$AAg?$AAR?$AAe?$AAp?$AAo?$AAr?$AAt?$AA?3?$AA?5@ 0000000140045aa0     libucrtd:dbgrptt.obj
 0002:00009b20       ??_C@_1CA@HPALHDOD@?$AA_?$AAV?$AAC?$AAr?$AAt?$AAD?$AAb?$AAg?$AAR?$AAe?$AAp?$AAo?$AAr?$AAt?$AAW@ 0000000140045b20     libucrtd:dbgrptt.obj
 0002:00009b40       ??_C@_1FA@CNLLOMHI@?$AA_?$AAi?$AAt?$AAo?$AAw?$AA_?$AAs?$AA?$CI?$AAn?$AAL?$AAi?$AAn?$AAe?$AA?0?$AA?5@ 0000000140045b40     libucrtd:dbgrptt.obj
 0002:00009b90       ??_C@_1EM@MJFLEDMB@?$AAS?$AAe?$AAc?$AAo?$AAn?$AAd?$AA?5?$AAC?$AAh?$AAa?$AAn?$AAc?$AAe?$AA?5?$AAA@ 0000000140045b90     libucrtd:dbgrptt.obj
 0002:00009be0       ??_C@_1BO@OCHMLCAG@?$AA?$DM?$AAf?$AAi?$AAl?$AAe?$AA?5?$AAu?$AAn?$AAk?$AAn?$AAo?$AAw?$AAn?$AA?$DO@ 0000000140045be0     libucrtd:dbgrptt.obj
 0002:00009c00       ??_C@_1BA@ELMMDCFC@?$AA?0?$AA?5?$AAL?$AAi?$AAn?$AAe?$AA?5@ 0000000140045c00     libucrtd:dbgrptt.obj
 0002:00009c10       ??_C@_13LBAGMAIH@?$AA?6@   0000000140045c10     libucrtd:dbgrptt.obj
 0002:00009c20       ??_C@_1JK@KHFABAEO@?$AAw?$AAc?$AAs?$AAc?$AAp?$AAy?$AA_?$AAs?$AA?$CI?$AAs?$AAz?$AAU?$AAs?$AAe?$AAr@ 0000000140045c20     libucrtd:dbgrptt.obj
 0002:00009cc0       ??_C@_1KO@DGAHENCH@?$AAw?$AAc?$AAs?$AAc?$AAp?$AAy?$AA_?$AAs?$AA?$CI?$AAs?$AAz?$AAL?$AAi?$AAn?$AAe@ 0000000140045cc0     libucrtd:dbgrptt.obj
 0002:00009d70       ??_C@_1CG@FFFGGODN@?$AAA?$AAs?$AAs?$AAe?$AAr?$AAt?$AAi?$AAo?$AAn?$AA?5?$AAf?$AAa?$AAi?$AAl?$AAe@ 0000000140045d70     libucrtd:dbgrptt.obj
 0002:00009d98       ??_C@_1CE@OJBNHDMO@?$AAA?$AAs?$AAs?$AAe?$AAr?$AAt?$AAi?$AAo?$AAn?$AA?5?$AAf?$AAa?$AAi?$AAl?$AAe@ 0000000140045d98     libucrtd:dbgrptt.obj
 0002:00009dc0       ??_C@_1FK@HPADHBBD@?$AAw?$AAc?$AAs?$AAc?$AAa?$AAt?$AA_?$AAs?$AA?$CI?$AAs?$AAz?$AAL?$AAi?$AAn?$AAe@ 0000000140045dc0     libucrtd:dbgrptt.obj
 0002:00009e20       ??_C@_1EK@NMDFGHMF@?$AAw?$AAc?$AAs?$AAc?$AAa?$AAt?$AA_?$AAs?$AA?$CI?$AAs?$AAz?$AAL?$AAi?$AAn?$AAe@ 0000000140045e20     libucrtd:dbgrptt.obj
 0002:00009e6c       ??_C@_13CMNBPIDO@?$AA?$AN@ 0000000140045e6c     libucrtd:dbgrptt.obj
 0002:00009e70       ??_C@_1EK@PHCBEDKB@?$AAw?$AAc?$AAs?$AAc?$AAa?$AAt?$AA_?$AAs?$AA?$CI?$AAs?$AAz?$AAL?$AAi?$AAn?$AAe@ 0000000140045e70     libucrtd:dbgrptt.obj
 0002:00009ec0       ??_C@_1BM@GIBPMLNL@?$AA?$CF?$AAl?$AAs?$AA?$CI?$AA?$CF?$AAd?$AA?$CJ?$AA?5?$AA?3?$AA?5?$AA?$CF?$AAl?$AAs@ 0000000140045ec0     libucrtd:dbgrptt.obj
 0002:00009ee0       ??_C@_1JI@EACPGHID@?$AAw?$AAc?$AAs?$AAc?$AAp?$AAy?$AA_?$AAs?$AA?$CI?$AAs?$AAz?$AAO?$AAu?$AAt?$AAM@ 0000000140045ee0     libucrtd:dbgrptt.obj
 0002:00009f80       ??_C@_1FI@DBAIJPJE@?$AAw?$AAc?$AAs?$AAc?$AAp?$AAy?$AA_?$AAs?$AA?$CI?$AAs?$AAz?$AAO?$AAu?$AAt?$AAM@ 0000000140045f80     libucrtd:dbgrptt.obj
 0002:00009fe0       ??_C@_1IK@LEBMBAP@?$AAw?$AAc?$AAs?$AAt?$AAo?$AAm?$AAb?$AAs?$AA_?$AAs?$AA?$CI?$AAn?$AAu?$AAl?$AAl@ 0000000140045fe0     libucrtd:dbgrptt.obj
 0002:0000a070       ??_C@_1MA@LBAMNNOB@?$AAs?$AAt?$AAr?$AAc?$AAp?$AAy?$AA_?$AAs?$AA?$CI?$AAs?$AAz?$AAO?$AAu?$AAt?$AAM@ 0000000140046070     libucrtd:dbgrptt.obj
 0002:0000a130       ??_C@_0DP@GNPEPHJD@_CrtDbgReport?3?5String?5too?5long?5@ 0000000140046130     libucrtd:dbgrptt.obj
 0002:0000a170       ??_C@_1IE@CPGKIAGP@?$AAw?$AAc?$AAs?$AAt?$AAo?$AAm?$AAb?$AAs?$AA_?$AAs?$AA?$CI?$AA?$CG?$AAr?$AAe?$AAt@ 0000000140046170     libucrtd:dbgrptt.obj
 0002:0000a220       ??_C@_1DI@OOEEHOBJ@?$AAb?$AAa?$AAs?$AAe?$AA?5?$AA?$CB?$AA?$DN?$AA?5?$AAn?$AAu?$AAl?$AAl?$AAp?$AAt?$AAr@ 0000000140046220     libucrtd:qsort.obj
 0002:0000a260       ??_C@_1GA@KPPCKKGE@?$AAm?$AAi?$AAn?$AAk?$AAe?$AAr?$AAn?$AAe?$AAl?$AA?2?$AAc?$AAr?$AAt?$AAs?$AA?2@ 0000000140046260     libucrtd:qsort.obj
 0002:0000a2c0       ??_C@_1M@INMHODIG@?$AAq?$AAs?$AAo?$AAr?$AAt@ 00000001400462c0     libucrtd:qsort.obj
 0002:0000a2d0       ??_C@_1BE@NJBEBBME@?$AAw?$AAi?$AAd?$AAt?$AAh?$AA?5?$AA?$DO?$AA?5?$AA0@ 00000001400462d0     libucrtd:qsort.obj
 0002:0000a2e8       ??_C@_1CA@LIDFOMIN@?$AAc?$AAo?$AAm?$AAp?$AA?5?$AA?$CB?$AA?$DN?$AA?5?$AAn?$AAu?$AAl?$AAl?$AAp?$AAt?$AAr@ 00000001400462e8     libucrtd:qsort.obj
 0002:0000a308       ??_C@_1CE@BLLJFLOH@?$AAs?$AAt?$AAr?$AAi?$AAn?$AAg?$AA?5?$AA?$CB?$AA?$DN?$AA?5?$AAn?$AAu?$AAl?$AAl?$AAp@ 0000000140046308     libucrtd:mbsdec.obj
 0002:0000a330       ??_C@_1GO@DDOMFNGF@?$AAm?$AAi?$AAn?$AAk?$AAe?$AAr?$AAn?$AAe?$AAl?$AA?2?$AAc?$AAr?$AAt?$AAs?$AA?2@ 0000000140046330     libucrtd:mbsdec.obj
 0002:0000a3a0       ??_C@_1BE@KLNCOLCD@?$AA_?$AAm?$AAb?$AAs?$AAd?$AAe?$AAc?$AA_?$AAl@ 00000001400463a0     libucrtd:mbsdec.obj
 0002:0000a3b8       ??_C@_1CG@CMGPGAOD@?$AAc?$AAu?$AAr?$AAr?$AAe?$AAn?$AAt?$AA?5?$AA?$CB?$AA?$DN?$AA?5?$AAn?$AAu?$AAl?$AAl@ 00000001400463b8     libucrtd:mbsdec.obj
 0002:0000a3e0       ??_C@_0DH@IKPCBLP@minkernel?2crts?2ucrt?2src?2appcrt?2@ 00000001400463e0     libucrtd:lcmapstringa.obj
 0002:0000a418       ??_C@_1CE@MCCHPLBM@?$AAb?$AAu?$AAf?$AAf?$AAe?$AAr?$AA?5?$AA?$CB?$AA?$DN?$AA?5?$AAn?$AAu?$AAl?$AAl?$AAp@ 0000000140046418     libucrtd:xtoa.obj
 0002:0000a440       ??_C@_1GA@HBEFGMHK@?$AAm?$AAi?$AAn?$AAk?$AAe?$AAr?$AAn?$AAe?$AAl?$AA?2?$AAc?$AAr?$AAt?$AAs?$AA?2@ 0000000140046440     libucrtd:xtoa.obj
 0002:0000a4a0       ??_C@_1BM@HMPEMLNP@?$AAc?$AAo?$AAm?$AAm?$AAo?$AAn?$AA_?$AAx?$AAt?$AAo?$AAx?$AA_?$AAs@ 00000001400464a0     libucrtd:xtoa.obj
 0002:0000a4c0       ??_C@_1CC@ONIJBMJF@?$AAb?$AAu?$AAf?$AAf?$AAe?$AAr?$AA_?$AAc?$AAo?$AAu?$AAn?$AAt?$AA?5?$AA?$DO?$AA?5@ 00000001400464c0     libucrtd:xtoa.obj
 0002:0000a4f0       ??_C@_1HA@JFIOFNKD@?$AAb?$AAu?$AAf?$AAf?$AAe?$AAr?$AA_?$AAc?$AAo?$AAu?$AAn?$AAt?$AA?5?$AA?$DO?$AA?5@ 00000001400464f0     libucrtd:xtoa.obj
 0002:0000a560       ??_C@_1DE@PCJGDBBD@?$AA2?$AA?5?$AA?$DM?$AA?$DN?$AA?5?$AAr?$AAa?$AAd?$AAi?$AAx?$AA?5?$AA?$CG?$AA?$CG?$AA?5?$AAr@ 0000000140046560     libucrtd:xtoa.obj
 0002:0000a598       ??_C@_1CM@LONILNIJ@?$AAl?$AAe?$AAn?$AAg?$AAt?$AAh?$AA?5?$AA?$DM?$AA?5?$AAb?$AAu?$AAf?$AAf?$AAe?$AAr@ 0000000140046598     libucrtd:xtoa.obj
 0002:0000a5c8       ??_C@_1BI@OLPLFKOE@?$AAc?$AAo?$AAm?$AAm?$AAo?$AAn?$AA_?$AAx?$AAt?$AAo?$AAx@ 00000001400465c8     libucrtd:xtoa.obj
 0002:0000b420       ??_C@_15EMKDOKLE@?$AAa?$AAr@ 0000000140047420     libucrtd:lcidtoname_downlevel.obj
 0002:0000b428       ??_C@_15KNPADPLH@?$AAb?$AAg@ 0000000140047428     libucrtd:lcidtoname_downlevel.obj
 0002:0000b430       ??_C@_15EDMHLDMO@?$AAc?$AAa@ 0000000140047430     libucrtd:lcidtoname_downlevel.obj
 0002:0000b438       ??_C@_1O@BPEAJADD@?$AAz?$AAh?$AA?9?$AAC?$AAH?$AAS@ 0000000140047438     libucrtd:lcidtoname_downlevel.obj
 0002:0000b448       ??_C@_15LJNHCMNK@?$AAc?$AAs@ 0000000140047448     libucrtd:lcidtoname_downlevel.obj
 0002:0000b450       ??_C@_15FOMCIDHG@?$AAd?$AAa@ 0000000140047450     libucrtd:lcidtoname_downlevel.obj
 0002:0000b458       ??_C@_15NBKABECB@?$AAd?$AAe@ 0000000140047458     libucrtd:lcidtoname_downlevel.obj
 0002:0000b460       ??_C@_15GHPEIIAO@?$AAe?$AAl@ 0000000140047460     libucrtd:lcidtoname_downlevel.obj
 0002:0000b468       ??_C@_15MNPNEAIF@?$AAe?$AAn@ 0000000140047468     libucrtd:lcidtoname_downlevel.obj
 0002:0000b470       ??_C@_15GPIOMPMH@?$AAe?$AAs@ 0000000140047470     libucrtd:lcidtoname_downlevel.obj
 0002:0000b478       ??_C@_15NGLOAKJC@?$AAf?$AAi@ 0000000140047478     libucrtd:lcidtoname_downlevel.obj
 0002:0000b480       ??_C@_15FBKGNKAM@?$AAf?$AAr@ 0000000140047480     libucrtd:lcidtoname_downlevel.obj
 0002:0000b488       ??_C@_15KGGCNEFK@?$AAh?$AAe@ 0000000140047488     libucrtd:lcidtoname_downlevel.obj
 0002:0000b490       ??_C@_15PGHLIDMF@?$AAh?$AAu@ 0000000140047490     libucrtd:lcidtoname_downlevel.obj
 0002:0000b498       ??_C@_15BIEMAPLM@?$AAi?$AAs@ 0000000140047498     libucrtd:lcidtoname_downlevel.obj
 0002:0000b4a0       ??_C@_15IFJLDHAF@?$AAi?$AAt@ 00000001400474a0     libucrtd:lcidtoname_downlevel.obj
 0002:0000b4a8       ??_C@_15GEMIOCAG@?$AAj?$AAa@ 00000001400474a8     libucrtd:lcidtoname_downlevel.obj
 0002:0000b4b0       ??_C@_15EPELEGJA@?$AAk?$AAo@ 00000001400474b0     libucrtd:lcidtoname_downlevel.obj
 0002:0000b4b8       ??_C@_15NDDHIMN@?$AAn?$AAl@ 00000001400474b8     libucrtd:lcidtoname_downlevel.obj
 0002:0000b4c0       ??_C@_15BPIGNHCD@?$AAn?$AAo@ 00000001400474c0     libucrtd:lcidtoname_downlevel.obj
 0002:0000b4c8       ??_C@_15DEOPBLCG@?$AAp?$AAl@ 00000001400474c8     libucrtd:lcidtoname_downlevel.obj
 0002:0000b4d0       ??_C@_15KBECGEFG@?$AAp?$AAt@ 00000001400474d0     libucrtd:lcidtoname_downlevel.obj
 0002:0000b4d8       ??_C@_15GLJCBFMD@?$AAr?$AAo@ 00000001400474d8     libucrtd:lcidtoname_downlevel.obj
 0002:0000b4e0       ??_C@_15FEDGKCDI@?$AAr?$AAu@ 00000001400474e0     libucrtd:lcidtoname_downlevel.obj
 0002:0000b4e8       ??_C@_15GLKMLLHM@?$AAh?$AAr@ 00000001400474e8     libucrtd:lcidtoname_downlevel.obj
 0002:0000b4f0       ??_C@_15CPKMFBDB@?$AAs?$AAk@ 00000001400474f0     libucrtd:lcidtoname_downlevel.obj
 0002:0000b4f8       ??_C@_15BAAIOGMK@?$AAs?$AAq@ 00000001400474f8     libucrtd:lcidtoname_downlevel.obj
 0002:0000b500       ??_C@_15INNPNOHD@?$AAs?$AAv@ 0000000140047500     libucrtd:lcidtoname_downlevel.obj
 0002:0000b508       ??_C@_15CABMMOGH@?$AAt?$AAh@ 0000000140047508     libucrtd:lcidtoname_downlevel.obj
 0002:0000b510       ??_C@_15BPLIHJJM@?$AAt?$AAr@ 0000000140047510     libucrtd:lcidtoname_downlevel.obj
 0002:0000b518       ??_C@_15NEOEKKDJ@?$AAu?$AAr@ 0000000140047518     libucrtd:lcidtoname_downlevel.obj
 0002:0000b520       ??_C@_15NFICGAJK@?$AAi?$AAd@ 0000000140047520     libucrtd:lcidtoname_downlevel.obj
 0002:0000b528       ??_C@_15HPJPHDM@?$AAb?$AAe@ 0000000140047528     libucrtd:lcidtoname_downlevel.obj
 0002:0000b530       ??_C@_15LCHLGJII@?$AAs?$AAl@ 0000000140047530     libucrtd:lcidtoname_downlevel.obj
 0002:0000b538       ??_C@_15PCFJPHHO@?$AAe?$AAt@ 0000000140047538     libucrtd:lcidtoname_downlevel.obj
 0002:0000b540       ??_C@_15HPFPGODN@?$AAl?$AAv@ 0000000140047540     libucrtd:lcidtoname_downlevel.obj
 0002:0000b548       ??_C@_15NFFGKGLG@?$AAl?$AAt@ 0000000140047548     libucrtd:lcidtoname_downlevel.obj
 0002:0000b550       ??_C@_15BDAKCCHN@?$AAf?$AAa@ 0000000140047550     libucrtd:lcidtoname_downlevel.obj
 0002:0000b558       ??_C@_15NFGIAIAJ@?$AAv?$AAi@ 0000000140047558     libucrtd:lcidtoname_downlevel.obj
 0002:0000b560       ??_C@_15LMKNDMHN@?$AAh?$AAy@ 0000000140047560     libucrtd:lcidtoname_downlevel.obj
 0002:0000b568       ??_C@_15IJBHMCFL@?$AAa?$AAz@ 0000000140047568     libucrtd:lcidtoname_downlevel.obj
 0002:0000b570       ??_C@_15EKOFJABL@?$AAe?$AAu@ 0000000140047570     libucrtd:lcidtoname_downlevel.obj
 0002:0000b578       ??_C@_15BGHADCNK@?$AAm?$AAk@ 0000000140047578     libucrtd:lcidtoname_downlevel.obj
 0002:0000b580       ??_C@_15JDNICKHM@?$AAa?$AAf@ 0000000140047580     libucrtd:lcidtoname_downlevel.obj
 0002:0000b588       ??_C@_15KPJEDBKD@?$AAk?$AAa@ 0000000140047588     libucrtd:lcidtoname_downlevel.obj
 0002:0000b590       ??_C@_15PDNFFFEO@?$AAf?$AAo@ 0000000140047590     libucrtd:lcidtoname_downlevel.obj
 0002:0000b598       ??_C@_15OMLEGLOC@?$AAh?$AAi@ 0000000140047598     libucrtd:lcidtoname_downlevel.obj
 0002:0000b5a0       ??_C@_15IDNNENKK@?$AAm?$AAs@ 00000001400475a0     libucrtd:lcidtoname_downlevel.obj
 0002:0000b5a8       ??_C@_15MACJNBMH@?$AAk?$AAk@ 00000001400475a8     libucrtd:lcidtoname_downlevel.obj
 0002:0000b5b0       ??_C@_15DKDJEOND@?$AAk?$AAy@ 00000001400475b0     libucrtd:lcidtoname_downlevel.obj
 0002:0000b5b8       ??_C@_15DFGDLJBG@?$AAs?$AAw@ 00000001400475b8     libucrtd:lcidtoname_downlevel.obj
 0002:0000b5c0       ??_C@_15BBFAICNG@?$AAu?$AAz@ 00000001400475c0     libucrtd:lcidtoname_downlevel.obj
 0002:0000b5c8       ??_C@_15DKNDCGEA@?$AAt?$AAt@ 00000001400475c8     libucrtd:lcidtoname_downlevel.obj
 0002:0000b5d0       ??_C@_15MGIFMDPL@?$AAp?$AAa@ 00000001400475d0     libucrtd:lcidtoname_downlevel.obj
 0002:0000b5d8       ??_C@_15HCNDBBA@?$AAg?$AAu@ 00000001400475d8     libucrtd:lcidtoname_downlevel.obj
 0002:0000b5e0       ??_C@_15FNBEIBON@?$AAt?$AAa@ 00000001400475e0     libucrtd:lcidtoname_downlevel.obj
 0002:0000b5e8       ??_C@_15NCHGBGLK@?$AAt?$AAe@ 00000001400475e8     libucrtd:lcidtoname_downlevel.obj
 0002:0000b5f0       ??_C@_15PHPHCBPF@?$AAk?$AAn@ 00000001400475f0     libucrtd:lcidtoname_downlevel.obj
 0002:0000b5f8       ??_C@_15DLGBCKMP@?$AAm?$AAr@ 00000001400475f8     libucrtd:lcidtoname_downlevel.obj
 0002:0000b600       ??_C@_15EABBLBFF@?$AAs?$AAa@ 0000000140047600     libucrtd:lcidtoname_downlevel.obj
 0002:0000b608       ??_C@_15CBKOMCOI@?$AAm?$AAn@ 0000000140047608     libucrtd:lcidtoname_downlevel.obj
 0002:0000b610       ??_C@_15CKDMCJAF@?$AAg?$AAl@ 0000000140047610     libucrtd:lcidtoname_downlevel.obj
 0002:0000b618       ??_C@_17CNJFBPG@?$AAk?$AAo?$AAk@ 0000000140047618     libucrtd:lcidtoname_downlevel.obj
 0002:0000b620       ??_C@_17FFBJICPL@?$AAs?$AAy?$AAr@ 0000000140047620     libucrtd:lcidtoname_downlevel.obj
 0002:0000b628       ??_C@_17KPNDCPAF@?$AAd?$AAi?$AAv@ 0000000140047628     libucrtd:lcidtoname_downlevel.obj
 0002:0000b630       ??_C@_1M@OKAHONE@?$AAa?$AAr?$AA?9?$AAS?$AAA@ 0000000140047630     libucrtd:lcidtoname_downlevel.obj
 0002:0000b640       ??_C@_1M@FFFIGIGK@?$AAb?$AAg?$AA?9?$AAB?$AAG@ 0000000140047640     libucrtd:lcidtoname_downlevel.obj
 0002:0000b650       ??_C@_1M@BJNKEDC@?$AAc?$AAa?$AA?9?$AAE?$AAS@ 0000000140047650     libucrtd:lcidtoname_downlevel.obj
 0002:0000b660       ??_C@_1M@IJJHFJHA@?$AAc?$AAs?$AA?9?$AAC?$AAZ@ 0000000140047660     libucrtd:lcidtoname_downlevel.obj
 0002:0000b670       ??_C@_1M@CLPEOBGI@?$AAd?$AAa?$AA?9?$AAD?$AAK@ 0000000140047670     libucrtd:lcidtoname_downlevel.obj
 0002:0000b680       ??_C@_1M@MCMADGCB@?$AAd?$AAe?$AA?9?$AAD?$AAE@ 0000000140047680     libucrtd:lcidtoname_downlevel.obj
 0002:0000b690       ??_C@_1M@OOCKEMAM@?$AAe?$AAl?$AA?9?$AAG?$AAR@ 0000000140047690     libucrtd:lcidtoname_downlevel.obj
 0002:0000b6a0       ??_C@_1M@DDNJFGID@?$AAf?$AAi?$AA?9?$AAF?$AAI@ 00000001400476a0     libucrtd:lcidtoname_downlevel.obj
 0002:0000b6b0       ??_C@_1M@GLIPPMAC@?$AAf?$AAr?$AA?9?$AAF?$AAR@ 00000001400476b0     libucrtd:lcidtoname_downlevel.obj
 0002:0000b6c0       ??_C@_1M@GFMCHPE@?$AAh?$AAe?$AA?9?$AAI?$AAL@ 00000001400476c0     libucrtd:lcidtoname_downlevel.obj
 0002:0000b6d0       ??_C@_1M@MHLPGNKM@?$AAh?$AAu?$AA?9?$AAH?$AAU@ 00000001400476d0     libucrtd:lcidtoname_downlevel.obj
 0002:0000b6e0       ??_C@_1M@LPDDNNPN@?$AAi?$AAs?$AA?9?$AAI?$AAS@ 00000001400476e0     libucrtd:lcidtoname_downlevel.obj
 0002:0000b6f0       ??_C@_1M@MADIPODN@?$AAi?$AAt?$AA?9?$AAI?$AAT@ 00000001400476f0     libucrtd:lcidtoname_downlevel.obj
 0002:0000b700       ??_C@_1M@IHBJJGG@?$AAn?$AAl?$AA?9?$AAN?$AAL@ 0000000140047700     libucrtd:lcidtoname_downlevel.obj
 0002:0000b710       ??_C@_1M@EANAGDL@?$AAn?$AAb?$AA?9?$AAN?$AAO@ 0000000140047710     libucrtd:lcidtoname_downlevel.obj
 0002:0000b720       ??_C@_1M@NEIEMEGP@?$AAp?$AAl?$AA?9?$AAP?$AAL@ 0000000140047720     libucrtd:lcidtoname_downlevel.obj
 0002:0000b730       ??_C@_1M@BOCFIGEP@?$AAp?$AAt?$AA?9?$AAB?$AAR@ 0000000140047730     libucrtd:lcidtoname_downlevel.obj
 0002:0000b740       ??_C@_1M@IMPFOPBG@?$AAr?$AAo?$AA?9?$AAR?$AAO@ 0000000140047740     libucrtd:lcidtoname_downlevel.obj
 0002:0000b750       ??_C@_1M@IDNNEJMM@?$AAr?$AAu?$AA?9?$AAR?$AAU@ 0000000140047750     libucrtd:lcidtoname_downlevel.obj
 0002:0000b760       ??_C@_1M@LILEEOGM@?$AAh?$AAr?$AA?9?$AAH?$AAR@ 0000000140047760     libucrtd:lcidtoname_downlevel.obj
 0002:0000b770       ??_C@_1M@FKIFEHPB@?$AAs?$AAk?$AA?9?$AAS?$AAK@ 0000000140047770     libucrtd:lcidtoname_downlevel.obj
 0002:0000b780       ??_C@_1M@LJMAMNPJ@?$AAs?$AAq?$AA?9?$AAA?$AAL@ 0000000140047780     libucrtd:lcidtoname_downlevel.obj
 0002:0000b790       ??_C@_1M@GIAKDKJK@?$AAs?$AAv?$AA?9?$AAS?$AAE@ 0000000140047790     libucrtd:lcidtoname_downlevel.obj
 0002:0000b7a0       ??_C@_1M@MKJKIKCL@?$AAt?$AAh?$AA?9?$AAT?$AAH@ 00000001400477a0     libucrtd:lcidtoname_downlevel.obj
 0002:0000b7b0       ??_C@_1M@MFLCCMPB@?$AAt?$AAr?$AA?9?$AAT?$AAR@ 00000001400477b0     libucrtd:lcidtoname_downlevel.obj
 0002:0000b7c0       ??_C@_1M@OIJHDKJN@?$AAu?$AAr?$AA?9?$AAP?$AAK@ 00000001400477c0     libucrtd:lcidtoname_downlevel.obj
 0002:0000b7d0       ??_C@_1M@LHIPCIEK@?$AAi?$AAd?$AA?9?$AAI?$AAD@ 00000001400477d0     libucrtd:lcidtoname_downlevel.obj
 0002:0000b7e0       ??_C@_1M@MFMOBGI@?$AAu?$AAk?$AA?9?$AAU?$AAA@ 00000001400477e0     libucrtd:lcidtoname_downlevel.obj
 0002:0000b7f0       ??_C@_1M@OBGLJIPL@?$AAb?$AAe?$AA?9?$AAB?$AAY@ 00000001400477f0     libucrtd:lcidtoname_downlevel.obj
 0002:0000b800       ??_C@_1M@BCFAJEAD@?$AAs?$AAl?$AA?9?$AAS?$AAI@ 0000000140047800     libucrtd:lcidtoname_downlevel.obj
 0002:0000b810       ??_C@_1M@FKFFEDDN@?$AAe?$AAt?$AA?9?$AAE?$AAE@ 0000000140047810     libucrtd:lcidtoname_downlevel.obj
 0002:0000b820       ??_C@_1M@KGKKAACI@?$AAl?$AAv?$AA?9?$AAL?$AAV@ 0000000140047820     libucrtd:lcidtoname_downlevel.obj
 0002:0000b830       ??_C@_1M@IFGBIJO@?$AAl?$AAt?$AA?9?$AAL?$AAT@ 0000000140047830     libucrtd:lcidtoname_downlevel.obj
 0002:0000b840       ??_C@_1M@FGEAHEDM@?$AAf?$AAa?$AA?9?$AAI?$AAR@ 0000000140047840     libucrtd:lcidtoname_downlevel.obj
 0002:0000b850       ??_C@_1M@KBMAIBFN@?$AAv?$AAi?$AA?9?$AAV?$AAN@ 0000000140047850     libucrtd:lcidtoname_downlevel.obj
 0002:0000b860       ??_C@_1M@GPCBKDJK@?$AAh?$AAy?$AA?9?$AAA?$AAM@ 0000000140047860     libucrtd:lcidtoname_downlevel.obj
 0002:0000b870       ??_C@_1BG@BECMDDJB@?$AAa?$AAz?$AA?9?$AAA?$AAZ?$AA?9?$AAL?$AAa?$AAt?$AAn@ 0000000140047870     libucrtd:lcidtoname_downlevel.obj
 0002:0000b888       ??_C@_1M@MAOFCAEA@?$AAe?$AAu?$AA?9?$AAE?$AAS@ 0000000140047888     libucrtd:lcidtoname_downlevel.obj
 0002:0000b898       ??_C@_1M@IGHABKPI@?$AAm?$AAk?$AA?9?$AAM?$AAK@ 0000000140047898     libucrtd:lcidtoname_downlevel.obj
 0002:0000b8a8       ??_C@_1M@IAIGNEJG@?$AAt?$AAn?$AA?9?$AAZ?$AAA@ 00000001400478a8     libucrtd:lcidtoname_downlevel.obj
 0002:0000b8b8       ??_C@_1M@IIJCOJFA@?$AAx?$AAh?$AA?9?$AAZ?$AAA@ 00000001400478b8     libucrtd:lcidtoname_downlevel.obj
 0002:0000b8c8       ??_C@_1M@LGPJHNJH@?$AAz?$AAu?$AA?9?$AAZ?$AAA@ 00000001400478c8     libucrtd:lcidtoname_downlevel.obj
 0002:0000b8d8       ??_C@_1M@HOKAOIO@?$AAa?$AAf?$AA?9?$AAZ?$AAA@ 00000001400478d8     libucrtd:lcidtoname_downlevel.obj
 0002:0000b8e8       ??_C@_1M@DPCLHLIE@?$AAk?$AAa?$AA?9?$AAG?$AAE@ 00000001400478e8     libucrtd:lcidtoname_downlevel.obj
 0002:0000b8f8       ??_C@_1M@BLKMHJBI@?$AAf?$AAo?$AA?9?$AAF?$AAO@ 00000001400478f8     libucrtd:lcidtoname_downlevel.obj
 0002:0000b908       ??_C@_1M@LGGJAPPB@?$AAh?$AAi?$AA?9?$AAI?$AAN@ 0000000140047908     libucrtd:lcidtoname_downlevel.obj
 0002:0000b918       ??_C@_1M@FIKPIHFE@?$AAm?$AAt?$AA?9?$AAM?$AAT@ 0000000140047918     libucrtd:lcidtoname_downlevel.obj
 0002:0000b928       ??_C@_1M@HEGGPBFA@?$AAs?$AAe?$AA?9?$AAN?$AAO@ 0000000140047928     libucrtd:lcidtoname_downlevel.obj
 0002:0000b938       ??_C@_1M@EIBJEEPA@?$AAm?$AAs?$AA?9?$AAM?$AAY@ 0000000140047938     libucrtd:lcidtoname_downlevel.obj
 0002:0000b948       ??_C@_1M@FHLBGMPP@?$AAk?$AAk?$AA?9?$AAK?$AAZ@ 0000000140047948     libucrtd:lcidtoname_downlevel.obj
 0002:0000b958       ??_C@_1M@NGJJLCGI@?$AAk?$AAy?$AA?9?$AAK?$AAG@ 0000000140047958     libucrtd:lcidtoname_downlevel.obj
 0002:0000b968       ??_C@_1M@GIENNBFC@?$AAs?$AAw?$AA?9?$AAK?$AAE@ 0000000140047968     libucrtd:lcidtoname_downlevel.obj
 0002:0000b978       ??_C@_1BG@NDGMJIMJ@?$AAu?$AAz?$AA?9?$AAU?$AAZ?$AA?9?$AAL?$AAa?$AAt?$AAn@ 0000000140047978     libucrtd:lcidtoname_downlevel.obj
 0002:0000b990       ??_C@_1M@IDCCIHBC@?$AAt?$AAt?$AA?9?$AAR?$AAU@ 0000000140047990     libucrtd:lcidtoname_downlevel.obj
 0002:0000b9a0       ??_C@_1M@LOICPMOJ@?$AAb?$AAn?$AA?9?$AAI?$AAN@ 00000001400479a0     libucrtd:lcidtoname_downlevel.obj
 0002:0000b9b0       ??_C@_1M@KPKKNEAH@?$AAp?$AAa?$AA?9?$AAI?$AAN@ 00000001400479b0     libucrtd:lcidtoname_downlevel.obj
 0002:0000b9c0       ??_C@_1M@PJGPPBOG@?$AAg?$AAu?$AA?9?$AAI?$AAN@ 00000001400479c0     libucrtd:lcidtoname_downlevel.obj
 0002:0000b9d0       ??_C@_1M@KMKMOPHI@?$AAt?$AAa?$AA?9?$AAI?$AAN@ 00000001400479d0     libucrtd:lcidtoname_downlevel.obj
 0002:0000b9e0       ??_C@_1M@KFEHEPAC@?$AAt?$AAe?$AA?9?$AAI?$AAN@ 00000001400479e0     libucrtd:lcidtoname_downlevel.obj
 0002:0000b9f0       ??_C@_1M@CDCLMGHI@?$AAk?$AAn?$AA?9?$AAI?$AAN@ 00000001400479f0     libucrtd:lcidtoname_downlevel.obj
 0002:0000ba00       ??_C@_1M@MIODLDKF@?$AAm?$AAl?$AA?9?$AAI?$AAN@ 0000000140047a00     libucrtd:lcidtoname_downlevel.obj
 0002:0000ba10       ??_C@_1M@PBIEACPO@?$AAm?$AAr?$AA?9?$AAI?$AAN@ 0000000140047a10     libucrtd:lcidtoname_downlevel.obj
 0002:0000ba20       ??_C@_1M@NIDEAGPH@?$AAs?$AAa?$AA?9?$AAI?$AAN@ 0000000140047a20     libucrtd:lcidtoname_downlevel.obj
 0002:0000ba30       ??_C@_1M@FHIHCBIO@?$AAm?$AAn?$AA?9?$AAM?$AAN@ 0000000140047a30     libucrtd:lcidtoname_downlevel.obj
 0002:0000ba40       ??_C@_1M@JAIJPENP@?$AAc?$AAy?$AA?9?$AAG?$AAB@ 0000000140047a40     libucrtd:lcidtoname_downlevel.obj
 0002:0000ba50       ??_C@_1M@PHGFBEPN@?$AAg?$AAl?$AA?9?$AAE?$AAS@ 0000000140047a50     libucrtd:lcidtoname_downlevel.obj
 0002:0000ba60       ??_C@_1O@KPIPDNCP@?$AAk?$AAo?$AAk?$AA?9?$AAI?$AAN@ 0000000140047a60     libucrtd:lcidtoname_downlevel.obj
 0002:0000ba70       ??_C@_1O@KNHJLDJA@?$AAs?$AAy?$AAr?$AA?9?$AAS?$AAY@ 0000000140047a70     libucrtd:lcidtoname_downlevel.obj
 0002:0000ba80       ??_C@_1O@MKEKBLAH@?$AAd?$AAi?$AAv?$AA?9?$AAM?$AAV@ 0000000140047a80     libucrtd:lcidtoname_downlevel.obj
 0002:0000ba90       ??_C@_1O@OHDCKDDF@?$AAq?$AAu?$AAz?$AA?9?$AAB?$AAO@ 0000000140047a90     libucrtd:lcidtoname_downlevel.obj
 0002:0000baa0       ??_C@_1M@LEPJNLFD@?$AAn?$AAs?$AA?9?$AAZ?$AAA@ 0000000140047aa0     libucrtd:lcidtoname_downlevel.obj
 0002:0000bab0       ??_C@_1M@OMLEIIJB@?$AAm?$AAi?$AA?9?$AAN?$AAZ@ 0000000140047ab0     libucrtd:lcidtoname_downlevel.obj
 0002:0000bac0       ??_C@_1M@PMPEAILG@?$AAa?$AAr?$AA?9?$AAI?$AAQ@ 0000000140047ac0     libucrtd:lcidtoname_downlevel.obj
 0002:0000bad0       ??_C@_1M@CNKPNOEE@?$AAd?$AAe?$AA?9?$AAC?$AAH@ 0000000140047ad0     libucrtd:lcidtoname_downlevel.obj
 0002:0000bae0       ??_C@_1M@LKMGMLKO@?$AAe?$AAn?$AA?9?$AAG?$AAB@ 0000000140047ae0     libucrtd:lcidtoname_downlevel.obj
 0002:0000baf0       ??_C@_1M@PGKJFFGL@?$AAe?$AAs?$AA?9?$AAM?$AAX@ 0000000140047af0     libucrtd:lcidtoname_downlevel.obj
 0002:0000bb00       ??_C@_1M@DNNANBDC@?$AAf?$AAr?$AA?9?$AAB?$AAE@ 0000000140047b00     libucrtd:lcidtoname_downlevel.obj
 0002:0000bb10       ??_C@_1M@HLGMDFHM@?$AAi?$AAt?$AA?9?$AAC?$AAH@ 0000000140047b10     libucrtd:lcidtoname_downlevel.obj
 0002:0000bb20       ??_C@_1M@CLLBGJH@?$AAn?$AAl?$AA?9?$AAB?$AAE@ 0000000140047b20     libucrtd:lcidtoname_downlevel.obj
 0002:0000bb30       ??_C@_1M@BODBOGLF@?$AAn?$AAn?$AA?9?$AAN?$AAO@ 0000000140047b30     libucrtd:lcidtoname_downlevel.obj
 0002:0000bb40       ??_C@_1M@HFFAHKAD@?$AAp?$AAt?$AA?9?$AAP?$AAT@ 0000000140047b40     libucrtd:lcidtoname_downlevel.obj
 0002:0000bb50       ??_C@_1BG@LNOAKHIE@?$AAs?$AAr?$AA?9?$AAS?$AAP?$AA?9?$AAL?$AAa?$AAt?$AAn@ 0000000140047b50     libucrtd:lcidtoname_downlevel.obj
 0002:0000bb68       ??_C@_1M@HBMHBGAK@?$AAs?$AAv?$AA?9?$AAF?$AAI@ 0000000140047b68     libucrtd:lcidtoname_downlevel.obj
 0002:0000bb78       ??_C@_1BG@DGCJGJBE@?$AAa?$AAz?$AA?9?$AAA?$AAZ?$AA?9?$AAC?$AAy?$AAr?$AAl@ 0000000140047b78     libucrtd:lcidtoname_downlevel.obj
 0002:0000bb90       ??_C@_1M@KEJDAAHB@?$AAs?$AAe?$AA?9?$AAS?$AAE@ 0000000140047b90     libucrtd:lcidtoname_downlevel.obj
 0002:0000bba0       ??_C@_1M@HEIBJJAD@?$AAm?$AAs?$AA?9?$AAB?$AAN@ 0000000140047ba0     libucrtd:lcidtoname_downlevel.obj
 0002:0000bbb0       ??_C@_1BG@PBGJMCEM@?$AAu?$AAz?$AA?9?$AAU?$AAZ?$AA?9?$AAC?$AAy?$AAr?$AAl@ 0000000140047bb0     libucrtd:lcidtoname_downlevel.obj
 0002:0000bbc8       ??_C@_1O@LAOBCMDF@?$AAq?$AAu?$AAz?$AA?9?$AAE?$AAC@ 0000000140047bc8     libucrtd:lcidtoname_downlevel.obj
 0002:0000bbd8       ??_C@_1M@POEEMAIO@?$AAa?$AAr?$AA?9?$AAE?$AAG@ 0000000140047bd8     libucrtd:lcidtoname_downlevel.obj
 0002:0000bbe8       ??_C@_1M@EFAKDEDL@?$AAz?$AAh?$AA?9?$AAH?$AAK@ 0000000140047be8     libucrtd:lcidtoname_downlevel.obj
 0002:0000bbf8       ??_C@_1M@HKKIJHGI@?$AAd?$AAe?$AA?9?$AAA?$AAT@ 0000000140047bf8     libucrtd:lcidtoname_downlevel.obj
 0002:0000bc08       ??_C@_1M@KBFBEHJF@?$AAe?$AAn?$AA?9?$AAA?$AAU@ 0000000140047c08     libucrtd:lcidtoname_downlevel.obj
 0002:0000bc18       ??_C@_1M@MNPLFAAH@?$AAe?$AAs?$AA?9?$AAE?$AAS@ 0000000140047c18     libucrtd:lcidtoname_downlevel.obj
 0002:0000bc28       ??_C@_1M@HJOOJFMA@?$AAf?$AAr?$AA?9?$AAC?$AAA@ 0000000140047c28     libucrtd:lcidtoname_downlevel.obj
 0002:0000bc38       ??_C@_1BG@JPOFPNAB@?$AAs?$AAr?$AA?9?$AAS?$AAP?$AA?9?$AAC?$AAy?$AAr?$AAl@ 0000000140047c38     libucrtd:lcidtoname_downlevel.obj
 0002:0000bc50       ??_C@_1M@LNFOCMOB@?$AAs?$AAe?$AA?9?$AAF?$AAI@ 0000000140047c50     libucrtd:lcidtoname_downlevel.obj
 0002:0000bc60       ??_C@_1O@MGJBOAMB@?$AAq?$AAu?$AAz?$AA?9?$AAP?$AAE@ 0000000140047c60     libucrtd:lcidtoname_downlevel.obj
 0002:0000bc70       ??_C@_1M@GJINLBOK@?$AAa?$AAr?$AA?9?$AAL?$AAY@ 0000000140047c70     libucrtd:lcidtoname_downlevel.obj
 0002:0000bc80       ??_C@_1M@GGMNHJNL@?$AAz?$AAh?$AA?9?$AAS?$AAG@ 0000000140047c80     libucrtd:lcidtoname_downlevel.obj
 0002:0000bc90       ??_C@_1M@HOIKODND@?$AAd?$AAe?$AA?9?$AAL?$AAU@ 0000000140047c90     libucrtd:lcidtoname_downlevel.obj
 0002:0000bca0       ??_C@_1M@DDOCCGFG@?$AAe?$AAn?$AA?9?$AAC?$AAA@ 0000000140047ca0     libucrtd:lcidtoname_downlevel.obj
 0002:0000bcb0       ??_C@_1M@BNOEMJLF@?$AAe?$AAs?$AA?9?$AAG?$AAT@ 0000000140047cb0     libucrtd:lcidtoname_downlevel.obj
 0002:0000bcc0       ??_C@_1M@EOGNKEK@?$AAf?$AAr?$AA?9?$AAC?$AAH@ 0000000140047cc0     libucrtd:lcidtoname_downlevel.obj
 0002:0000bcd0       ??_C@_1M@FLIDJFHL@?$AAh?$AAr?$AA?9?$AAB?$AAA@ 0000000140047cd0     libucrtd:lcidtoname_downlevel.obj
 0002:0000bce0       ??_C@_1O@FMCELNAJ@?$AAs?$AAm?$AAj?$AA?9?$AAN?$AAO@ 0000000140047ce0     libucrtd:lcidtoname_downlevel.obj
 0002:0000bcf0       ??_C@_1M@JHGLJMGJ@?$AAa?$AAr?$AA?9?$AAD?$AAZ@ 0000000140047cf0     libucrtd:lcidtoname_downlevel.obj
 0002:0000bd00       ??_C@_1M@JKKFDCNP@?$AAz?$AAh?$AA?9?$AAM?$AAO@ 0000000140047d00     libucrtd:lcidtoname_downlevel.obj
 0002:0000bd10       ??_C@_1M@GEEFALPE@?$AAd?$AAe?$AA?9?$AAL?$AAI@ 0000000140047d10     libucrtd:lcidtoname_downlevel.obj
 0002:0000bd20       ??_C@_1M@IGEOFBG@?$AAe?$AAn?$AA?9?$AAN?$AAZ@ 0000000140047d20     libucrtd:lcidtoname_downlevel.obj
 0002:0000bd30       ??_C@_1M@KDBONEHP@?$AAe?$AAs?$AA?9?$AAC?$AAR@ 0000000140047d30     libucrtd:lcidtoname_downlevel.obj
 0002:0000bd40       ??_C@_1M@FHMDOHNN@?$AAf?$AAr?$AA?9?$AAL?$AAU@ 0000000140047d40     libucrtd:lcidtoname_downlevel.obj
 0002:0000bd50       ??_C@_1BG@NFKKMAFG@?$AAb?$AAs?$AA?9?$AAB?$AAA?$AA?9?$AAL?$AAa?$AAt?$AAn@ 0000000140047d50     libucrtd:lcidtoname_downlevel.obj
 0002:0000bd68       ??_C@_1O@IMNBEMCI@?$AAs?$AAm?$AAj?$AA?9?$AAS?$AAE@ 0000000140047d68     libucrtd:lcidtoname_downlevel.obj
 0002:0000bd78       ??_C@_1M@DHHMBNDP@?$AAa?$AAr?$AA?9?$AAM?$AAA@ 0000000140047d78     libucrtd:lcidtoname_downlevel.obj
 0002:0000bd88       ??_C@_1M@BNBLJCGH@?$AAe?$AAn?$AA?9?$AAI?$AAE@ 0000000140047d88     libucrtd:lcidtoname_downlevel.obj
 0002:0000bd98       ??_C@_1M@GEPAFMDL@?$AAe?$AAs?$AA?9?$AAP?$AAA@ 0000000140047d98     libucrtd:lcidtoname_downlevel.obj
 0002:0000bda8       ??_C@_1M@OJONDMDL@?$AAf?$AAr?$AA?9?$AAM?$AAC@ 0000000140047da8     libucrtd:lcidtoname_downlevel.obj
 0002:0000bdb8       ??_C@_1BG@OBCNFJB@?$AAs?$AAr?$AA?9?$AAB?$AAA?$AA?9?$AAL?$AAa?$AAt?$AAn@ 0000000140047db8     libucrtd:lcidtoname_downlevel.obj
 0002:0000bdd0       ??_C@_1O@KEMEEGPO@?$AAs?$AAm?$AAa?$AA?9?$AAN?$AAO@ 0000000140047dd0     libucrtd:lcidtoname_downlevel.obj
 0002:0000bde0       ??_C@_1M@ELMGFODK@?$AAa?$AAr?$AA?9?$AAT?$AAN@ 0000000140047de0     libucrtd:lcidtoname_downlevel.obj
 0002:0000bdf0       ??_C@_1M@BHDLHFAF@?$AAe?$AAn?$AA?9?$AAZ?$AAA@ 0000000140047df0     libucrtd:lcidtoname_downlevel.obj
 0002:0000be00       ??_C@_1M@BMGIGLIF@?$AAe?$AAs?$AA?9?$AAD?$AAO@ 0000000140047e00     libucrtd:lcidtoname_downlevel.obj
 0002:0000be10       ??_C@_1BG@CMBHIPBE@?$AAs?$AAr?$AA?9?$AAB?$AAA?$AA?9?$AAC?$AAy?$AAr?$AAl@ 0000000140047e10     libucrtd:lcidtoname_downlevel.obj
 0002:0000be28       ??_C@_1O@HEDBLHNP@?$AAs?$AAm?$AAa?$AA?9?$AAS?$AAE@ 0000000140047e28     libucrtd:lcidtoname_downlevel.obj
 0002:0000be38       ??_C@_1M@DAGCADIM@?$AAa?$AAr?$AA?9?$AAO?$AAM@ 0000000140047e38     libucrtd:lcidtoname_downlevel.obj
 0002:0000be48       ??_C@_1M@FODLMICG@?$AAe?$AAn?$AA?9?$AAJ?$AAM@ 0000000140047e48     libucrtd:lcidtoname_downlevel.obj
 0002:0000be58       ??_C@_1M@DNMLCIHB@?$AAe?$AAs?$AA?9?$AAV?$AAE@ 0000000140047e58     libucrtd:lcidtoname_downlevel.obj
 0002:0000be68       ??_C@_1O@EOKHMKJK@?$AAs?$AAm?$AAs?$AA?9?$AAF?$AAI@ 0000000140047e68     libucrtd:lcidtoname_downlevel.obj
 0002:0000be78       ??_C@_1M@CAFJMKOF@?$AAa?$AAr?$AA?9?$AAY?$AAE@ 0000000140047e78     libucrtd:lcidtoname_downlevel.obj
 0002:0000be88       ??_C@_1M@CBFHIJLI@?$AAe?$AAn?$AA?9?$AAC?$AAB@ 0000000140047e88     libucrtd:lcidtoname_downlevel.obj
 0002:0000be98       ??_C@_1M@BGNFLDN@?$AAe?$AAs?$AA?9?$AAC?$AAO@ 0000000140047e98     libucrtd:lcidtoname_downlevel.obj
 0002:0000bea8       ??_C@_1O@JMPHMAMC@?$AAs?$AAm?$AAn?$AA?9?$AAF?$AAI@ 0000000140047ea8     libucrtd:lcidtoname_downlevel.obj
 0002:0000beb8       ??_C@_1M@JLANABKE@?$AAa?$AAr?$AA?9?$AAS?$AAY@ 0000000140047eb8     libucrtd:lcidtoname_downlevel.obj
 0002:0000bec8       ??_C@_1M@HPKGCFGN@?$AAe?$AAn?$AA?9?$AAB?$AAZ@ 0000000140047ec8     libucrtd:lcidtoname_downlevel.obj
 0002:0000bed8       ??_C@_1M@OLJCMLGM@?$AAe?$AAs?$AA?9?$AAP?$AAE@ 0000000140047ed8     libucrtd:lcidtoname_downlevel.obj
 0002:0000bee8       ??_C@_1M@MKKGFKLE@?$AAa?$AAr?$AA?9?$AAJ?$AAO@ 0000000140047ee8     libucrtd:lcidtoname_downlevel.obj
 0002:0000bef8       ??_C@_1M@EKPGLDNI@?$AAe?$AAn?$AA?9?$AAT?$AAT@ 0000000140047ef8     libucrtd:lcidtoname_downlevel.obj
 0002:0000bf08       ??_C@_1M@OONGHFHE@?$AAe?$AAs?$AA?9?$AAA?$AAR@ 0000000140047f08     libucrtd:lcidtoname_downlevel.obj
 0002:0000bf18       ??_C@_1M@OOJFGBHE@?$AAa?$AAr?$AA?9?$AAL?$AAB@ 0000000140047f18     libucrtd:lcidtoname_downlevel.obj
 0002:0000bf28       ??_C@_1M@GCEJHNEG@?$AAe?$AAn?$AA?9?$AAZ?$AAW@ 0000000140047f28     libucrtd:lcidtoname_downlevel.obj
 0002:0000bf38       ??_C@_1M@JNOCAHJI@?$AAe?$AAs?$AA?9?$AAE?$AAC@ 0000000140047f38     libucrtd:lcidtoname_downlevel.obj
 0002:0000bf48       ??_C@_1M@JEFHPGGB@?$AAa?$AAr?$AA?9?$AAK?$AAW@ 0000000140047f48     libucrtd:lcidtoname_downlevel.obj
 0002:0000bf58       ??_C@_1M@MLKIBJOJ@?$AAe?$AAn?$AA?9?$AAP?$AAH@ 0000000140047f58     libucrtd:lcidtoname_downlevel.obj
 0002:0000bf68       ??_C@_1M@BDNIPEND@?$AAe?$AAs?$AA?9?$AAC?$AAL@ 0000000140047f68     libucrtd:lcidtoname_downlevel.obj
 0002:0000bf78       ??_C@_1M@MPNMEKBD@?$AAa?$AAr?$AA?9?$AAA?$AAE@ 0000000140047f78     libucrtd:lcidtoname_downlevel.obj
 0002:0000bf88       ??_C@_1M@KBJALCPI@?$AAe?$AAs?$AA?9?$AAU?$AAY@ 0000000140047f88     libucrtd:lcidtoname_downlevel.obj
 0002:0000bf98       ??_C@_1M@LLCCOAGA@?$AAa?$AAr?$AA?9?$AAB?$AAH@ 0000000140047f98     libucrtd:lcidtoname_downlevel.obj
 0002:0000bfa8       ??_C@_1M@PBFNCDEL@?$AAe?$AAs?$AA?9?$AAP?$AAY@ 0000000140047fa8     libucrtd:lcidtoname_downlevel.obj
 0002:0000bfb8       ??_C@_1M@EDGINPNP@?$AAa?$AAr?$AA?9?$AAQ?$AAA@ 0000000140047fb8     libucrtd:lcidtoname_downlevel.obj
 0002:0000bfc8       ??_C@_1M@MKDBIIJI@?$AAe?$AAs?$AA?9?$AAB?$AAO@ 0000000140047fc8     libucrtd:lcidtoname_downlevel.obj
 0002:0000bfd8       ??_C@_1M@CPKKEBLD@?$AAe?$AAs?$AA?9?$AAS?$AAV@ 0000000140047fd8     libucrtd:lcidtoname_downlevel.obj
 0002:0000bfe8       ??_C@_1M@NDBGMMJL@?$AAe?$AAs?$AA?9?$AAH?$AAN@ 0000000140047fe8     libucrtd:lcidtoname_downlevel.obj
 0002:0000bff8       ??_C@_1M@JIJIBHDP@?$AAe?$AAs?$AA?9?$AAN?$AAI@ 0000000140047ff8     libucrtd:lcidtoname_downlevel.obj
 0002:0000c008       ??_C@_1M@CGFMKEEK@?$AAe?$AAs?$AA?9?$AAP?$AAR@ 0000000140048008     libucrtd:lcidtoname_downlevel.obj
 0002:0000c018       ??_C@_1O@ICJHKIIK@?$AAz?$AAh?$AA?9?$AAC?$AAH?$AAT@ 0000000140048018     libucrtd:lcidtoname_downlevel.obj
 0002:0000c028       ??_C@_15CLNEJCE@?$AAs?$AAr@ 0000000140048028     libucrtd:lcidtoname_downlevel.obj
 0002:0000ce70       ??_C@_1M@KAHEKEIG@?$AAa?$AAf?$AA?9?$AAz?$AAa@ 0000000140048e70     libucrtd:lcidtoname_downlevel.obj
 0002:0000ce80       ??_C@_1M@GIECOABL@?$AAa?$AAr?$AA?9?$AAa?$AAe@ 0000000140048e80     libucrtd:lcidtoname_downlevel.obj
 0002:0000ce90       ??_C@_1M@BMLMEKGI@?$AAa?$AAr?$AA?9?$AAb?$AAh@ 0000000140048e90     libucrtd:lcidtoname_downlevel.obj
 0002:0000cea0       ??_C@_1M@DAPFDGGB@?$AAa?$AAr?$AA?9?$AAd?$AAz@ 0000000140048ea0     libucrtd:lcidtoname_downlevel.obj
 0002:0000ceb0       ??_C@_1M@FJNKGKIG@?$AAa?$AAr?$AA?9?$AAe?$AAg@ 0000000140048eb0     libucrtd:lcidtoname_downlevel.obj
 0002:0000cec0       ??_C@_1M@FLGKKCLO@?$AAa?$AAr?$AA?9?$AAi?$AAq@ 0000000140048ec0     libucrtd:lcidtoname_downlevel.obj
 0002:0000ced0       ??_C@_1M@GNDIPALM@?$AAa?$AAr?$AA?9?$AAj?$AAo@ 0000000140048ed0     libucrtd:lcidtoname_downlevel.obj
 0002:0000cee0       ??_C@_1M@DDMJFMGJ@?$AAa?$AAr?$AA?9?$AAk?$AAw@ 0000000140048ee0     libucrtd:lcidtoname_downlevel.obj
 0002:0000cef0       ??_C@_1M@EJALMLHM@?$AAa?$AAr?$AA?9?$AAl?$AAb@ 0000000140048ef0     libucrtd:lcidtoname_downlevel.obj
 0002:0000cf00       ??_C@_1M@MOBDBLOC@?$AAa?$AAr?$AA?9?$AAl?$AAy@ 0000000140048f00     libucrtd:lcidtoname_downlevel.obj
 0002:0000cf10       ??_C@_1M@JAOCLHDH@?$AAa?$AAr?$AA?9?$AAm?$AAa@ 0000000140048f10     libucrtd:lcidtoname_downlevel.obj
 0002:0000cf20       ??_C@_1M@JHPMKJIE@?$AAa?$AAr?$AA?9?$AAo?$AAm@ 0000000140048f20     libucrtd:lcidtoname_downlevel.obj
 0002:0000cf30       ??_C@_1M@OEPGHFNH@?$AAa?$AAr?$AA?9?$AAq?$AAa@ 0000000140048f30     libucrtd:lcidtoname_downlevel.obj
 0002:0000cf40       ??_C@_1M@KJDONENM@?$AAa?$AAr?$AA?9?$AAs?$AAa@ 0000000140048f40     libucrtd:lcidtoname_downlevel.obj
 0002:0000cf50       ??_C@_1M@DMJDKLKM@?$AAa?$AAr?$AA?9?$AAs?$AAy@ 0000000140048f50     libucrtd:lcidtoname_downlevel.obj
 0002:0000cf60       ??_C@_1M@OMFIPEDC@?$AAa?$AAr?$AA?9?$AAt?$AAn@ 0000000140048f60     libucrtd:lcidtoname_downlevel.obj
 0002:0000cf70       ??_C@_1M@IHMHGAON@?$AAa?$AAr?$AA?9?$AAy?$AAe@ 0000000140048f70     libucrtd:lcidtoname_downlevel.obj
 0002:0000cf80       ??_C@_1BG@KDCPGJGB@?$AAa?$AAz?$AA?9?$AAa?$AAz?$AA?9?$AAc?$AAy?$AAr?$AAl@ 0000000140048f80     libucrtd:lcidtoname_downlevel.obj
 0002:0000cf98       ??_C@_1BG@IBCKDDOE@?$AAa?$AAz?$AA?9?$AAa?$AAz?$AA?9?$AAl?$AAa?$AAt?$AAn@ 0000000140048f98     libucrtd:lcidtoname_downlevel.obj
 0002:0000cfb0       ??_C@_1M@EGPFDCPD@?$AAb?$AAe?$AA?9?$AAb?$AAy@ 0000000140048fb0     libucrtd:lcidtoname_downlevel.obj
 0002:0000cfc0       ??_C@_1M@PCMGMCGC@?$AAb?$AAg?$AA?9?$AAb?$AAg@ 0000000140048fc0     libucrtd:lcidtoname_downlevel.obj
 0002:0000cfd0       ??_C@_1M@BJBMFGOB@?$AAb?$AAn?$AA?9?$AAi?$AAn@ 0000000140048fd0     libucrtd:lcidtoname_downlevel.obj
 0002:0000cfe0       ??_C@_1BG@EAKMMACD@?$AAb?$AAs?$AA?9?$AAb?$AAa?$AA?9?$AAl?$AAa?$AAt?$AAn@ 0000000140048fe0     libucrtd:lcidtoname_downlevel.obj
 0002:0000cff8       ??_C@_1M@KGADAODK@?$AAc?$AAa?$AA?9?$AAe?$AAs@ 0000000140048ff8     libucrtd:lcidtoname_downlevel.obj
 0002:0000d008       ??_C@_1M@COAJPDHI@?$AAc?$AAs?$AA?9?$AAc?$AAz@ 0000000140049008     libucrtd:lcidtoname_downlevel.obj
 0002:0000d018       ??_C@_1M@DHBHFONH@?$AAc?$AAy?$AA?9?$AAg?$AAb@ 0000000140049018     libucrtd:lcidtoname_downlevel.obj
 0002:0000d028       ??_C@_1M@IMGKELGA@?$AAd?$AAa?$AA?9?$AAd?$AAk@ 0000000140049028     libucrtd:lcidtoname_downlevel.obj
 0002:0000d038       ??_C@_1M@NNDGDNGA@?$AAd?$AAe?$AA?9?$AAa?$AAt@ 0000000140049038     libucrtd:lcidtoname_downlevel.obj
 0002:0000d048       ??_C@_1M@IKDBHEEM@?$AAd?$AAe?$AA?9?$AAc?$AAh@ 0000000140049048     libucrtd:lcidtoname_downlevel.obj
 0002:0000d058       ??_C@_1M@GFFOJMCJ@?$AAd?$AAe?$AA?9?$AAd?$AAe@ 0000000140049058     libucrtd:lcidtoname_downlevel.obj
 0002:0000d068       ??_C@_1M@MDNLKBPM@?$AAd?$AAe?$AA?9?$AAl?$AAi@ 0000000140049068     libucrtd:lcidtoname_downlevel.obj
 0002:0000d078       ??_C@_1M@NJBEEJNL@?$AAd?$AAe?$AA?9?$AAl?$AAu@ 0000000140049078     libucrtd:lcidtoname_downlevel.obj
 0002:0000d088       ??_C@_1O@GNNELBAP@?$AAd?$AAi?$AAv?$AA?9?$AAm?$AAv@ 0000000140049088     libucrtd:lcidtoname_downlevel.obj
 0002:0000d098       ??_C@_1M@EJLEOGAE@?$AAe?$AAl?$AA?9?$AAg?$AAr@ 0000000140049098     libucrtd:lcidtoname_downlevel.obj
 0002:0000d0a8       ??_C@_1M@GMPONJN@?$AAe?$AAn?$AA?9?$AAa?$AAu@ 00000001400490a8     libucrtd:lcidtoname_downlevel.obj
 0002:0000d0b8       ??_C@_1M@NIDIIPGF@?$AAe?$AAn?$AA?9?$AAb?$AAz@ 00000001400490b8     libucrtd:lcidtoname_downlevel.obj
 0002:0000d0c8       ??_C@_1M@JEHMIMFO@?$AAe?$AAn?$AA?9?$AAc?$AAa@ 00000001400490c8     libucrtd:lcidtoname_downlevel.obj
 0002:0000d0d8       ??_C@_1M@IGMJCDLA@?$AAe?$AAn?$AA?9?$AAc?$AAb@ 00000001400490d8     libucrtd:lcidtoname_downlevel.obj
 0002:0000d0e8       ??_C@_1M@BNFIGBKG@?$AAe?$AAn?$AA?9?$AAg?$AAb@ 00000001400490e8     libucrtd:lcidtoname_downlevel.obj
 0002:0000d0f8       ??_C@_1M@LKIFDIGP@?$AAe?$AAn?$AA?9?$AAi?$AAe@ 00000001400490f8     libucrtd:lcidtoname_downlevel.obj
 0002:0000d108       ??_C@_1M@PJKFGCCO@?$AAe?$AAn?$AA?9?$AAj?$AAm@ 0000000140049108     libucrtd:lcidtoname_downlevel.obj
 0002:0000d118       ??_C@_1M@KPPKEPBO@?$AAe?$AAn?$AA?9?$AAn?$AAz@ 0000000140049118     libucrtd:lcidtoname_downlevel.obj
 0002:0000d128       ??_C@_1M@GMDGLDOB@?$AAe?$AAn?$AA?9?$AAp?$AAh@ 0000000140049128     libucrtd:lcidtoname_downlevel.obj
 0002:0000d138       ??_C@_1M@ONGIBJNA@?$AAe?$AAn?$AA?9?$AAt?$AAt@ 0000000140049138     libucrtd:lcidtoname_downlevel.obj
 0002:0000d148       ??_C@_1M@LLODPCMM@?$AAe?$AAn?$AA?9?$AAu?$AAs@ 0000000140049148     libucrtd:lcidtoname_downlevel.obj
 0002:0000d158       ??_C@_1M@LAKFNPAN@?$AAe?$AAn?$AA?9?$AAz?$AAa@ 0000000140049158     libucrtd:lcidtoname_downlevel.obj
 0002:0000d168       ??_C@_1M@MFNHNHEO@?$AAe?$AAn?$AA?9?$AAz?$AAw@ 0000000140049168     libucrtd:lcidtoname_downlevel.obj
 0002:0000d178       ??_C@_1M@EJEINPHM@?$AAe?$AAs?$AA?9?$AAa?$AAr@ 0000000140049178     libucrtd:lcidtoname_downlevel.obj
 0002:0000d188       ??_C@_1M@GNKPCCJA@?$AAe?$AAs?$AA?9?$AAb?$AAo@ 0000000140049188     libucrtd:lcidtoname_downlevel.obj
 0002:0000d198       ??_C@_1M@LEEGFONL@?$AAe?$AAs?$AA?9?$AAc?$AAl@ 0000000140049198     libucrtd:lcidtoname_downlevel.obj
 0002:0000d1a8       ??_C@_1M@KGPDPBDF@?$AAe?$AAs?$AA?9?$AAc?$AAo@ 00000001400491a8     libucrtd:lcidtoname_downlevel.obj
 0002:0000d1b8       ??_C@_1M@EIAHOHH@?$AAe?$AAs?$AA?9?$AAc?$AAr@ 00000001400491b8     libucrtd:lcidtoname_downlevel.obj
 0002:0000d1c8       ??_C@_1M@LLPGMBIN@?$AAe?$AAs?$AA?9?$AAd?$AAo@ 00000001400491c8     libucrtd:lcidtoname_downlevel.obj
 0002:0000d1d8       ??_C@_1M@DKHMKNJA@?$AAe?$AAs?$AA?9?$AAe?$AAc@ 00000001400491d8     libucrtd:lcidtoname_downlevel.obj
 0002:0000d1e8       ??_C@_1M@GKGFPKAP@?$AAe?$AAs?$AA?9?$AAe?$AAs@ 00000001400491e8     libucrtd:lcidtoname_downlevel.obj
 0002:0000d1f8       ??_C@_1M@LKHKGDLN@?$AAe?$AAs?$AA?9?$AAg?$AAt@ 00000001400491f8     libucrtd:lcidtoname_downlevel.obj
 0002:0000d208       ??_C@_1M@HEIIGGJD@?$AAe?$AAs?$AA?9?$AAh?$AAn@ 0000000140049208     libucrtd:lcidtoname_downlevel.obj
 0002:0000d218       ??_C@_1M@FBDHPPGD@?$AAe?$AAs?$AA?9?$AAm?$AAx@ 0000000140049218     libucrtd:lcidtoname_downlevel.obj
 0002:0000d228       ??_C@_1M@DPAGLNDH@?$AAe?$AAs?$AA?9?$AAn?$AAi@ 0000000140049228     libucrtd:lcidtoname_downlevel.obj
 0002:0000d238       ??_C@_1M@MDGOPGDD@?$AAe?$AAs?$AA?9?$AAp?$AAa@ 0000000140049238     libucrtd:lcidtoname_downlevel.obj
 0002:0000d248       ??_C@_1M@EMAMGBGE@?$AAe?$AAs?$AA?9?$AAp?$AAe@ 0000000140049248     libucrtd:lcidtoname_downlevel.obj
 0002:0000d258       ??_C@_1M@IBMCAOEC@?$AAe?$AAs?$AA?9?$AAp?$AAr@ 0000000140049258     libucrtd:lcidtoname_downlevel.obj
 0002:0000d268       ??_C@_1M@FGMDIJED@?$AAe?$AAs?$AA?9?$AAp?$AAy@ 0000000140049268     libucrtd:lcidtoname_downlevel.obj
 0002:0000d278       ??_C@_1M@IIDEOLLL@?$AAe?$AAs?$AA?9?$AAs?$AAv@ 0000000140049278     libucrtd:lcidtoname_downlevel.obj
 0002:0000d288       ??_C@_1M@GAOBIPA@?$AAe?$AAs?$AA?9?$AAu?$AAy@ 0000000140049288     libucrtd:lcidtoname_downlevel.obj
 0002:0000d298       ??_C@_1M@JKFFICHJ@?$AAe?$AAs?$AA?9?$AAv?$AAe@ 0000000140049298     libucrtd:lcidtoname_downlevel.obj
 0002:0000d2a8       ??_C@_1M@PNMLOJDF@?$AAe?$AAt?$AA?9?$AAe?$AAe@ 00000001400492a8     libucrtd:lcidtoname_downlevel.obj
 0002:0000d2b8       ??_C@_1M@GHHLIKEI@?$AAe?$AAu?$AA?9?$AAe?$AAs@ 00000001400492b8     libucrtd:lcidtoname_downlevel.obj
 0002:0000d2c8       ??_C@_1M@PBNONODE@?$AAf?$AAa?$AA?9?$AAi?$AAr@ 00000001400492c8     libucrtd:lcidtoname_downlevel.obj
 0002:0000d2d8       ??_C@_1M@JEEHPMIL@?$AAf?$AAi?$AA?9?$AAf?$AAi@ 00000001400492d8     libucrtd:lcidtoname_downlevel.obj
 0002:0000d2e8       ??_C@_1M@LMDCNDBA@?$AAf?$AAo?$AA?9?$AAf?$AAo@ 00000001400492e8     libucrtd:lcidtoname_downlevel.obj
 0002:0000d2f8       ??_C@_1M@JKEOHLDK@?$AAf?$AAr?$AA?9?$AAb?$AAe@ 00000001400492f8     libucrtd:lcidtoname_downlevel.obj
 0002:0000d308       ??_C@_1M@NOHADPMI@?$AAf?$AAr?$AA?9?$AAc?$AAa@ 0000000140049308     libucrtd:lcidtoname_downlevel.obj
 0002:0000d318       ??_C@_1M@KDHIHAEC@?$AAf?$AAr?$AA?9?$AAc?$AAh@ 0000000140049318     libucrtd:lcidtoname_downlevel.obj
 0002:0000d328       ??_C@_1M@MMBBFGAK@?$AAf?$AAr?$AA?9?$AAf?$AAr@ 0000000140049328     libucrtd:lcidtoname_downlevel.obj
 0002:0000d338       ??_C@_1M@PAFNENNF@?$AAf?$AAr?$AA?9?$AAl?$AAu@ 0000000140049338     libucrtd:lcidtoname_downlevel.obj
 0002:0000d348       ??_C@_1M@EOHDJGDD@?$AAf?$AAr?$AA?9?$AAm?$AAc@ 0000000140049348     libucrtd:lcidtoname_downlevel.obj
 0002:0000d358       ??_C@_1M@FAPLLOPF@?$AAg?$AAl?$AA?9?$AAe?$AAs@ 0000000140049358     libucrtd:lcidtoname_downlevel.obj
 0002:0000d368       ??_C@_1M@FOPBFLOO@?$AAg?$AAu?$AA?9?$AAi?$AAn@ 0000000140049368     libucrtd:lcidtoname_downlevel.obj
 0002:0000d378       ??_C@_1M@KBMCINPM@?$AAh?$AAe?$AA?9?$AAi?$AAl@ 0000000140049378     libucrtd:lcidtoname_downlevel.obj
 0002:0000d388       ??_C@_1M@BBPHKFPJ@?$AAh?$AAi?$AA?9?$AAi?$AAn@ 0000000140049388     libucrtd:lcidtoname_downlevel.obj
 0002:0000d398       ??_C@_1M@PMBNDPHD@?$AAh?$AAr?$AA?9?$AAb?$AAa@ 0000000140049398     libucrtd:lcidtoname_downlevel.obj
 0002:0000d3a8       ??_C@_1M@BPCKOEGE@?$AAh?$AAr?$AA?9?$AAh?$AAr@ 00000001400493a8     libucrtd:lcidtoname_downlevel.obj
 0002:0000d3b8       ??_C@_1M@GACBMHKE@?$AAh?$AAu?$AA?9?$AAh?$AAu@ 00000001400493b8     libucrtd:lcidtoname_downlevel.obj
 0002:0000d3c8       ??_C@_1M@MILPAJJC@?$AAh?$AAy?$AA?9?$AAa?$AAm@ 00000001400493c8     libucrtd:lcidtoname_downlevel.obj
 0002:0000d3d8       ??_C@_1M@BABBICEC@?$AAi?$AAd?$AA?9?$AAi?$AAd@ 00000001400493d8     libucrtd:lcidtoname_downlevel.obj
 0002:0000d3e8       ??_C@_1M@BIKNHHPF@?$AAi?$AAs?$AA?9?$AAi?$AAs@ 00000001400493e8     libucrtd:lcidtoname_downlevel.obj
 0002:0000d3f8       ??_C@_1M@NMPCJPHE@?$AAi?$AAt?$AA?9?$AAc?$AAh@ 00000001400493f8     libucrtd:lcidtoname_downlevel.obj
 0002:0000d408       ??_C@_1M@GHKGFEDF@?$AAi?$AAt?$AA?9?$AAi?$AAt@ 0000000140049408     libucrtd:lcidtoname_downlevel.obj
 0002:0000d418       ??_C@_1M@NIEJCJJA@?$AAj?$AAa?$AA?9?$AAj?$AAp@ 0000000140049418     libucrtd:lcidtoname_downlevel.obj
 0002:0000d428       ??_C@_1M@JILFNBIM@?$AAk?$AAa?$AA?9?$AAg?$AAe@ 0000000140049428     libucrtd:lcidtoname_downlevel.obj
 0002:0000d438       ??_C@_1M@PACPMGPH@?$AAk?$AAk?$AA?9?$AAk?$AAz@ 0000000140049438     libucrtd:lcidtoname_downlevel.obj
 0002:0000d448       ??_C@_1M@IELFGMHA@?$AAk?$AAn?$AA?9?$AAi?$AAn@ 0000000140049448     libucrtd:lcidtoname_downlevel.obj
 0002:0000d458       ??_C@_1O@IBBJHCH@?$AAk?$AAo?$AAk?$AA?9?$AAi?$AAn@ 0000000140049458     libucrtd:lcidtoname_downlevel.obj
 0002:0000d468       ??_C@_1M@DMHAEOGC@?$AAk?$AAo?$AA?9?$AAk?$AAr@ 0000000140049468     libucrtd:lcidtoname_downlevel.obj
 0002:0000d478       ??_C@_1M@HBAHBIGA@?$AAk?$AAy?$AA?9?$AAk?$AAg@ 0000000140049478     libucrtd:lcidtoname_downlevel.obj
 0002:0000d488       ??_C@_1M@KPMILCJG@?$AAl?$AAt?$AA?9?$AAl?$AAt@ 0000000140049488     libucrtd:lcidtoname_downlevel.obj
 0002:0000d498       ??_C@_1M@BDEKKCA@?$AAl?$AAv?$AA?9?$AAl?$AAv@ 0000000140049498     libucrtd:lcidtoname_downlevel.obj
 0002:0000d4a8       ??_C@_1M@ELCKCCJJ@?$AAm?$AAi?$AA?9?$AAn?$AAz@ 00000001400494a8     libucrtd:lcidtoname_downlevel.obj
 0002:0000d4b8       ??_C@_1M@CBOOLAPA@?$AAm?$AAk?$AA?9?$AAm?$AAk@ 00000001400494b8     libucrtd:lcidtoname_downlevel.obj
 0002:0000d4c8       ??_C@_1M@GPHNBJKN@?$AAm?$AAl?$AA?9?$AAi?$AAn@ 00000001400494c8     libucrtd:lcidtoname_downlevel.obj
 0002:0000d4d8       ??_C@_1M@PABJILIG@?$AAm?$AAn?$AA?9?$AAm?$AAn@ 00000001400494d8     libucrtd:lcidtoname_downlevel.obj
 0002:0000d4e8       ??_C@_1M@FGBKKIPG@?$AAm?$AAr?$AA?9?$AAi?$AAn@ 00000001400494e8     libucrtd:lcidtoname_downlevel.obj
 0002:0000d4f8       ??_C@_1M@NDBPDDAL@?$AAm?$AAs?$AA?9?$AAb?$AAn@ 00000001400494f8     libucrtd:lcidtoname_downlevel.obj
 0002:0000d508       ??_C@_1M@OPIHOOPI@?$AAm?$AAs?$AA?9?$AAm?$AAy@ 0000000140049508     libucrtd:lcidtoname_downlevel.obj
 0002:0000d518       ??_C@_1M@PPDBCNFM@?$AAm?$AAt?$AA?9?$AAm?$AAt@ 0000000140049518     libucrtd:lcidtoname_downlevel.obj
 0002:0000d528       ??_C@_1M@KDJDKMDD@?$AAn?$AAb?$AA?9?$AAn?$AAo@ 0000000140049528     libucrtd:lcidtoname_downlevel.obj
 0002:0000d538       ??_C@_1M@KFCFLMJP@?$AAn?$AAl?$AA?9?$AAb?$AAe@ 0000000140049538     libucrtd:lcidtoname_downlevel.obj
 0002:0000d548       ??_C@_1M@KPOPDDGO@?$AAn?$AAl?$AA?9?$AAn?$AAl@ 0000000140049548     libucrtd:lcidtoname_downlevel.obj
 0002:0000d558       ??_C@_1M@LJKPEMLN@?$AAn?$AAn?$AA?9?$AAn?$AAo@ 0000000140049558     libucrtd:lcidtoname_downlevel.obj
 0002:0000d568       ??_C@_1M@BDGHHBFL@?$AAn?$AAs?$AA?9?$AAz?$AAa@ 0000000140049568     libucrtd:lcidtoname_downlevel.obj
 0002:0000d578       ??_C@_1M@IDEHOAP@?$AAp?$AAa?$AA?9?$AAi?$AAn@ 0000000140049578     libucrtd:lcidtoname_downlevel.obj
 0002:0000d588       ??_C@_1M@HDBKGOGH@?$AAp?$AAl?$AA?9?$AAp?$AAl@ 0000000140049588     libucrtd:lcidtoname_downlevel.obj
 0002:0000d598       ??_C@_1M@LJLLCMEH@?$AAp?$AAt?$AA?9?$AAb?$AAr@ 0000000140049598     libucrtd:lcidtoname_downlevel.obj
 0002:0000d5a8       ??_C@_1M@NCMONAAL@?$AAp?$AAt?$AA?9?$AAp?$AAt@ 00000001400495a8     libucrtd:lcidtoname_downlevel.obj
 0002:0000d5b8       ??_C@_1O@EAKMAJDN@?$AAq?$AAu?$AAz?$AA?9?$AAb?$AAo@ 00000001400495b8     libucrtd:lcidtoname_downlevel.obj
 0002:0000d5c8       ??_C@_1O@BHHPIGDN@?$AAq?$AAu?$AAz?$AA?9?$AAe?$AAc@ 00000001400495c8     libucrtd:lcidtoname_downlevel.obj
 0002:0000d5d8       ??_C@_1O@GBAPEKMJ@?$AAq?$AAu?$AAz?$AA?9?$AAp?$AAe@ 00000001400495d8     libucrtd:lcidtoname_downlevel.obj
 0002:0000d5e8       ??_C@_1M@CLGLEFBO@?$AAr?$AAo?$AA?9?$AAr?$AAo@ 00000001400495e8     libucrtd:lcidtoname_downlevel.obj
 0002:0000d5f8       ??_C@_1M@CEEDODME@?$AAr?$AAu?$AA?9?$AAr?$AAu@ 00000001400495f8     libucrtd:lcidtoname_downlevel.obj
 0002:0000d608       ??_C@_1M@HPKKKMPP@?$AAs?$AAa?$AA?9?$AAi?$AAn@ 0000000140049608     libucrtd:lcidtoname_downlevel.obj
 0002:0000d618       ??_C@_1M@BKMAIGOJ@?$AAs?$AAe?$AA?9?$AAf?$AAi@ 0000000140049618     libucrtd:lcidtoname_downlevel.obj
 0002:0000d628       ??_C@_1M@NDPIFLFI@?$AAs?$AAe?$AA?9?$AAn?$AAo@ 0000000140049628     libucrtd:lcidtoname_downlevel.obj
 0002:0000d638       ??_C@_1M@DANKKHJ@?$AAs?$AAe?$AA?9?$AAs?$AAe@ 0000000140049638     libucrtd:lcidtoname_downlevel.obj
 0002:0000d648       ??_C@_1M@PNBLONPJ@?$AAs?$AAk?$AA?9?$AAs?$AAk@ 0000000140049648     libucrtd:lcidtoname_downlevel.obj
 0002:0000d658       ??_C@_1M@LFMODOAL@?$AAs?$AAl?$AA?9?$AAs?$AAi@ 0000000140049658     libucrtd:lcidtoname_downlevel.obj
 0002:0000d668       ??_C@_1O@DFKOMPG@?$AAs?$AAm?$AAa?$AA?9?$AAn?$AAo@ 0000000140049668     libucrtd:lcidtoname_downlevel.obj
 0002:0000d678       ??_C@_1O@NDKPBNNH@?$AAs?$AAm?$AAa?$AA?9?$AAs?$AAe@ 0000000140049678     libucrtd:lcidtoname_downlevel.obj
 0002:0000d688       ??_C@_1O@PLLKBHAB@?$AAs?$AAm?$AAj?$AA?9?$AAn?$AAo@ 0000000140049688     libucrtd:lcidtoname_downlevel.obj
 0002:0000d698       ??_C@_1O@CLEPOGCA@?$AAs?$AAm?$AAj?$AA?9?$AAs?$AAe@ 0000000140049698     libucrtd:lcidtoname_downlevel.obj
 0002:0000d6a8       ??_C@_1O@DLGJGKMK@?$AAs?$AAm?$AAn?$AA?9?$AAf?$AAi@ 00000001400496a8     libucrtd:lcidtoname_downlevel.obj
 0002:0000d6b8       ??_C@_1O@OJDJGAJC@?$AAs?$AAm?$AAs?$AA?9?$AAf?$AAi@ 00000001400496b8     libucrtd:lcidtoname_downlevel.obj
 0002:0000d6c8       ??_C@_1M@BOFOGHPB@?$AAs?$AAq?$AA?9?$AAa?$AAl@ 00000001400496c8     libucrtd:lcidtoname_downlevel.obj
 0002:0000d6d8       ??_C@_1BG@LJBBIPGB@?$AAs?$AAr?$AA?9?$AAb?$AAa?$AA?9?$AAc?$AAy?$AAr?$AAl@ 00000001400496d8     libucrtd:lcidtoname_downlevel.obj
 0002:0000d6f0       ??_C@_1BG@JLBENFOE@?$AAs?$AAr?$AA?9?$AAb?$AAa?$AA?9?$AAl?$AAa?$AAt?$AAn@ 00000001400496f0     libucrtd:lcidtoname_downlevel.obj
 0002:0000d708       ??_C@_1BG@KODPNHE@?$AAs?$AAr?$AA?9?$AAs?$AAp?$AA?9?$AAc?$AAy?$AAr?$AAl@ 0000000140049708     libucrtd:lcidtoname_downlevel.obj
 0002:0000d720       ??_C@_1BG@CIOGKHPB@?$AAs?$AAr?$AA?9?$AAs?$AAp?$AA?9?$AAl?$AAa?$AAt?$AAn@ 0000000140049720     libucrtd:lcidtoname_downlevel.obj
 0002:0000d738       ??_C@_1M@NGFJLMAC@?$AAs?$AAv?$AA?9?$AAf?$AAi@ 0000000140049738     libucrtd:lcidtoname_downlevel.obj
 0002:0000d748       ??_C@_1M@MPJEJAJC@?$AAs?$AAv?$AA?9?$AAs?$AAe@ 0000000140049748     libucrtd:lcidtoname_downlevel.obj
 0002:0000d758       ??_C@_1M@MPNDHLFK@?$AAs?$AAw?$AA?9?$AAk?$AAe@ 0000000140049758     libucrtd:lcidtoname_downlevel.obj
 0002:0000d768       ??_C@_1O@KOHBJJI@?$AAs?$AAy?$AAr?$AA?9?$AAs?$AAy@ 0000000140049768     libucrtd:lcidtoname_downlevel.obj
 0002:0000d778       ??_C@_1M@LDCEFHA@?$AAt?$AAa?$AA?9?$AAi?$AAn@ 0000000140049778     libucrtd:lcidtoname_downlevel.obj
 0002:0000d788       ??_C@_1M@CNJOFAK@?$AAt?$AAe?$AA?9?$AAi?$AAn@ 0000000140049788     libucrtd:lcidtoname_downlevel.obj
 0002:0000d798       ??_C@_1M@GNAECACD@?$AAt?$AAh?$AA?9?$AAt?$AAh@ 0000000140049798     libucrtd:lcidtoname_downlevel.obj
 0002:0000d7a8       ??_C@_1M@CHBIHOJO@?$AAt?$AAn?$AA?9?$AAz?$AAa@ 00000001400497a8     libucrtd:lcidtoname_downlevel.obj
 0002:0000d7b8       ??_C@_1M@GCCMIGPJ@?$AAt?$AAr?$AA?9?$AAt?$AAr@ 00000001400497b8     libucrtd:lcidtoname_downlevel.obj
 0002:0000d7c8       ??_C@_1M@CELMCNBK@?$AAt?$AAt?$AA?9?$AAr?$AAu@ 00000001400497c8     libucrtd:lcidtoname_downlevel.obj
 0002:0000d7d8       ??_C@_1M@KLMCELGA@?$AAu?$AAk?$AA?9?$AAu?$AAa@ 00000001400497d8     libucrtd:lcidtoname_downlevel.obj
 0002:0000d7e8       ??_C@_1M@EPAJJAJF@?$AAu?$AAr?$AA?9?$AAp?$AAk@ 00000001400497e8     libucrtd:lcidtoname_downlevel.obj
 0002:0000d7f8       ??_C@_1BG@GEGPMCDJ@?$AAu?$AAz?$AA?9?$AAu?$AAz?$AA?9?$AAc?$AAy?$AAr?$AAl@ 00000001400497f8     libucrtd:lcidtoname_downlevel.obj
 0002:0000d810       ??_C@_1BG@EGGKJILM@?$AAu?$AAz?$AA?9?$AAu?$AAz?$AA?9?$AAl?$AAa?$AAt?$AAn@ 0000000140049810     libucrtd:lcidtoname_downlevel.obj
 0002:0000d828       ??_C@_1M@GFOCLFF@?$AAv?$AAi?$AA?9?$AAv?$AAn@ 0000000140049828     libucrtd:lcidtoname_downlevel.obj
 0002:0000d838       ??_C@_1M@CPAMEDFI@?$AAx?$AAh?$AA?9?$AAz?$AAa@ 0000000140049838     libucrtd:lcidtoname_downlevel.obj
 0002:0000d848       ??_C@_1O@EBKIFIGN@?$AAz?$AAh?$AA?9?$AAc?$AAh?$AAs@ 0000000140049848     libucrtd:lcidtoname_downlevel.obj
 0002:0000d858       ??_C@_1O@NMHPGANE@?$AAz?$AAh?$AA?9?$AAc?$AAh?$AAt@ 0000000140049858     libucrtd:lcidtoname_downlevel.obj
 0002:0000d868       ??_C@_1M@LPINJOMC@?$AAz?$AAh?$AA?9?$AAc?$AAn@ 0000000140049868     libucrtd:lcidtoname_downlevel.obj
 0002:0000d878       ??_C@_1M@OCJEJODD@?$AAz?$AAh?$AA?9?$AAh?$AAk@ 0000000140049878     libucrtd:lcidtoname_downlevel.obj
 0002:0000d888       ??_C@_1M@DNDLJINH@?$AAz?$AAh?$AA?9?$AAm?$AAo@ 0000000140049888     libucrtd:lcidtoname_downlevel.obj
 0002:0000d898       ??_C@_1M@MBFDNDND@?$AAz?$AAh?$AA?9?$AAs?$AAg@ 0000000140049898     libucrtd:lcidtoname_downlevel.obj
 0002:0000d8a8       ??_C@_1M@IMEPLEPE@?$AAz?$AAh?$AA?9?$AAt?$AAw@ 00000001400498a8     libucrtd:lcidtoname_downlevel.obj
 0002:0000d8b8       ??_C@_1M@BBGHNHJP@?$AAz?$AAu?$AA?9?$AAz?$AAa@ 00000001400498b8     libucrtd:lcidtoname_downlevel.obj
 0002:0000d8d0       ??_C@_1GA@DEPMKPD@?$AAm?$AAi?$AAn?$AAk?$AAe?$AAr?$AAn?$AAe?$AAl?$AA?2?$AAc?$AAr?$AAt?$AAs?$AA?2@ 00000001400498d0     libucrtd:isatty.obj
 0002:0000d930       ??_C@_1BA@LEBDGIHM@?$AA_?$AAi?$AAs?$AAa?$AAt?$AAt?$AAy@ 0000000140049930     libucrtd:isatty.obj
 0002:0000d940       ??_C@_1GG@MCCIENJO@?$AAm?$AAi?$AAn?$AAk?$AAe?$AAr?$AAn?$AAe?$AAl?$AA?2?$AAc?$AAr?$AAt?$AAs?$AA?2@ 0000000140049940     libucrtd:mbrtowc.obj
 0002:0000d9b0       ??_C@_1EK@MCEFBPIK@?$AAr?$AAe?$AAt?$AAv?$AAa?$AAl?$AA?5?$AA?$CB?$AA?$DN?$AA?5?$AA_?$AA_?$AAc?$AAr?$AAt@ 00000001400499b0     libucrtd:mbrtowc.obj
 0002:0000da00       ??_C@_1EK@OANGPA@?$AA1?$AA?5?$AA?$DM?$AA?$DN?$AA?5?$AAt?$AAr?$AAa?$AAi?$AAl?$AA_?$AAb?$AAy?$AAt?$AAe@ 0000000140049a00     libucrtd:c32rtomb.obj
 0002:0000da50       ??_C@_1GI@FBFKMNDD@?$AAm?$AAi?$AAn?$AAk?$AAe?$AAr?$AAn?$AAe?$AAl?$AA?2?$AAc?$AAr?$AAt?$AAs?$AA?2@ 0000000140049a50     libucrtd:c32rtomb.obj
 0002:0000dac0       ??_C@_1EA@DDDCIHI@?$AAc?$AA3?$AA2?$AA?5?$AA?$DM?$AA?5?$AA?$CI?$AA1?$AAu?$AA?5?$AA?$DM?$AA?$DM?$AA?5?$AA?$CI?$AA7@ 0000000140049ac0     libucrtd:c32rtomb.obj
 0002:0000db00       ??_C@_1GI@IMEEHIAK@?$AAm?$AAi?$AAn?$AAk?$AAe?$AAr?$AAn?$AAe?$AAl?$AA?2?$AAc?$AAr?$AAt?$AAs?$AA?2@ 0000000140049b00     libucrtd:_fptostr.obj
 0002:0000db68       ??_C@_1DG@NMGBKPMI@?$AA_?$AA_?$AAa?$AAc?$AAr?$AAt?$AA_?$AAf?$AAp?$AA_?$AAs?$AAt?$AAr?$AAf?$AAl@ 0000000140049b68     libucrtd:_fptostr.obj
 0002:0000dba0       ??_C@_1IE@EAOKIIFP@?$AAb?$AAu?$AAf?$AAf?$AAe?$AAr?$AA_?$AAc?$AAo?$AAu?$AAn?$AAt?$AA?5?$AA?$DO?$AA?5@ 0000000140049ba0     libucrtd:_fptostr.obj
 0002:0000dc28       ??_C@_1CA@EDEEBMBB@?$AAp?$AAf?$AAl?$AAt?$AA?5?$AA?$CB?$AA?$DN?$AA?5?$AAn?$AAu?$AAl?$AAl?$AAp?$AAt?$AAr@ 0000000140049c28     libucrtd:_fptostr.obj
 0002:0000dc50       ?large_power_data@?1??multiply_by_power_of_ten@__crt_strtox@@YA_NAEAUbig_integer@2@I@Z@4QBIB 0000000140049c50     libucrtd:cfout.obj
 0002:0000e560       ?large_power_indices@?1??multiply_by_power_of_ten@__crt_strtox@@YA_NAEAUbig_integer@2@I@Z@4QBUunpack_index@?1??12@YA_N0I@Z@B 000000014004a560     libucrtd:cfout.obj
 0002:0000e5f8       ?small_powers_of_ten@?1??multiply_by_power_of_ten@__crt_strtox@@YA_NAEAUbig_integer@2@I@Z@4QBIB 000000014004a5f8     libucrtd:cfout.obj
 0002:0000e620       ??_C@_1DI@GICAMMFM@?$AA?$CI?$AA?$CC?$AAD?$AAi?$AAv?$AAi?$AAs?$AAi?$AAo?$AAn?$AA?5?$AAb?$AAy?$AA?5?$AAz@ 000000014004a620     libucrtd:cfout.obj
 0002:0000e660       ??_C@_1GO@BFGDDONN@?$AAm?$AAi?$AAn?$AAk?$AAe?$AAr?$AAn?$AAe?$AAl?$AA?2?$AAc?$AAr?$AAt?$AAs?$AA?2@ 000000014004a660     libucrtd:cfout.obj
 0002:0000e6d0       ??_C@_1GC@DDAKNBNC@?$AAm?$AAi?$AAn?$AAk?$AAe?$AAr?$AAn?$AAe?$AAl?$AA?2?$AAc?$AAr?$AAt?$AAs?$AA?2@ 000000014004a6d0     libucrtd:cfout.obj
 0002:0000e738       ??_C@_1BM@FAAOAKKO@?$AA_?$AA_?$AAa?$AAc?$AAr?$AAt?$AA_?$AAf?$AAl?$AAt?$AAo?$AAu?$AAt@ 000000014004a738     libucrtd:cfout.obj
 0002:0000e760       ??_C@_1EI@OACEJKEP@?$AAs?$AAt?$AAr?$AAc?$AAp?$AAy?$AA_?$AAs?$AA?$CI?$AAr?$AAe?$AAs?$AAu?$AAl?$AAt@ 000000014004a760     libucrtd:cfout.obj
 0002:0000e7a8       ??_C@_01GBGANLPD@0@        000000014004a7a8     libucrtd:cfout.obj
 0002:0000e7b0       ??_C@_1FC@KIECGFMP@?$AAs?$AAt?$AAr?$AAc?$AAp?$AAy?$AA_?$AAs?$AA?$CI?$AAr?$AAe?$AAs?$AAu?$AAl?$AAt@ 000000014004a7b0     libucrtd:cfout.obj
 0002:0000e804       ??_C@_05DNEBIAHO@1?$CDINF@ 000000014004a804     libucrtd:cfout.obj
 0002:0000e810       ??_C@_1FC@NFPJEIBD@?$AAs?$AAt?$AAr?$AAc?$AAp?$AAy?$AA_?$AAs?$AA?$CI?$AAr?$AAe?$AAs?$AAu?$AAl?$AAt@ 000000014004a810     libucrtd:cfout.obj
 0002:0000e864       ??_C@_06IMKFLFPG@1?$CDQNAN@ 000000014004a864     libucrtd:cfout.obj
 0002:0000e870       ??_C@_1FC@DEJHIMLO@?$AAs?$AAt?$AAr?$AAc?$AAp?$AAy?$AA_?$AAs?$AA?$CI?$AAr?$AAe?$AAs?$AAu?$AAl?$AAt@ 000000014004a870     libucrtd:cfout.obj
 0002:0000e8c4       ??_C@_06PGGFOGJG@1?$CDSNAN@ 000000014004a8c4     libucrtd:cfout.obj
 0002:0000e8d0       ??_C@_1FC@KMLHLFPC@?$AAs?$AAt?$AAr?$AAc?$AAp?$AAy?$AA_?$AAs?$AA?$CI?$AAr?$AAe?$AAs?$AAu?$AAl?$AAt@ 000000014004a8d0     libucrtd:cfout.obj
 0002:0000e924       ??_C@_05PHHOCPM@1?$CDIND@  000000014004a924     libucrtd:cfout.obj
 0002:0000e930       ??_C@_1DE@KHKADFOO@?$AAm?$AAa?$AAn?$AAt?$AAi?$AAs?$AAs?$AAa?$AA_?$AAb?$AAu?$AAf?$AAf?$AAe?$AAr@ 000000014004a930     libucrtd:cfout.obj
 0002:0000e970       ??_C@_1FI@LFKLOPAC@?$AA?$CI?$AA?$CC?$AAu?$AAn?$AAe?$AAx?$AAp?$AAe?$AAc?$AAt?$AAe?$AAd?$AA?5?$AAi?$AAn@ 000000014004a970     libucrtd:cfout.obj
 0002:0000e9d0       ??_C@_1FG@MLHBDPBG@?$AAq?$AAu?$AAo?$AAt?$AAi?$AAe?$AAn?$AAt?$AA?5?$AA?$DM?$AA?5?$AAd?$AAi?$AAg?$AAi@ 000000014004a9d0     libucrtd:cfout.obj
 0002:0000ea30       ??_C@_1GE@GPOPIOIG@?$AAm?$AAi?$AAn?$AAk?$AAe?$AAr?$AAn?$AAe?$AAl?$AA?2?$AAc?$AAr?$AAt?$AAs?$AA?2@ 000000014004aa30     libucrtd:_freebuf.obj
 0002:0000ea98       ??_C@_1BK@FPAMLIDG@?$AAs?$AA?5?$AA?$CB?$AA?$DN?$AA?5?$AAn?$AAu?$AAl?$AAl?$AAp?$AAt?$AAr@ 000000014004aa98     libucrtd:mbstowcs.obj
 0002:0000eac0       ??_C@_1GI@KABMHNPH@?$AAm?$AAi?$AAn?$AAk?$AAe?$AAr?$AAn?$AAe?$AAl?$AA?2?$AAc?$AAr?$AAt?$AAs?$AA?2@ 000000014004aac0     libucrtd:mbstowcs.obj
 0002:0000eb28       ??_C@_1CG@JEHFHLNG@?$AA_?$AAm?$AAb?$AAs?$AAt?$AAo?$AAw?$AAc?$AAs?$AA_?$AAl?$AA_?$AAh?$AAe?$AAl@ 000000014004ab28     libucrtd:mbstowcs.obj
 0002:0000eb50       ??_C@_1JM@MEKBACIG@?$AA?$CI?$AAp?$AAw?$AAc?$AAs?$AA?5?$AA?$DN?$AA?$DN?$AA?5?$AAn?$AAu?$AAl?$AAl?$AAp?$AAt@ 000000014004ab50     libucrtd:mbstowcs.obj
 0002:0000ebf0       ??_C@_1BM@PHENIGHD@?$AA_?$AAm?$AAb?$AAs?$AAt?$AAo?$AAw?$AAc?$AAs?$AA_?$AAs?$AA_?$AAl@ 000000014004abf0     libucrtd:mbstowcs.obj
 0002:0000ec10       ??_C@_1CM@LLECFMFH@?$AAb?$AAu?$AAf?$AAf?$AAe?$AAr?$AAS?$AAi?$AAz?$AAe?$AA?5?$AA?$DM?$AA?$DN?$AA?5?$AAI@ 000000014004ac10     libucrtd:mbstowcs.obj
 0002:0000ec40       ??_C@_1CO@JNPEPJAL@?$AAr?$AAe?$AAt?$AAs?$AAi?$AAz?$AAe?$AA?5?$AA?$DM?$AA?$DN?$AA?5?$AAs?$AAi?$AAz?$AAe@ 000000014004ac40     libucrtd:mbstowcs.obj
 0002:0000ec98       ??_C@_1CA@NOKNKDIG@?$AAp?$AAw?$AAc?$AAs?$AA?5?$AA?$CB?$AA?$DN?$AA?5?$AAn?$AAu?$AAl?$AAl?$AAp?$AAt?$AAr@ 000000014004ac98     libucrtd:wcstombs.obj
 0002:0000ecc0       ??_C@_1GI@EEJDEALP@?$AAm?$AAi?$AAn?$AAk?$AAe?$AAr?$AAn?$AAe?$AAl?$AA?2?$AAc?$AAr?$AAt?$AAs?$AA?2@ 000000014004acc0     libucrtd:wcstombs.obj
 0002:0000ed28       ??_C@_1CG@LLJCAOHF@?$AA_?$AAw?$AAc?$AAs?$AAt?$AAo?$AAm?$AAb?$AAs?$AA_?$AAl?$AA_?$AAh?$AAe?$AAl@ 000000014004ad28     libucrtd:wcstombs.obj
 0002:0000ed50       ??_C@_1JI@DFNKFCLG@?$AA?$CI?$AAd?$AAs?$AAt?$AA?5?$AA?$CB?$AA?$DN?$AA?5?$AAn?$AAu?$AAl?$AAl?$AAp?$AAt?$AAr@ 000000014004ad50     libucrtd:wcstombs.obj
 0002:0000ede8       ??_C@_1BM@BDMCLLDL@?$AA_?$AAw?$AAc?$AAs?$AAt?$AAo?$AAm?$AAb?$AAs?$AA_?$AAs?$AA_?$AAl@ 000000014004ade8     libucrtd:wcstombs.obj
 0002:0000ee08       ??_C@_1CM@KEOGBFLI@?$AAs?$AAi?$AAz?$AAe?$AAI?$AAn?$AAB?$AAy?$AAt?$AAe?$AAs?$AA?5?$AA?$DO?$AA?5?$AAr@ 000000014004ae08     libucrtd:wcstombs.obj
 0002:0000ee40       ??_C@_1GA@MPOOLHCO@?$AAm?$AAi?$AAn?$AAk?$AAe?$AAr?$AAn?$AAe?$AAl?$AA?2?$AAc?$AAr?$AAt?$AAs?$AA?2@ 000000014004ae40     libucrtd:commit.obj
 0002:0000eea0       ??_C@_1BA@FLNMBBIM@?$AA_?$AAc?$AAo?$AAm?$AAm?$AAi?$AAt@ 000000014004aea0     libucrtd:commit.obj
 0002:0000eeb0       ??_C@_1FO@CAMPMGCN@?$AAm?$AAi?$AAn?$AAk?$AAe?$AAr?$AAn?$AAe?$AAl?$AA?2?$AAc?$AAr?$AAt?$AAs?$AA?2@ 000000014004aeb0     libucrtd:write.obj
 0002:0000ef10       ??_C@_1O@KOFKDHPL@?$AA_?$AAw?$AAr?$AAi?$AAt?$AAe@ 000000014004af10     libucrtd:write.obj
 0002:0000ef20       ??_C@_1CK@MMEFCHHN@?$AA?$CB?$AA_?$AAd?$AAb?$AAc?$AAs?$AAB?$AAu?$AAf?$AAf?$AAe?$AAr?$AAU?$AAs?$AAe@ 000000014004af20     libucrtd:write.obj
 0002:0000ef50       ??_C@_1EG@LICJGLJJ@?$AA1?$AA?5?$AA?$DM?$AA?5?$AAm?$AAb?$AA_?$AAl?$AAe?$AAn?$AA?5?$AA?$CG?$AA?$CG?$AA?5?$AAm@ 000000014004af50     libucrtd:write.obj
 0002:0000efa0       ??_C@_1FC@NFILPJB@?$AAm?$AAb?$AA_?$AAb?$AAu?$AAf?$AA_?$AAu?$AAs?$AAe?$AAd?$AA?5?$AA?$CL?$AA?5?$AAb@ 000000014004afa0     libucrtd:write.obj
 0002:0000f000       ??_C@_1FC@HEJOPHLA@?$AAa?$AAv?$AAa?$AAi?$AAl?$AAa?$AAb?$AAl?$AAe?$AA_?$AAb?$AAy?$AAt?$AAe?$AAs@ 000000014004b000     libucrtd:write.obj
 0002:0000f058       ??_C@_1DI@CNMHHHLG@?$AAi?$AAs?$AAl?$AAe?$AAa?$AAd?$AAb?$AAy?$AAt?$AAe?$AA?$CI?$AA_?$AAd?$AAb?$AAc@ 000000014004b058     libucrtd:write.obj
 0002:0000f090       ??_C@_1BM@NCANHCIP@?$AA_?$AAw?$AAr?$AAi?$AAt?$AAe?$AA_?$AAn?$AAo?$AAl?$AAo?$AAc?$AAk@ 000000014004b090     libucrtd:write.obj
 0002:0000f0b0       ??_C@_1CK@CPEAGIIP@?$AAb?$AAu?$AAf?$AAf?$AAe?$AAr?$AA_?$AAs?$AAi?$AAz?$AAe?$AA?5?$AA?$CF?$AA?5?$AA2@ 000000014004b0b0     libucrtd:write.obj
 0002:0000f330       __real@3ff0000000000000    000000014004b330     libucrtd:ceil.obj
 0002:0000f338       ??_C@_1DG@JNDMIEJL@?$AA?$CI?$AA?$CC?$AAI?$AAn?$AAv?$AAa?$AAl?$AAi?$AAd?$AA?5?$AAi?$AAn?$AAp?$AAu?$AAt@ 000000014004b338     libucrtd:contrlfp.obj
 0002:0000f370       ??_C@_1FO@HHLKCIKB@?$AAm?$AAi?$AAn?$AAk?$AAe?$AAr?$AAn?$AAe?$AAl?$AA?2?$AAc?$AAr?$AAt?$AAs?$AA?2@ 000000014004b370     libucrtd:contrlfp.obj
 0002:0000f3d0       ??_C@_1BK@CDOALEA@?$AA_?$AAc?$AAo?$AAn?$AAt?$AAr?$AAo?$AAl?$AAf?$AAp?$AA_?$AAs@ 000000014004b3d0     libucrtd:contrlfp.obj
 0002:0000f3f0       ??_C@_1FO@KIIHJNFN@?$AAm?$AAi?$AAn?$AAk?$AAe?$AAr?$AAn?$AAe?$AAl?$AA?2?$AAc?$AAr?$AAt?$AAs?$AA?2@ 000000014004b3f0     libucrtd:lseek.obj
 0002:0000f450       ??_C@_1DM@LMLOLGJ@?$AA?$CI?$AA?$CC?$AAI?$AAn?$AAv?$AAa?$AAl?$AAi?$AAd?$AA?5?$AAf?$AAi?$AAl?$AAe?$AA?5@ 000000014004b450     libucrtd:lseek.obj
 0002:0000f490       ??_C@_1GA@DKNOMDCL@?$AAm?$AAi?$AAn?$AAk?$AAe?$AAr?$AAn?$AAe?$AAl?$AA?2?$AAc?$AAr?$AAt?$AAs?$AA?2@ 000000014004b490     libucrtd:fclose.obj
 0002:0000f4f0       ??_C@_1O@EGMJNCOI@?$AAf?$AAc?$AAl?$AAo?$AAs?$AAe@ 000000014004b4f0     libucrtd:fclose.obj
 0002:0000f500       ??_C@_1BO@JINCABEC@?$AA_?$AAf?$AAc?$AAl?$AAo?$AAs?$AAe?$AA_?$AAn?$AAo?$AAl?$AAo?$AAc?$AAk@ 000000014004b500     libucrtd:fclose.obj
 0002:0000f520       __log10_256_lead           000000014004b520     libucrtd:log10_256_lead_tail_table.obj
 0002:0000fd30       __log10_256_tail           000000014004bd30     libucrtd:log10_256_lead_tail_table.obj
 0002:00010540       __log_F_inv_qword          000000014004c540     libucrtd:log_f_inv_qword_table.obj
 0002:00010d50       ??_C@_05HGHHAHAP@log10@    000000014004cd50     libucrtd:log_special.obj
 0002:00010d60       ??_C@_1EK@PDBKILLM@?$AA?$CI?$AAm?$AAa?$AAs?$AAk?$AA?$CG?$AA?$HO?$AA?$CI?$AA_?$AAM?$AAC?$AAW?$AA_?$AAD?$AAN@ 000000014004cd60     libucrtd:ieee.obj
 0002:00010db0       ??_C@_1GC@IEFABLII@?$AAm?$AAi?$AAn?$AAk?$AAe?$AAr?$AAn?$AAe?$AAl?$AA?2?$AAc?$AAr?$AAt?$AAs?$AA?2@ 000000014004cdb0     libucrtd:ieee.obj
 0002:00010e20       ??_C@_1FO@IPDGALOE@?$AAm?$AAi?$AAn?$AAk?$AAe?$AAr?$AAn?$AAe?$AAl?$AA?2?$AAc?$AAr?$AAt?$AAs?$AA?2@ 000000014004ce20     libucrtd:close.obj
 0002:00010e80       ??_C@_1O@EDEJGJBM@?$AA_?$AAc?$AAl?$AAo?$AAs?$AAe@ 000000014004ce80     libucrtd:close.obj
 0002:00010e90       ??_C@_1BA@BALFACEM@?$AAC?$AAO?$AAN?$AAO?$AAU?$AAT?$AA$@ 000000014004ce90     libucrtd:initcon.obj
 0002:00010eb8       ??_7type_info@@6B@         000000014004ceb8     LIBCMTD:std_type_info_static.obj
 0002:00010f20       _load_config_used          000000014004cf20     LIBCMTD:loadcfg.obj
 0002:00011080       ??_R4exception@std@@6B@    000000014004d080     libvcruntimed:frame.obj
 0002:000110a8       ??_R3exception@std@@8      000000014004d0a8     libvcruntimed:frame.obj
 0002:000110c0       ??_R2exception@std@@8      000000014004d0c0     libvcruntimed:frame.obj
 0002:000110d0       ??_R1A@?0A@EA@exception@std@@8 000000014004d0d0     libvcruntimed:frame.obj
 0002:000110f8       ??_R4bad_exception@std@@6B@ 000000014004d0f8     libvcruntimed:frame.obj
 0002:00011120       ??_R3bad_exception@std@@8  000000014004d120     libvcruntimed:frame.obj
 0002:00011138       ??_R2bad_exception@std@@8  000000014004d138     libvcruntimed:frame.obj
 0002:00011150       ??_R1A@?0A@EA@bad_exception@std@@8 000000014004d150     libvcruntimed:frame.obj
 0002:00011178       ??_R4type_info@@6B@        000000014004d178     LIBCMTD:std_type_info_static.obj
 0002:000111a0       ??_R3type_info@@8          000000014004d1a0     LIBCMTD:std_type_info_static.obj
 0002:000111b8       ??_R2type_info@@8          000000014004d1b8     LIBCMTD:std_type_info_static.obj
 0002:000111c8       ??_R1A@?0A@EA@type_info@@8 000000014004d1c8     LIBCMTD:std_type_info_static.obj
 0002:000111ec       __volatile_metadata        000000014004d1ec     <linker-defined>
 0002:00011648       __rtc_iaa                  000000014004d648     LIBCMTD:initsect.obj
 0002:00011650       __rtc_izz                  000000014004d650     LIBCMTD:initsect.obj
 0002:00011658       __rtc_taa                  000000014004d658     LIBCMTD:initsect.obj
 0002:00011660       __rtc_tzz                  000000014004d660     LIBCMTD:initsect.obj
 0002:00012818       _TI2?AVbad_exception@std@@ 000000014004e818     libvcruntimed:frame.obj
 0002:00012838       _CTA2?AVbad_exception@std@@ 000000014004e838     libvcruntimed:frame.obj
 0002:00012850       _CT??_R0?AVbad_exception@std@@@8??0bad_exception@std@@QEAA@AEBV01@@Z24 000000014004e850     libvcruntimed:frame.obj
 0002:00012878       _CT??_R0?AVexception@std@@@8??0exception@std@@QEAA@AEBV01@@Z24 000000014004e878     libvcruntimed:frame.obj
 0002:0001289c       __IMPORT_DESCRIPTOR_USER32 000000014004e89c     user32:USER32.dll
 0002:000128b0       __IMPORT_DESCRIPTOR_GDI32  000000014004e8b0     gdi32:GDI32.dll
 0002:000128c4       __IMPORT_DESCRIPTOR_WINMM  000000014004e8c4     winmm:WINMM.dll
 0002:000128d8       __IMPORT_DESCRIPTOR_KERNEL32 000000014004e8d8     kernel32:KERNEL32.dll
 0002:000128ec       __NULL_IMPORT_DESCRIPTOR   000000014004e8ec     user32:USER32.dll
 0003:00000010       __security_cookie_complement 0000000140050010     LIBCMTD:gs_cookie.obj
 0003:00000018       __security_cookie          0000000140050018     LIBCMTD:gs_cookie.obj
 0003:00000020       _fltused                   0000000140050020     LIBCMTD:fltused.obj
 0003:00000024       __scrt_native_dllmain_reason 0000000140050024     LIBCMTD:utility.obj
 0003:00000028       __scrt_default_matherr     0000000140050028     LIBCMTD:matherr.obj
 0003:00000030       __isa_available            0000000140050030     LIBCMTD:cpu_disp.obj
 0003:00000034       __isa_enabled              0000000140050034     LIBCMTD:cpu_disp.obj
 0003:00000038       __memcpy_nt_iters          0000000140050038     LIBCMTD:cpu_disp.obj
 0003:00000040       __memset_nt_iters          0000000140050040     LIBCMTD:cpu_disp.obj
 0003:00000064       _crtDbgFlag                0000000140050064     libucrtd:debug_heap.obj
 0003:00000068       _crtBreakAlloc             0000000140050068     libucrtd:debug_heap.obj
 0003:00000070       __abort_behavior           0000000140050070     libucrtd:abort.obj
 0003:00000090       __acrt_initial_multibyte_data 0000000140050090     libucrtd:mbctype.obj
 0003:000005d0       __acrt_initial_locale_data 00000001400505d0     libucrtd:nlsdata.obj
 0003:00000728       __acrt_initial_locale_pointers 0000000140050728     libucrtd:nlsdata.obj
 0003:00000738       __acrt_wide_c_locale_string 0000000140050738     libucrtd:nlsdata.obj
 0003:00000740       _pwctype                   0000000140050740     libucrtd:ctype.obj
 0003:00000750       __acrt_lconv_c             0000000140050750     libucrtd:localeconv.obj
 0003:000007e8       __acrt_lconv_static_decimal 00000001400507e8     libucrtd:localeconv.obj
 0003:000007ec       __acrt_lconv_static_W_decimal 00000001400507ec     libucrtd:localeconv.obj
 0003:000007f0       __globallocalestatus       00000001400507f0     libucrtd:glstatus.obj
 0003:000007f8       _pfnAllocHook              00000001400507f8     libucrtd:debug_heap_hook.obj
 0003:00000810       _iob                       0000000140050810     libucrtd:_file.obj
 0003:00000918       _crtAssertBusy             0000000140050918     libucrtd:dbgrptt.obj
 0003:00000920       _CrtDbgMode                0000000140050920     libucrtd:dbgrptt.obj
 0003:00000930       _CrtDbgFile                0000000140050930     libucrtd:dbgrptt.obj
 0003:00000950       _lookuptrailbytes          0000000140050950     libucrtd:read.obj
 0003:00000a70       ??_R0?AVbad_exception@std@@@8 0000000140050a70     libvcruntimed:frame.obj
 0003:00000a98       ??_R0?AVexception@std@@@8  0000000140050a98     libvcruntimed:frame.obj
 0003:00000ac0       ??_R0?AVtype_info@@@8      0000000140050ac0     LIBCMTD:std_type_info_static.obj
 0003:000010b0       __scrt_current_native_startup_state 00000001400510b0     LIBCMTD:utility.obj
 0003:000010b8       __scrt_native_startup_lock 00000001400510b8     LIBCMTD:utility.obj
 0003:00001100       ?__type_info_root_node@@3U__type_info_node@@A 0000000140051100     LIBCMTD:tncleanup.obj
 0003:00001110       ?_OptionsStorage@?1??__local_stdio_printf_options@@9@4_KA 0000000140051110     LIBCMTD:default_local_stdio_options.obj
 0003:00001118       ?_OptionsStorage@?1??__local_stdio_scanf_options@@9@4_KA 0000000140051118     LIBCMTD:default_local_stdio_options.obj
 0003:00001120       __scrt_debugger_hook_flag  0000000140051120     LIBCMTD:utility_desktop.obj
 0003:00001128       __castguard_check_failure_os_handled_fptr 0000000140051128     LIBCMTD:guard_support.obj
 0003:00001130       __favor                    0000000140051130     LIBCMTD:cpu_disp.obj
 0003:00001138       ?__WinRTOutOfMemoryExceptionCallback@@3P6APEAXXZEA 0000000140051138     libvcruntimed:ehhelpers.obj
 0003:000011f0       ?pArgList@UnDecorator@@0PEAVReplicator@@EA 00000001400511f0     libvcruntimed:undname.obj
 0003:000011f8       ?pZNameList@UnDecorator@@0PEAVReplicator@@EA 00000001400511f8     libvcruntimed:undname.obj
 0003:00001200       ?pTemplateArgList@UnDecorator@@0PEAVReplicator@@EA 0000000140051200     libvcruntimed:undname.obj
 0003:00001208       ?gName@UnDecorator@@0PEBDEB 0000000140051208     libvcruntimed:undname.obj
 0003:00001210       ?name@UnDecorator@@0PEBDEB 0000000140051210     libvcruntimed:undname.obj
 0003:00001218       ?disableFlags@UnDecorator@@0KA 0000000140051218     libvcruntimed:undname.obj
 0003:0000121c       ?fExplicitTemplateParams@UnDecorator@@0_NA 000000014005121c     libvcruntimed:undname.obj
 0003:0000121d       ?fGetTemplateArgumentList@UnDecorator@@0_NA 000000014005121d     libvcruntimed:undname.obj
 0003:00001220       ?m_pGetParameter@UnDecorator@@0P6APEADJ@ZEA 0000000140051220     libvcruntimed:undname.obj
 0003:00001228       ?m_CHPENameOffset@UnDecorator@@0KA 0000000140051228     libvcruntimed:undname.obj
 0003:0000122c       ?m_recursionLevel@UnDecorator@@0KA 000000014005122c     libvcruntimed:undname.obj
 0003:00001298       __pPurecall                0000000140051298     libvcruntimed:purevirt_data.obj
 0003:000019e8       _environ_table             00000001400519e8     libucrtd:environment_initialization.obj
 0003:000019f0       _wenviron_table            00000001400519f0     libucrtd:environment_initialization.obj
 0003:000019f8       __dcrt_initial_wide_environment 00000001400519f8     libucrtd:environment_initialization.obj
 0003:00001a00       __dcrt_initial_narrow_environment 0000000140051a00     libucrtd:environment_initialization.obj
 0003:00001a18       ?c_exit_complete@?1???R<lambda_6e4b09c48022b2350581041d5f6b0c4c>@@QEBA@XZ@4_NA 0000000140051a18     libucrtd:exit.obj
 0003:00001a1c       __acrt_locale_changed_data 0000000140051a1c     libucrtd:wsetlocale.obj
 0003:00001a24       _commode                   0000000140051a24     libucrtd:ncommode.obj
 0003:00001a28       __acrt_atexit_table        0000000140051a28     libucrtd:onexit.obj
 0003:00001a40       __acrt_at_quick_exit_table 0000000140051a40     libucrtd:onexit.obj
 0003:00001a88       _pfnDumpClient             0000000140051a88     libucrtd:debug_heap.obj
 0003:00001aa8       _mbctype                   0000000140051aa8     libucrtd:mbctype.obj
 0003:00001ab0       _mbcasemap                 0000000140051ab0     libucrtd:mbctype.obj
 0003:00001ab8       __acrt_current_multibyte_data 0000000140051ab8     libucrtd:mbctype.obj
 0003:00001ac8       _pgmptr                    0000000140051ac8     libucrtd:argv_data.obj
 0003:00001ad0       __argc                     0000000140051ad0     libucrtd:argv_data.obj
 0003:00001ad8       __argv                     0000000140051ad8     libucrtd:argv_data.obj
 0003:00001ae0       __wargv                    0000000140051ae0     libucrtd:argv_data.obj
 0003:00001ae8       _acmdln                    0000000140051ae8     libucrtd:argv_data.obj
 0003:00001af0       _wcmdln                    0000000140051af0     libucrtd:argv_data.obj
 0003:00001d3c       _fmode                     0000000140051d3c     libucrtd:txtmode.obj
 0003:00001d40       __pioinfo                  0000000140051d40     libucrtd:ioinit.obj
 0003:00002140       _nhandle                   0000000140052140     libucrtd:ioinit.obj
 0003:00002148       __acrt_current_locale_data 0000000140052148     libucrtd:nlsdata.obj
 0003:00002300       __acrt_lconv_static_null   0000000140052300     libucrtd:localeconv.obj
 0003:00002304       __acrt_lconv_static_W_null 0000000140052304     libucrtd:localeconv.obj
 0003:00002308       __acrt_heap                0000000140052308     libucrtd:heap_handle.obj
 0003:00002338       __acrt_stdout_buffer       0000000140052338     libucrtd:_sftbuf.obj
 0003:00002340       __acrt_stderr_buffer       0000000140052340     libucrtd:_sftbuf.obj
 0003:00002350       _nstream                   0000000140052350     libucrtd:_file.obj
 0003:00002358       __piob                     0000000140052358     libucrtd:_file.obj
 0003:00002368       _pfnReportHook             0000000140052368     libucrtd:dbgrptt.obj
 0003:00002370       _pReportHookList           0000000140052370     libucrtd:dbgrptt.obj
 0003:00002378       _pReportHookListW          0000000140052378     libucrtd:dbgrptt.obj
 0003:00002388       __fma3_is_available        0000000140052388     libucrtd:fma3_available.obj
 0003:0000238c       __use_fma3_lib             000000014005238c     libucrtd:fma3_available.obj
 0003:00002398       __scrt_ucrt_dll_is_in_use  0000000140052398     <common>
 0003:000023a0       __dyn_tls_dtor_callback    00000001400523a0     <common>
 0003:000023a8       __dyn_tls_init_callback    00000001400523a8     <common>

 entry point at        0001:00003830

 Static symbols

 0000:fffa8000       .debug$S                   0000000140000000     gdi32:GDI32.dll
 0000:fffa8000       .debug$S                   0000000140000000     gdi32:GDI32.dll
 0000:fffa8000       .debug$S                   0000000140000000     kernel32:KERNEL32.dll
 0000:fffa8000       .debug$S                   0000000140000000     kernel32:KERNEL32.dll
 0000:fffa8000       .debug$S                   0000000140000000     kernel32:KERNEL32.dll
 0000:fffa8000       .debug$S                   0000000140000000     kernel32:KERNEL32.dll
 0000:fffa8000       .debug$S                   0000000140000000     kernel32:KERNEL32.dll
 0000:fffa8000       .debug$S                   0000000140000000     kernel32:KERNEL32.dll
 0000:fffa8000       .debug$S                   0000000140000000     kernel32:KERNEL32.dll
 0000:fffa8000       .debug$S                   0000000140000000     kernel32:KERNEL32.dll
 0000:fffa8000       .debug$S                   0000000140000000     kernel32:KERNEL32.dll
 0000:fffa8000       .debug$S                   0000000140000000     kernel32:KERNEL32.dll
 0000:fffa8000       .debug$S                   0000000140000000     kernel32:KERNEL32.dll
 0000:fffa8000       .debug$S                   0000000140000000     kernel32:KERNEL32.dll
 0000:fffa8000       .debug$S                   0000000140000000     kernel32:KERNEL32.dll
 0000:fffa8000       .debug$S                   0000000140000000     kernel32:KERNEL32.dll
 0000:fffa8000       .debug$S                   0000000140000000     kernel32:KERNEL32.dll
 0000:fffa8000       .debug$S                   0000000140000000     kernel32:KERNEL32.dll
 0000:fffa8000       .debug$S                   0000000140000000     kernel32:KERNEL32.dll
 0000:fffa8000       .debug$S                   0000000140000000     kernel32:KERNEL32.dll
 0000:fffa8000       .debug$S                   0000000140000000     kernel32:KERNEL32.dll
 0000:fffa8000       .debug$S                   0000000140000000     kernel32:KERNEL32.dll
 0000:fffa8000       .debug$S                   0000000140000000     kernel32:KERNEL32.dll
 0000:fffa8000       .debug$S                   0000000140000000     kernel32:KERNEL32.dll
 0000:fffa8000       .debug$S                   0000000140000000     kernel32:KERNEL32.dll
 0000:fffa8000       .debug$S                   0000000140000000     kernel32:KERNEL32.dll
 0000:fffa8000       .debug$S                   0000000140000000     kernel32:KERNEL32.dll
 0000:fffa8000       .debug$S                   0000000140000000     kernel32:KERNEL32.dll
 0000:fffa8000       .debug$S                   0000000140000000     kernel32:KERNEL32.dll
 0000:fffa8000       .debug$S                   0000000140000000     kernel32:KERNEL32.dll
 0000:fffa8000       .debug$S                   0000000140000000     kernel32:KERNEL32.dll
 0000:fffa8000       .debug$S                   0000000140000000     kernel32:KERNEL32.dll
 0000:fffa8000       .debug$S                   0000000140000000     kernel32:KERNEL32.dll
 0000:fffa8000       .debug$S                   0000000140000000     kernel32:KERNEL32.dll
 0000:fffa8000       .debug$S                   0000000140000000     kernel32:KERNEL32.dll
 0000:fffa8000       .debug$S                   0000000140000000     kernel32:KERNEL32.dll
 0000:fffa8000       .debug$S                   0000000140000000     kernel32:KERNEL32.dll
 0000:fffa8000       .debug$S                   0000000140000000     kernel32:KERNEL32.dll
 0000:fffa8000       .debug$S                   0000000140000000     kernel32:KERNEL32.dll
 0000:fffa8000       .debug$S                   0000000140000000     kernel32:KERNEL32.dll
 0000:fffa8000       .debug$S                   0000000140000000     kernel32:KERNEL32.dll
 0000:fffa8000       .debug$S                   0000000140000000     kernel32:KERNEL32.dll
 0000:fffa8000       .debug$S                   0000000140000000     kernel32:KERNEL32.dll
 0000:fffa8000       .debug$S                   0000000140000000     kernel32:KERNEL32.dll
 0000:fffa8000       .debug$S                   0000000140000000     kernel32:KERNEL32.dll
 0000:fffa8000       .debug$S                   0000000140000000     kernel32:KERNEL32.dll
 0000:fffa8000       .debug$S                   0000000140000000     kernel32:KERNEL32.dll
 0000:fffa8000       .debug$S                   0000000140000000     kernel32:KERNEL32.dll
 0000:fffa8000       .debug$S                   0000000140000000     kernel32:KERNEL32.dll
 0000:fffa8000       .debug$S                   0000000140000000     kernel32:KERNEL32.dll
 0000:fffa8000       .debug$S                   0000000140000000     kernel32:KERNEL32.dll
 0000:fffa8000       .debug$S                   0000000140000000     kernel32:KERNEL32.dll
 0000:fffa8000       .debug$S                   0000000140000000     kernel32:KERNEL32.dll
 0000:fffa8000       .debug$S                   0000000140000000     kernel32:KERNEL32.dll
 0000:fffa8000       .debug$S                   0000000140000000     kernel32:KERNEL32.dll
 0000:fffa8000       .debug$S                   0000000140000000     kernel32:KERNEL32.dll
 0000:fffa8000       .debug$S                   0000000140000000     kernel32:KERNEL32.dll
 0000:fffa8000       .debug$S                   0000000140000000     kernel32:KERNEL32.dll
 0000:fffa8000       .debug$S                   0000000140000000     kernel32:KERNEL32.dll
 0000:fffa8000       .debug$S                   0000000140000000     kernel32:KERNEL32.dll
 0000:fffa8000       .debug$S                   0000000140000000     kernel32:KERNEL32.dll
 0000:fffa8000       .debug$S                   0000000140000000     kernel32:KERNEL32.dll
 0000:fffa8000       .debug$S                   0000000140000000     kernel32:KERNEL32.dll
 0000:fffa8000       .debug$S                   0000000140000000     kernel32:KERNEL32.dll
 0000:fffa8000       .debug$S                   0000000140000000     kernel32:KERNEL32.dll
 0000:fffa8000       .debug$S                   0000000140000000     kernel32:KERNEL32.dll
 0000:fffa8000       .debug$S                   0000000140000000     kernel32:KERNEL32.dll
 0000:fffa8000       .debug$S                   0000000140000000     kernel32:KERNEL32.dll
 0000:fffa8000       .debug$S                   0000000140000000     kernel32:KERNEL32.dll
 0000:fffa8000       .debug$S                   0000000140000000     kernel32:KERNEL32.dll
 0000:fffa8000       .debug$S                   0000000140000000     kernel32:KERNEL32.dll
 0000:fffa8000       .debug$S                   0000000140000000     kernel32:KERNEL32.dll
 0000:fffa8000       .debug$S                   0000000140000000     kernel32:KERNEL32.dll
 0000:fffa8000       .debug$S                   0000000140000000     kernel32:KERNEL32.dll
 0000:fffa8000       .debug$S                   0000000140000000     kernel32:KERNEL32.dll
 0000:fffa8000       .debug$S                   0000000140000000     kernel32:KERNEL32.dll
 0000:fffa8000       .debug$S                   0000000140000000     kernel32:KERNEL32.dll
 0000:fffa8000       .debug$S                   0000000140000000     kernel32:KERNEL32.dll
 0000:fffa8000       .debug$S                   0000000140000000     kernel32:KERNEL32.dll
 0000:fffa8000       .debug$S                   0000000140000000     kernel32:KERNEL32.dll
 0000:fffa8000       .debug$S                   0000000140000000     kernel32:KERNEL32.dll
 0000:fffa8000       .debug$S                   0000000140000000     kernel32:KERNEL32.dll
 0000:fffa8000       .debug$S                   0000000140000000     kernel32:KERNEL32.dll
 0000:fffa8000       .debug$S                   0000000140000000     kernel32:KERNEL32.dll
 0000:fffa8000       .debug$S                   0000000140000000     kernel32:KERNEL32.dll
 0000:fffa8000       .debug$S                   0000000140000000     kernel32:KERNEL32.dll
 0000:fffa8000       .debug$S                   0000000140000000     kernel32:KERNEL32.dll
 0000:fffa8000       .debug$S                   0000000140000000     kernel32:KERNEL32.dll
 0000:fffa8000       .debug$S                   0000000140000000     kernel32:KERNEL32.dll
 0000:fffa8000       .debug$S                   0000000140000000     kernel32:KERNEL32.dll
 0000:fffa8000       .debug$S                   0000000140000000     kernel32:KERNEL32.dll
 0000:fffa8000       .debug$S                   0000000140000000     kernel32:KERNEL32.dll
 0000:fffa8000       .debug$S                   0000000140000000     kernel32:KERNEL32.dll
 0000:fffa8000       .debug$S                   0000000140000000     kernel32:KERNEL32.dll
 0000:fffa8000       .debug$S                   0000000140000000     kernel32:KERNEL32.dll
 0000:fffa8000       .debug$S                   0000000140000000     kernel32:KERNEL32.dll
 0000:fffa8000       .debug$S                   0000000140000000     kernel32:KERNEL32.dll
 0000:fffa8000       .debug$S                   0000000140000000     kernel32:KERNEL32.dll
 0000:fffa8000       .debug$S                   0000000140000000     kernel32:KERNEL32.dll
 0000:fffa8000       .debug$S                   0000000140000000     kernel32:KERNEL32.dll
 0000:fffa8000       .debug$S                   0000000140000000     kernel32:KERNEL32.dll
 0000:fffa8000       .debug$S                   0000000140000000     user32:USER32.dll
 0000:fffa8000       .debug$S                   0000000140000000     user32:USER32.dll
 0000:fffa8000       .debug$S                   0000000140000000     user32:USER32.dll
 0000:fffa8000       .debug$S                   0000000140000000     user32:USER32.dll
 0000:fffa8000       .debug$S                   0000000140000000     user32:USER32.dll
 0000:fffa8000       .debug$S                   0000000140000000     user32:USER32.dll
 0000:fffa8000       .debug$S                   0000000140000000     user32:USER32.dll
 0000:fffa8000       .debug$S                   0000000140000000     user32:USER32.dll
 0000:fffa8000       .debug$S                   0000000140000000     user32:USER32.dll
 0000:fffa8000       .debug$S                   0000000140000000     user32:USER32.dll
 0000:fffa8000       .debug$S                   0000000140000000     user32:USER32.dll
 0000:fffa8000       .debug$S                   0000000140000000     user32:USER32.dll
 0000:fffa8000       .debug$S                   0000000140000000     user32:USER32.dll
 0000:fffa8000       .debug$S                   0000000140000000     user32:USER32.dll
 0000:fffa8000       .debug$S                   0000000140000000     user32:USER32.dll
 0000:fffa8000       .debug$S                   0000000140000000     winmm:WINMM.dll
 0001:00001780       ?CastStrings@@YAX_KPEAD0101@Z 0000000140002780 f   win32_made.obj
 0001:00001850       ?Win32GetEXEFileName@@YAXPEAUwin32_state@@@Z 0000000140002850 f   win32_made.obj
 0001:000018f0       ?StringLength@@YAHPEAD@Z   00000001400028f0 f   win32_made.obj
 0001:00001940       ?Win32BuildEXEPathFileName@@YAXPEAUwin32_state@@PEADH1@Z 0000000140002940 f   win32_made.obj
 0001:00001c50       ?Win32LoadGameCode@@YA?AUwin32_game_code@@PEAD0@Z 0000000140002c50 f   win32_made.obj
 0001:00001d70       ?Win32UnloadGameCode@@YAXPEAUwin32_game_code@@@Z 0000000140002d70 f   win32_made.obj
 0001:00001dd0       ?Win32LoadXInput@@YAXXZ    0000000140002dd0 f   win32_made.obj
 0001:00001e90       ?Win32InitDSound@@YAXPEAUHWND__@@HH@Z 0000000140002e90 f   win32_made.obj
 0001:000020b0       ?Win32GetWindowDimension@@YA?AUwin32_window_dimension@@PEAUHWND__@@@Z 00000001400030b0 f   win32_made.obj
 0001:00002120       ?Win32ResizeDIBSection@@YAXPEAUwin32_offscreen_buffer@@HH@Z 0000000140003120 f   win32_made.obj
 0001:00002240       ?Win32DisplayBufferInWindow@@YAXPEAUwin32_offscreen_buffer@@PEAUHDC__@@HH@Z 0000000140003240 f   win32_made.obj
 0001:000022f0       ?Win32MainWindowCallback@@YA_JPEAUHWND__@@I_K_J@Z 00000001400032f0 f   win32_made.obj
 0001:00002480       ?Win32ClearBuffer@@YAXPEAUwin32_sound_output@@@Z 0000000140003480 f   win32_made.obj
 0001:000025a0       ?Win32FillSoundBuffer@@YAXPEAUwin32_sound_output@@KKPEAUgame_sound_output_buffer@@@Z 00000001400035a0 f   win32_made.obj
 0001:000027d0       ?Win32ProcessKeyboardMessage@@YAXPEAUgame_button_state@@H@Z 00000001400037d0 f   win32_made.obj
 0001:00002810       ?Win32ProcessXInputDigitalButton@@YAXKPEAUgame_button_state@@K0@Z 0000000140003810 f   win32_made.obj
 0001:00002890       ?Win32ProcessXInputStickValue@@YAMFF@Z 0000000140003890 f   win32_made.obj
 0001:00002940       ?Win32GetInputFileLocation@@YAXPEAUwin32_state@@HHHPEAD@Z 0000000140003940 f   win32_made.obj
 0001:000029f0       ?Win32GetReplayBuffer@@YAPEAUwin32_replay_buffer@@PEAUwin32_state@@I@Z 00000001400039f0 f   win32_made.obj
 0001:00002a40       ?Win32BeginRecordingInput@@YAXPEAUwin32_state@@H@Z 0000000140003a40 f   win32_made.obj
 0001:00002b60       ?Win32EndRecordingInput@@YAXPEAUwin32_state@@@Z 0000000140003b60 f   win32_made.obj
 0001:00002ba0       ?Win32BeginInputPlayBack@@YAXPEAUwin32_state@@H@Z 0000000140003ba0 f   win32_made.obj
 0001:00002cc0       ?Win32EndInputPlayBack@@YAXPEAUwin32_state@@@Z 0000000140003cc0 f   win32_made.obj
 0001:00002d00       ?Win32RecordInput@@YAXPEAUwin32_state@@PEAUgame_input@@@Z 0000000140003d00 f   win32_made.obj
 0001:00002d50       ?Win32PlayBackInput@@YAXPEAUwin32_state@@PEAUgame_input@@@Z 0000000140003d50 f   win32_made.obj
 0001:00002e00       ?Win32ProcessPendingMessage@@YAXPEAUwin32_state@@PEAUgame_controller_input@@@Z 0000000140003e00 f   win32_made.obj
 0001:00003420       $$000000                   0000000140004420     LIBCMTD:chkstk.obj
 0001:00003480       $$000000                   0000000140004480     LIBCMTD:amdsecgs.obj
 0001:000034b0       ?pre_c_initialization@@YAHXZ 00000001400044b0 f   LIBCMTD:exe_winmain.obj
 0001:00003570       ?post_pgo_initialization@@YAHXZ 0000000140004570 f   LIBCMTD:exe_winmain.obj
 0001:00003580       ?pre_cpp_initialization@@YAXXZ 0000000140004580 f   LIBCMTD:exe_winmain.obj
 0001:000035a0       ?__scrt_common_main@@YAHXZ 00000001400045a0 f   LIBCMTD:exe_winmain.obj
 0001:000035c0       ?__scrt_common_main_seh@@YAHXZ 00000001400045c0 f   LIBCMTD:exe_winmain.obj
 0001:00003790       ?invoke_main@@YAHXZ        0000000140004790 f   LIBCMTD:exe_winmain.obj
 0001:00003a30       capture_current_context    0000000140004a30 f   LIBCMTD:gs_report.obj
 0001:00003a30       ?capture_current_context@@YAXQEAU_CONTEXT@@@Z 0000000140004a30 f   libucrtd:invalid_parameter.obj
 0001:00003ad0       capture_previous_context   0000000140004ad0 f   LIBCMTD:gs_report.obj
 0001:00003b90       ?find_pe_section@@YAPEAU_IMAGE_SECTION_HEADER@@QEAE_K@Z 0000000140004b90 f   LIBCMTD:utility.obj
 0001:00003c60       ?is_potentially_valid_image_base@@YA_NQEAX@Z 0000000140004c60 f   LIBCMTD:utility.obj
 0001:00004090       __get_entropy              0000000140005090 f   LIBCMTD:gs_support.obj
 0001:00004230       initialize_environment     0000000140005230 f   libucrtd:initialization.obj
 0001:00004230       initialize_global_state_isolation 0000000140005230 f   libucrtd:initialization.obj
 0001:00004240       init_memcpy_functions      0000000140005240 f   libvcruntimed:initialization.obj
 0001:000050a0       ??0<lambda_8d0ee55de4b1038c4002e0adecdf1839>@@QEAA@AEBQEAU__acrt_ptd@@@Z 00000001400060a0 f i libucrtd:per_thread_data.obj
 0001:000050a0       ??0<lambda_8f455de75cd7d7f24b4096f044d8b9e6>@@QEAA@AEBQEAU__acrt_ptd@@@Z 00000001400060a0 f i libucrtd:per_thread_data.obj
 0001:000050a0       ??0<lambda_e157831efee4ea0afb0a2ace5dd5fd0d>@@QEAA@AEBQEAU__acrt_ptd@@@Z 00000001400060a0 f i libucrtd:per_thread_data.obj
 0001:000050a0       ??0<lambda_4e7105787b7b0e0227fbf2b2d883fa65>@@QEAA@AEBH@Z 00000001400060a0 f i libucrtd:close.obj
 0001:000050a0       ??0<lambda_5533cddd4bda0037814beee657757329>@@QEAA@AEBH@Z 00000001400060a0 f i libucrtd:commit.obj
 0001:000050a0       ??0<lambda_df1553121bfa390f1154bd84936f2730>@@QEAA@AEAV?$__crt_unique_heap_ptr@PEADU__crt_internal_free_policy@@@@@Z 00000001400060a0 f i libucrtd:argv_parsing.obj
 0001:000050a0       ??0<lambda_d121dba8a4adeaf3a9819e48611155df>@@QEAA@AEBQEAU_onexit_table_t@@@Z 00000001400060a0 f i libucrtd:onexit.obj
 0001:00005120       ?begin@?$argument_list@D@?A0x5f5c8891@@QEBAPEAPEADXZ 0000000140006120 f i libucrtd:argv_wildcards.obj
 0001:00005300       ?_FilterSetCurrentException@@YAKPEAU_EXCEPTION_POINTERS@@E@Z 0000000140006300 f   libvcruntimed:ehhelpers.obj
 0001:00005560       $$000000                   0000000140006560     libvcruntimed:notify.obj
 0001:00005610       ??0scoped_get_last_error_reset@?A0x26810693@@QEAA@XZ 0000000140006610 f   libvcruntimed:per_thread_data.obj
 0001:00005630       ??1scoped_get_last_error_reset@?A0x26810693@@QEAA@XZ 0000000140006630 f   libvcruntimed:per_thread_data.obj
 0001:00005680       ?store_and_initialize_ptd@@YA_NQEAU__vcrt_ptd@@@Z 0000000140006680 f   libvcruntimed:per_thread_data.obj
 0001:00005b30       ?invalid_function_sentinel@@YAPEAXXZ 0000000140006b30 f   libvcruntimed:winapi_downlevel.obj
 0001:00005b30       ?invalid_function_sentinel@@YAPEAXXZ 0000000140006b30 f   libucrtd:winapi_thunks.obj
 0001:00005b40       ?try_get_FlsAlloc@@YAP6AKP6AXPEAX@Z@ZXZ 0000000140006b40 f   libvcruntimed:winapi_downlevel.obj
 0001:00005b70       ?try_get_FlsFree@@YAP6AHK@ZXZ 0000000140006b70 f   libvcruntimed:winapi_downlevel.obj
 0001:00005ba0       ?try_get_FlsGetValue@@YAP6APEAXK@ZXZ 0000000140006ba0 f   libvcruntimed:winapi_downlevel.obj
 0001:00005bd0       ?try_get_FlsSetValue@@YAP6AHKPEAX@ZXZ 0000000140006bd0 f   libvcruntimed:winapi_downlevel.obj
 0001:00005c00       ?try_get_InitializeCriticalSectionEx@@YAP6AHPEAU_RTL_CRITICAL_SECTION@@KK@ZXZ 0000000140006c00 f   libvcruntimed:winapi_downlevel.obj
 0001:00005c30       ?try_get_first_available_module@@YAPEAUHINSTANCE__@@QEBW4module_id@?A0x61a31dd3@@0@Z 0000000140006c30 f   libvcruntimed:winapi_downlevel.obj
 0001:00005c90       ?try_get_function@@YAPEAXW4function_id@?A0x61a31dd3@@QEBDQEBW4module_id@2@2@Z 0000000140006c90 f   libvcruntimed:winapi_downlevel.obj
 0001:00005e00       ?try_get_module@@YAPEAUHINSTANCE__@@W4module_id@?A0x61a31dd3@@@Z 0000000140006e00 f   libvcruntimed:winapi_downlevel.obj
 0001:00005f60       ?try_get_proc_address_from_first_available_module@@YAPEAXQEBDQEBW4module_id@?A0x61a31dd3@@1@Z 0000000140006f60 f   libvcruntimed:winapi_downlevel.obj
 0001:00005fb0       ?try_load_library_from_system_directory@@YAPEAUHINSTANCE__@@QEB_W@Z 0000000140006fb0 f   libvcruntimed:winapi_downlevel.obj
 0001:000061e0       $$000000                   00000001400071e0     libvcruntimed:memcpy.obj
 0001:000068f0       ??$SehTransFilter@V__FrameHandler3@@@@YAHPEAU_EXCEPTION_POINTERS@@PEAUEHExceptionRecord@@PEA_KPEAU_CONTEXT@@PEAU_xDISPATCHER_CONTEXT@@PEBU_s_FuncInfo@@HPEAH@Z 00000001400078f0 f   libvcruntimed:risctrnsctrl.obj
 0001:00007600       ?adjustIp@@YA_KPEAU_xDISPATCHER_CONTEXT@@_K@Z 0000000140008600 f   libvcruntimed:ehstate.obj
 0001:00007610       ??$BuildCatchObjectHelperInternal@V__FrameHandler3@@@@YAHPEAUEHExceptionRecord@@PEAXPEBU_s_HandlerType@@PEBU_s_CatchableType@@@Z 0000000140008610 f   libvcruntimed:frame.obj
 0001:000079f0       ??$BuildCatchObjectInternal@V__FrameHandler3@@@@YAXPEAUEHExceptionRecord@@PEAXPEBU_s_HandlerType@@PEBU_s_CatchableType@@@Z 00000001400089f0 f   libvcruntimed:frame.obj
 0001:00007b40       ??$CatchIt@V__FrameHandler3@@@@YAXPEAUEHExceptionRecord@@PEA_KPEAU_CONTEXT@@PEAU_xDISPATCHER_CONTEXT@@PEBU_s_FuncInfo@@PEBU_s_HandlerType@@PEBU_s_CatchableType@@PEBU_s_TryBlockMapEntry@@H1EE@Z 0000000140008b40 f   libvcruntimed:frame.obj
 0001:00007c80       ??$FindHandler@V__FrameHandler3@@@@YAXPEAUEHExceptionRecord@@PEA_KPEAU_CONTEXT@@PEAU_xDISPATCHER_CONTEXT@@PEBU_s_FuncInfo@@EH1@Z 0000000140008c80 f   libvcruntimed:frame.obj
 0001:00008450       ??$FindHandlerForForeignException@V__FrameHandler3@@@@YAXPEAUEHExceptionRecord@@PEA_KPEAU_CONTEXT@@PEAU_xDISPATCHER_CONTEXT@@PEBU_s_FuncInfo@@HH1@Z 0000000140009450 f   libvcruntimed:frame.obj
 0001:00008e70       ??0<lambda_92619d2358a28f41a33ba319515a20b9>@@QEAA@AEBQEAU__acrt_ptd@@AEBQEAPEAU__crt_locale_data@@@Z 0000000140009e70 f i libucrtd:per_thread_data.obj
 0001:00008e70       ??0<lambda_bd5a608237428601b7e45fbdc72b1ae8>@@QEAA@AEBQEAU__acrt_ptd@@AEBQEAPEAU__crt_multibyte_data@@@Z 0000000140009e70 f i libucrtd:mbctype.obj
 0001:00008e70       ??0<lambda_3b83eb014488ad801d84acef5aaf14d3>@@QEAA@AEBQEAU_onexit_table_t@@AEBQ6AHXZ@Z 0000000140009e70 f i libucrtd:onexit.obj
 0001:00009500       ?ExFilterRethrow@@YAHPEAU_EXCEPTION_POINTERS@@PEAUEHExceptionRecord@@PEAH@Z 000000014000a500 f   libvcruntimed:frame.obj
 0001:00009920       ?IsInExceptionSpec@@YAEPEAUEHExceptionRecord@@PEBU_s_ESTypeList@@@Z 000000014000a920 f   libvcruntimed:frame.obj
 0001:00009a40       ?Is_bad_exception_allowed@@YAEPEBU_s_ESTypeList@@@Z 000000014000aa40 f   libvcruntimed:frame.obj
 0001:00009bc0       ?__RethrowException@@YAXPEAUEHExceptionRecord@@@Z 000000014000abc0 f   libvcruntimed:frame.obj
 0001:00009de0       $$000000                   000000014000ade0     libvcruntimed:memset.obj
 0001:00009fa0       $$000000                   000000014000afa0     libvcruntimed:handlers.obj
 0001:0000a3d0       ?xcptlookup@@YAPEAU__crt_signal_action_t@@KQEAU1@@Z 000000014000b3d0 f   libucrtd:exception_filter.obj
 0001:0000a6c0       $LN33                      000000014000b6c0     libucrtd:exception_filter.obj
 0001:0000a6e0       ?issue_debug_notification@@YA_NQEB_W@Z 000000014000b6e0 f   libucrtd:report_runtime_error.obj
 0001:0000a740       ?should_write_error_to_console@@YA_NXZ 000000014000b740 f   libucrtd:report_runtime_error.obj
 0001:0000a780       ?write_string_to_console@@YAXQEB_W@Z 000000014000b780 f   libucrtd:report_runtime_error.obj
 0001:0000ada0       ??$common_configure_argv@D@@YAHW4_crt_argv_mode@@@Z 000000014000bda0 f   libucrtd:argv_parsing.obj
 0001:0000b170       ??$parse_command_line@D@@YAXPEADPEAPEAD0PEA_K2@Z 000000014000c170 f   libucrtd:argv_parsing.obj
 0001:0000b620       ??R<lambda_df1553121bfa390f1154bd84936f2730>@@QEBAHXZ 000000014000c620 f   libucrtd:argv_parsing.obj
 0001:0000b680       ?do_locale_initialization@@YAXD@Z 000000014000c680 f   libucrtd:argv_parsing.obj
 0001:0000b680       ?do_locale_initialization@@YAXE@Z 000000014000c680 f   libucrtd:argv_winmain.obj
 0001:0000b6a0       ?expand_argv_wildcards@@YAHQEAPEADQEAPEAPEAD@Z 000000014000c6a0 f   libucrtd:argv_parsing.obj
 0001:0000b6d0       ?get_argv@@YAAEAPEAPEADD@Z 000000014000c6d0 f   libucrtd:argv_parsing.obj
 0001:0000b6e0       ?get_command_line@@YAPEADD@Z 000000014000c6e0 f   libucrtd:argv_parsing.obj
 0001:0000b6e0       ?get_command_line@@YAPEAEE@Z 000000014000c6e0 f   libucrtd:argv_winmain.obj
 0001:0000b6f0       ?should_copy_another_character@@YA_ND@Z 000000014000c6f0 f   libucrtd:argv_parsing.obj
 0001:0000b884       ??$common_initialize_environment_nolock@D@@YAHXZ 000000014000c884 f   libucrtd:environment_initialization.obj
 0001:0000b8fc       ??$create_environment@D@@YAQEAPEADQEAD@Z 000000014000c8fc f   libucrtd:environment_initialization.obj
 0001:0000ba58       ??$free_environment@D@@YAXQEAPEAD@Z 000000014000ca58 f   libucrtd:environment_initialization.obj
 0001:0000ba58       ??$free_environment@_W@@YAXQEAPEA_W@Z 000000014000ca58 f   libucrtd:environment_initialization.obj
 0001:0000bab4       ??$uninitialize_environment_internal@D@@YAXAEAPEAPEAD@Z 000000014000cab4 f   libucrtd:environment_initialization.obj
 0001:0000bad0       ??$uninitialize_environment_internal@_W@@YAXAEAPEAPEA_W@Z 000000014000cad0 f   libucrtd:environment_initialization.obj
 0001:0000bb40       ??$common_wincmdln@E@@YAPEAEXZ 000000014000cb40 f   libucrtd:argv_winmain.obj
 0001:0000bc40       ?should_copy_another_character@@YA_NE@Z 000000014000cc40 f   libucrtd:argv_winmain.obj
 0001:0000bd90       ??$?RV<lambda_d80eeec6fff315bfe5c115232f3240e3>@@AEAV<lambda_6e4b09c48022b2350581041d5f6b0c4c>@@V<lambda_2358e3775559c9db80273638284d5e45>@@@?$__crt_seh_guarded_call@X@@QEAAX$$QEAV<lambda_d80eeec6fff315bfe5c115232f3240e3>@@AEAV<lambda_6e4b09c48022b2350581041d5f6b0c4c>@@$$QEAV<lambda_2358e3775559c9db80273638284d5e45>@@@Z 000000014000cd90 f   libucrtd:exit.obj
 0001:0000bdd0       ??$__acrt_lock_and_call@V<lambda_6e4b09c48022b2350581041d5f6b0c4c>@@@@YAXW4__acrt_lock_id@@$$QEAV<lambda_6e4b09c48022b2350581041d5f6b0c4c>@@@Z 000000014000cdd0 f   libucrtd:exit.obj
 0001:0000be70       ??0<lambda_04ddeca75b7c13fd67716e8dfcef87ee>@@QEAA@AEBW4__acrt_lock_id@@@Z 000000014000ce70 f   libucrtd:per_thread_data.obj
 0001:0000be70       ??0<lambda_0ae27a3a962d80f24befdcbee591983d>@@QEAA@AEBW4__acrt_lock_id@@@Z 000000014000ce70 f   libucrtd:per_thread_data.obj
 0001:0000be70       ??0<lambda_2d41944a1d46af3157314b8a01080d33>@@QEAA@AEBW4__acrt_lock_id@@@Z 000000014000ce70 f   libucrtd:per_thread_data.obj
 0001:0000be70       ??0<lambda_6992ecaafeb10aed2b74cb1fae11a551>@@QEAA@AEBW4__acrt_lock_id@@@Z 000000014000ce70 f   libucrtd:per_thread_data.obj
 0001:0000be70       ??0<lambda_74a0ef281e44d15e1136f792f539efb3>@@QEAA@AEBW4__acrt_lock_id@@@Z 000000014000ce70 f   libucrtd:per_thread_data.obj
 0001:0000be70       ??0<lambda_aa500f224e6afead328df44964fe2772>@@QEAA@AEBW4__acrt_lock_id@@@Z 000000014000ce70 f   libucrtd:per_thread_data.obj
 0001:0000be70       ??0<lambda_aa87e3671a710a21b5dc78c0bdf72e11>@@QEAA@AEBW4__acrt_lock_id@@@Z 000000014000ce70 f   libucrtd:per_thread_data.obj
 0001:0000be70       ??0<lambda_dc504788e8f1664fe9b84e20bfb512f2>@@QEAA@AEBW4__acrt_lock_id@@@Z 000000014000ce70 f   libucrtd:per_thread_data.obj
 0001:0000be70       ??0<lambda_38119f0e861e05405d8a144b9b982f0a>@@QEAA@AEBW4__acrt_lock_id@@@Z 000000014000ce70 f   libucrtd:wsetlocale.obj
 0001:0000be70       ??0<lambda_410d79af7f07d98d83a3f525b3859a53>@@QEAA@AEBW4__acrt_lock_id@@@Z 000000014000ce70 f   libucrtd:wsetlocale.obj
 0001:0000be70       ??0<lambda_53fc7fc888e23d815d7080162c0aeeb2>@@QEAA@AEBH@Z 000000014000ce70 f   libucrtd:close.obj
 0001:0000be70       ??0<lambda_8ddc48ad9d26c778cb15812d1d88fc8a>@@QEAA@AEBH@Z 000000014000ce70 f   libucrtd:close.obj
 0001:0000be70       ??0<lambda_47cffbaa968af5c721c38a4a6f8da44d>@@QEAA@AEBH@Z 000000014000ce70 f   libucrtd:commit.obj
 0001:0000be70       ??0<lambda_4e3dbe6921bc0b5a1a6bc6573fdc859e>@@QEAA@AEBH@Z 000000014000ce70 f   libucrtd:commit.obj
 0001:0000be70       ??0<lambda_728235dc0fc2b1f82d1fa5b3e7102d8f>@@QEAA@AEBW4__acrt_lock_id@@@Z 000000014000ce70 f   libucrtd:mbctype.obj
 0001:0000be70       ??0<lambda_efa02eb69bf647d2f7ff0dd6f1103f72>@@QEAA@AEBW4__acrt_lock_id@@@Z 000000014000ce70 f   libucrtd:mbctype.obj
 0001:0000be70       ??0<lambda_450d765d439847d4c735a33c368b5fc0>@@QEAA@AEBW4__acrt_lock_id@@@Z 000000014000ce70 f   libucrtd:signal.obj
 0001:0000be70       ??0<lambda_601a2a7da3b7a96e9554ac7215c4b07c>@@QEAA@AEBW4__acrt_lock_id@@@Z 000000014000ce70 f   libucrtd:signal.obj
 0001:0000be70       ??0<lambda_2358e3775559c9db80273638284d5e45>@@QEAA@AEBW4__acrt_lock_id@@@Z 000000014000ce70 f   libucrtd:exit.obj
 0001:0000be70       ??0<lambda_d80eeec6fff315bfe5c115232f3240e3>@@QEAA@AEBW4__acrt_lock_id@@@Z 000000014000ce70 f   libucrtd:exit.obj
 0001:0000be70       ??0<lambda_00e911965883f7966597d4c465c83ebc>@@QEAA@AEBW4__acrt_lock_id@@@Z 000000014000ce70 f   libucrtd:onexit.obj
 0001:0000be70       ??0<lambda_6a47f4c8fd0152770a780fc1d70204eb>@@QEAA@AEBW4__acrt_lock_id@@@Z 000000014000ce70 f   libucrtd:onexit.obj
 0001:0000be70       ??0<lambda_6aaa2265f5b6a89667e7d7630012e97a>@@QEAA@AEBW4__acrt_lock_id@@@Z 000000014000ce70 f   libucrtd:onexit.obj
 0001:0000be70       ??0<lambda_dce957679fd779aa27c4ca5c39e09098>@@QEAA@AEBW4__acrt_lock_id@@@Z 000000014000ce70 f   libucrtd:onexit.obj
 0001:0000be70       ??0<lambda_886d6c58226a84441f68b9f2b8217b83>@@QEAA@AEBW4__acrt_lock_id@@@Z 000000014000ce70 f   libucrtd:fflush.obj
 0001:0000be70       ??0<lambda_f7f22ab5edc0698d5f6905b0d3f44752>@@QEAA@AEBW4__acrt_lock_id@@@Z 000000014000ce70 f   libucrtd:fflush.obj
 0001:0000be90       ??0<lambda_6e4b09c48022b2350581041d5f6b0c4c>@@QEAA@AEBW4_crt_exit_cleanup_mode@@AEBW4_crt_exit_return_mode@@AEA_N@Z 000000014000ce90 f   libucrtd:exit.obj
 0001:0000be90       ??0<lambda_ab61a845afdef5b7c387490eaf3616ee>@@QEAA@AEAHAEB_N0@Z 000000014000ce90 f   libucrtd:fflush.obj
 0001:0000bf00       ??R<lambda_04ddeca75b7c13fd67716e8dfcef87ee>@@QEBAXXZ 000000014000cf00 f   libucrtd:per_thread_data.obj
 0001:0000bf00       ??R<lambda_6992ecaafeb10aed2b74cb1fae11a551>@@QEBAXXZ 000000014000cf00 f   libucrtd:per_thread_data.obj
 0001:0000bf00       ??R<lambda_aa500f224e6afead328df44964fe2772>@@QEBAXXZ 000000014000cf00 f   libucrtd:per_thread_data.obj
 0001:0000bf00       ??R<lambda_dc504788e8f1664fe9b84e20bfb512f2>@@QEBAXXZ 000000014000cf00 f   libucrtd:per_thread_data.obj
 0001:0000bf00       ??R<lambda_38119f0e861e05405d8a144b9b982f0a>@@QEBAXXZ 000000014000cf00 f   libucrtd:wsetlocale.obj
 0001:0000bf00       ??R<lambda_728235dc0fc2b1f82d1fa5b3e7102d8f>@@QEBAXXZ 000000014000cf00 f   libucrtd:mbctype.obj
 0001:0000bf00       ??R<lambda_601a2a7da3b7a96e9554ac7215c4b07c>@@QEBAXXZ 000000014000cf00 f   libucrtd:signal.obj
 0001:0000bf00       ??R<lambda_2358e3775559c9db80273638284d5e45>@@QEBAXXZ 000000014000cf00 f   libucrtd:exit.obj
 0001:0000bf00       ??R<lambda_00e911965883f7966597d4c465c83ebc>@@QEBAXXZ 000000014000cf00 f   libucrtd:onexit.obj
 0001:0000bf00       ??R<lambda_6aaa2265f5b6a89667e7d7630012e97a>@@QEBAXXZ 000000014000cf00 f   libucrtd:onexit.obj
 0001:0000bf00       ??R<lambda_f7f22ab5edc0698d5f6905b0d3f44752>@@QEBAXXZ 000000014000cf00 f   libucrtd:fflush.obj
 0001:0000bf20       ??R<lambda_6e4b09c48022b2350581041d5f6b0c4c>@@QEBA@XZ 000000014000cf20 f   libucrtd:exit.obj
 0001:0000c020       ??R<lambda_0ae27a3a962d80f24befdcbee591983d>@@QEBAXXZ 000000014000d020 f   libucrtd:per_thread_data.obj
 0001:0000c020       ??R<lambda_2d41944a1d46af3157314b8a01080d33>@@QEBAXXZ 000000014000d020 f   libucrtd:per_thread_data.obj
 0001:0000c020       ??R<lambda_74a0ef281e44d15e1136f792f539efb3>@@QEBAXXZ 000000014000d020 f   libucrtd:per_thread_data.obj
 0001:0000c020       ??R<lambda_aa87e3671a710a21b5dc78c0bdf72e11>@@QEBAXXZ 000000014000d020 f   libucrtd:per_thread_data.obj
 0001:0000c020       ??R<lambda_410d79af7f07d98d83a3f525b3859a53>@@QEBAXXZ 000000014000d020 f   libucrtd:wsetlocale.obj
 0001:0000c020       ??R<lambda_efa02eb69bf647d2f7ff0dd6f1103f72>@@QEBAXXZ 000000014000d020 f   libucrtd:mbctype.obj
 0001:0000c020       ??R<lambda_450d765d439847d4c735a33c368b5fc0>@@QEBAXXZ 000000014000d020 f   libucrtd:signal.obj
 0001:0000c020       ??R<lambda_d80eeec6fff315bfe5c115232f3240e3>@@QEBAXXZ 000000014000d020 f   libucrtd:exit.obj
 0001:0000c020       ??R<lambda_6a47f4c8fd0152770a780fc1d70204eb>@@QEBAXXZ 000000014000d020 f   libucrtd:onexit.obj
 0001:0000c020       ??R<lambda_dce957679fd779aa27c4ca5c39e09098>@@QEBAXXZ 000000014000d020 f   libucrtd:onexit.obj
 0001:0000c020       ??R<lambda_886d6c58226a84441f68b9f2b8217b83>@@QEBAXXZ 000000014000d020 f   libucrtd:fflush.obj
 0001:0000c090       ?atexit_exception_filter@@YAHK@Z 000000014000d090 f   libucrtd:exit.obj
 0001:0000c130       ?common_exit@@YAXHW4_crt_exit_cleanup_mode@@W4_crt_exit_return_mode@@@Z 000000014000d130 f   libucrtd:exit.obj
 0001:0000c1c0       ?exit_or_terminate_process@@YAXI@Z 000000014000d1c0 f   libucrtd:exit.obj
 0001:0000c200       ?is_managed_app@@YA_NXZ    000000014000d200 f   libucrtd:exit.obj
 0001:0000c2b0       ?should_call_terminate_process@@YA_NXZ 000000014000d2b0 f   libucrtd:exit.obj
 0001:0000c310       ?try_cor_exit_process@@YAXI@Z 000000014000d310 f   libucrtd:exit.obj
 0001:0000c5a0       ??$?RV<lambda_410d79af7f07d98d83a3f525b3859a53>@@AEAV<lambda_3e16ef9562a7dcce91392c22ab16ea36>@@V<lambda_38119f0e861e05405d8a144b9b982f0a>@@@?$__crt_seh_guarded_call@X@@QEAAX$$QEAV<lambda_410d79af7f07d98d83a3f525b3859a53>@@AEAV<lambda_3e16ef9562a7dcce91392c22ab16ea36>@@$$QEAV<lambda_38119f0e861e05405d8a144b9b982f0a>@@@Z 000000014000d5a0 f   libucrtd:wsetlocale.obj
 0001:0000c5e0       ??$__acrt_lock_and_call@V<lambda_3e16ef9562a7dcce91392c22ab16ea36>@@@@YAXW4__acrt_lock_id@@$$QEAV<lambda_3e16ef9562a7dcce91392c22ab16ea36>@@@Z 000000014000d5e0 f   libucrtd:wsetlocale.obj
 0001:0000c630       ??$uninitialize@V<lambda_363eea9039da1e8169e2d060c7fe5cbc>@@@?$dual_state_global@PEAU__crt_locale_data@@@__crt_state_management@@QEAAX$$QEAV<lambda_363eea9039da1e8169e2d060c7fe5cbc>@@@Z 000000014000d630 f   libucrtd:wsetlocale.obj
 0001:0000c680       ??R<lambda_363eea9039da1e8169e2d060c7fe5cbc>@@QEBAXAEAPEAU__crt_locale_data@@@Z 000000014000d680 f   libucrtd:wsetlocale.obj
 0001:0000c6c0       ??R<lambda_3e16ef9562a7dcce91392c22ab16ea36>@@QEBA@XZ 000000014000d6c0 f   libucrtd:wsetlocale.obj
 0001:0000ca40       ??$?RV<lambda_6a47f4c8fd0152770a780fc1d70204eb>@@AEAV<lambda_d121dba8a4adeaf3a9819e48611155df>@@V<lambda_6aaa2265f5b6a89667e7d7630012e97a>@@@?$__crt_seh_guarded_call@H@@QEAAH$$QEAV<lambda_6a47f4c8fd0152770a780fc1d70204eb>@@AEAV<lambda_d121dba8a4adeaf3a9819e48611155df>@@$$QEAV<lambda_6aaa2265f5b6a89667e7d7630012e97a>@@@Z 000000014000da40 f   libucrtd:onexit.obj
 0001:0000ca90       ??$?RV<lambda_dce957679fd779aa27c4ca5c39e09098>@@AEAV<lambda_3b83eb014488ad801d84acef5aaf14d3>@@V<lambda_00e911965883f7966597d4c465c83ebc>@@@?$__crt_seh_guarded_call@H@@QEAAH$$QEAV<lambda_dce957679fd779aa27c4ca5c39e09098>@@AEAV<lambda_3b83eb014488ad801d84acef5aaf14d3>@@$$QEAV<lambda_00e911965883f7966597d4c465c83ebc>@@@Z 000000014000da90 f   libucrtd:onexit.obj
 0001:0000cae0       ??$__acrt_lock_and_call@V<lambda_3b83eb014488ad801d84acef5aaf14d3>@@@@YAHW4__acrt_lock_id@@$$QEAV<lambda_3b83eb014488ad801d84acef5aaf14d3>@@@Z 000000014000dae0 f   libucrtd:onexit.obj
 0001:0000cb30       ??$__acrt_lock_and_call@V<lambda_d121dba8a4adeaf3a9819e48611155df>@@@@YAHW4__acrt_lock_id@@$$QEAV<lambda_d121dba8a4adeaf3a9819e48611155df>@@@Z 000000014000db30 f   libucrtd:onexit.obj
 0001:0000cb80       ??R<lambda_3b83eb014488ad801d84acef5aaf14d3>@@QEBAHXZ 000000014000db80 f   libucrtd:onexit.obj
 0001:0000ce90       ??R<lambda_d121dba8a4adeaf3a9819e48611155df>@@QEBAHXZ 000000014000de90 f   libucrtd:onexit.obj
 0001:0000d1e0       initialize_global_variables 000000014000e1e0 f   libucrtd:initialization.obj
 0001:0000d200       initialize_c               000000014000e200 f   libucrtd:initialization.obj
 0001:0000d230       uninitialize_c             000000014000e230 f   libucrtd:initialization.obj
 0001:0000d230       uninitialize_global_state_isolation 000000014000e230 f   libucrtd:initialization.obj
 0001:0000d240       uninitialize_environment   000000014000e240 f   libucrtd:initialization.obj
 0001:0000d270       initialize_pointers        000000014000e270 f   libucrtd:initialization.obj
 0001:0000d2d0       uninitialize_vcruntime     000000014000e2d0 f   libucrtd:initialization.obj
 0001:0000d2f0       uninitialize_allocated_memory 000000014000e2f0 f   libucrtd:initialization.obj
 0001:0000d330       uninitialize_allocated_io_buffers 000000014000e330 f   libucrtd:initialization.obj
 0001:0000d3b0       report_memory_leaks        000000014000e3b0 f   libucrtd:initialization.obj
 0001:0000d3e0       ??$uninitialize@V<lambda_af27fe6ede5d83bbdbd622796c194e9c>@@@?$dual_state_global@PEAU__crt_multibyte_data@@@__crt_state_management@@QEAAX$$QEAV<lambda_af27fe6ede5d83bbdbd622796c194e9c>@@@Z 000000014000e3e0 f   libucrtd:initialization.obj
 0001:0000d430       ??R<lambda_af27fe6ede5d83bbdbd622796c194e9c>@@QEBAXAEAPEAU__crt_multibyte_data@@@Z 000000014000e430 f   libucrtd:initialization.obj
 0001:0000d690       ?block_from_header@@YAPEAEQEAU_CrtMemBlockHeader@@@Z 000000014000e690 f   libucrtd:debug_heap.obj
 0001:0000d6a0       ?check_block@@YA_NQEAU_CrtMemBlockHeader@@@Z 000000014000e6a0 f   libucrtd:debug_heap.obj
 0001:0000da60       ?check_bytes@@YA_NQEBEE_K@Z 000000014000ea60 f   libucrtd:debug_heap.obj
 0001:0000dad0       ?dump_all_object_since_nolock@@YAXQEBU_CrtMemState@@@Z 000000014000ead0 f   libucrtd:debug_heap.obj
 0001:0000de90       ?free_dbg_nolock@@YAXQEAXH@Z 000000014000ee90 f   libucrtd:debug_heap.obj
 0001:0000e4e0       ?header_from_block@@YAPEAU_CrtMemBlockHeader@@QEBX@Z 000000014000f4e0 f   libucrtd:debug_heap.obj
 0001:0000e4f0       ?heap_alloc_dbg@@YAPEAX_KHQEBDH@Z 000000014000f4f0 f   libucrtd:debug_heap.obj
 0001:0000e590       ?heap_alloc_dbg_internal@@YAPEAX_KHQEBDH@Z 000000014000f590 f   libucrtd:debug_heap.obj
 0001:0000e9d0       ?is_bad_read_pointer@@YA_NQEBX_K@Z 000000014000f9d0 f   libucrtd:debug_heap.obj
 0001:0000eae0       ?is_block_an_aligned_allocation@@YA_NQEBX@Z 000000014000fae0 f   libucrtd:debug_heap.obj
 0001:0000eb20       ?is_block_type_valid@@YA_NH@Z 000000014000fb20 f   libucrtd:debug_heap.obj
 0001:0000eb70       ?print_block_data@@YAXQEAU__crt_locale_pointers@@QEAU_CrtMemBlockHeader@@@Z 000000014000fb70 f   libucrtd:debug_heap.obj
 0001:0000eda0       ?realloc_dbg_nolock@@YAPEAXQEAXQEA_KHQEBDH_N@Z 000000014000fda0 f   libucrtd:debug_heap.obj
 0001:0000f5c0       ?validate_heap_if_required_nolock@@YAXXZ 00000001400105c0 f   libucrtd:debug_heap.obj
 0001:00010370       ??$common_tcscpy_s@D@@YAHQEAD_KQEBD@Z 0000000140011370 f   libucrtd:strcpy_s.obj
 0001:00010870       $$000000                   0000000140011870     libucrtd:strcmp.obj
 0001:000108f0       $$000000                   00000001400118f0     libucrtd:strlen.obj
 0001:00010f00       ??$common_vsnprintf_s@D@@YAH_KQEAD00QEBDQEAU__crt_locale_pointers@@1@Z 0000000140011f00 f   libucrtd:output.obj
 0001:000114c0       ??$common_vsnprintf_s@_W@@YAH_KQEA_W00QEB_WQEAU__crt_locale_pointers@@QEAD@Z 00000001400124c0 f   libucrtd:output.obj
 0001:00011a90       ??$common_vsprintf@Vformat_validation_base@__crt_stdio_output@@D@@YAH_KQEAD0QEBDQEAU__crt_locale_pointers@@1@Z 0000000140012a90 f   libucrtd:output.obj
 0001:00011f70       ??$common_vsprintf@Vformat_validation_base@__crt_stdio_output@@_W@@YAH_KQEA_W0QEB_WQEAU__crt_locale_pointers@@QEAD@Z 0000000140012f70 f   libucrtd:output.obj
 0001:00012440       ??$common_vsprintf_s@D@@YAH_KQEAD0QEBDQEAU__crt_locale_pointers@@1@Z 0000000140013440 f   libucrtd:output.obj
 0001:000146fc       $LN39                      00000001400156fc     libucrtd:output.obj
 0001:00014a5c       $LN39                      0000000140015a5c     libucrtd:output.obj
 0001:00015548       $LN54                      0000000140016548     libucrtd:output.obj
 0001:00015570       $LN53                      0000000140016570     libucrtd:output.obj
 0001:000159c8       $LN54                      00000001400169c8     libucrtd:output.obj
 0001:000159f0       $LN53                      00000001400169f0     libucrtd:output.obj
 0001:00015e64       $LN44                      0000000140016e64     libucrtd:output.obj
 0001:00015e94       $LN43                      0000000140016e94     libucrtd:output.obj
 0001:000163bc       $LN44                      00000001400173bc     libucrtd:output.obj
 0001:000163ec       $LN43                      00000001400173ec     libucrtd:output.obj
 0001:00016670       $LN19                      0000000140017670     libucrtd:output.obj
 0001:000192d0       ??$common_message_window@D@@YAHHQEAXQEBD111@Z 000000014001a2d0 f   libucrtd:dbgrpt.obj
 0001:000199a0       ??$common_message_window@_W@@YAHHQEAXQEB_W111@Z 000000014001a9a0 f   libucrtd:dbgrpt.obj
 0001:0001a1c0       ?get_output_message_format@@YAPEB_WD@Z 000000014001b1c0 f   libucrtd:dbgrpt.obj
 0001:0001a1d0       ?get_output_message_format@@YAPEB_W_W@Z 000000014001b1d0 f   libucrtd:dbgrpt.obj
 0001:0001a1e0       ?get_program_name_unknown_text@@YAPEBDD@Z 000000014001b1e0 f   libucrtd:dbgrpt.obj
 0001:0001a1f0       ?get_program_name_unknown_text@@YAPEB_W_W@Z 000000014001b1f0 f   libucrtd:dbgrpt.obj
 0001:0001b800       $$000000                   000000014001c800     libucrtd:strncmp.obj
 0001:0001b980       ??$?RV<lambda_0ae27a3a962d80f24befdcbee591983d>@@AEAV<lambda_8d0ee55de4b1038c4002e0adecdf1839>@@V<lambda_dc504788e8f1664fe9b84e20bfb512f2>@@@?$__crt_seh_guarded_call@X@@QEAAX$$QEAV<lambda_0ae27a3a962d80f24befdcbee591983d>@@AEAV<lambda_8d0ee55de4b1038c4002e0adecdf1839>@@$$QEAV<lambda_dc504788e8f1664fe9b84e20bfb512f2>@@@Z 000000014001c980 f   libucrtd:per_thread_data.obj
 0001:0001b9c0       ??$?RV<lambda_2d41944a1d46af3157314b8a01080d33>@@AEAV<lambda_8f455de75cd7d7f24b4096f044d8b9e6>@@V<lambda_aa500f224e6afead328df44964fe2772>@@@?$__crt_seh_guarded_call@X@@QEAAX$$QEAV<lambda_2d41944a1d46af3157314b8a01080d33>@@AEAV<lambda_8f455de75cd7d7f24b4096f044d8b9e6>@@$$QEAV<lambda_aa500f224e6afead328df44964fe2772>@@@Z 000000014001c9c0 f   libucrtd:per_thread_data.obj
 0001:0001ba00       ??$?RV<lambda_74a0ef281e44d15e1136f792f539efb3>@@AEAV<lambda_e157831efee4ea0afb0a2ace5dd5fd0d>@@V<lambda_04ddeca75b7c13fd67716e8dfcef87ee>@@@?$__crt_seh_guarded_call@X@@QEAAX$$QEAV<lambda_74a0ef281e44d15e1136f792f539efb3>@@AEAV<lambda_e157831efee4ea0afb0a2ace5dd5fd0d>@@$$QEAV<lambda_04ddeca75b7c13fd67716e8dfcef87ee>@@@Z 000000014001ca00 f   libucrtd:per_thread_data.obj
 0001:0001ba40       ??$?RV<lambda_aa87e3671a710a21b5dc78c0bdf72e11>@@AEAV<lambda_92619d2358a28f41a33ba319515a20b9>@@V<lambda_6992ecaafeb10aed2b74cb1fae11a551>@@@?$__crt_seh_guarded_call@X@@QEAAX$$QEAV<lambda_aa87e3671a710a21b5dc78c0bdf72e11>@@AEAV<lambda_92619d2358a28f41a33ba319515a20b9>@@$$QEAV<lambda_6992ecaafeb10aed2b74cb1fae11a551>@@@Z 000000014001ca40 f   libucrtd:per_thread_data.obj
 0001:0001ba80       ??$__acrt_lock_and_call@V<lambda_8d0ee55de4b1038c4002e0adecdf1839>@@@@YAXW4__acrt_lock_id@@$$QEAV<lambda_8d0ee55de4b1038c4002e0adecdf1839>@@@Z 000000014001ca80 f   libucrtd:per_thread_data.obj
 0001:0001bad0       ??$__acrt_lock_and_call@V<lambda_8f455de75cd7d7f24b4096f044d8b9e6>@@@@YAXW4__acrt_lock_id@@$$QEAV<lambda_8f455de75cd7d7f24b4096f044d8b9e6>@@@Z 000000014001cad0 f   libucrtd:per_thread_data.obj
 0001:0001bb20       ??$__acrt_lock_and_call@V<lambda_92619d2358a28f41a33ba319515a20b9>@@@@YAXW4__acrt_lock_id@@$$QEAV<lambda_92619d2358a28f41a33ba319515a20b9>@@@Z 000000014001cb20 f   libucrtd:per_thread_data.obj
 0001:0001bb70       ??$__acrt_lock_and_call@V<lambda_e157831efee4ea0afb0a2ace5dd5fd0d>@@@@YAXW4__acrt_lock_id@@$$QEAV<lambda_e157831efee4ea0afb0a2ace5dd5fd0d>@@@Z 000000014001cb70 f   libucrtd:per_thread_data.obj
 0001:0001bc00       ??R<lambda_8d0ee55de4b1038c4002e0adecdf1839>@@QEBAXXZ 000000014001cc00 f   libucrtd:per_thread_data.obj
 0001:0001bc20       ??R<lambda_8f455de75cd7d7f24b4096f044d8b9e6>@@QEBAXXZ 000000014001cc20 f   libucrtd:per_thread_data.obj
 0001:0001bc40       ??R<lambda_92619d2358a28f41a33ba319515a20b9>@@QEBAXXZ 000000014001cc40 f   libucrtd:per_thread_data.obj
 0001:0001bc70       ??R<lambda_e157831efee4ea0afb0a2ace5dd5fd0d>@@QEBAXXZ 000000014001cc70 f   libucrtd:per_thread_data.obj
 0001:0001bce0       ?construct_ptd@@YAXQEAU__acrt_ptd@@QEAPEAU__crt_locale_data@@@Z 000000014001cce0 f   libucrtd:per_thread_data.obj
 0001:0001bdc0       ?construct_ptd_array@@YAXQEAU__acrt_ptd@@@Z 000000014001cdc0 f   libucrtd:per_thread_data.obj
 0001:0001be30       ?destroy_fls@@YAXPEAX@Z    000000014001ce30 f   libucrtd:per_thread_data.obj
 0001:0001be70       ?destroy_ptd@@YAXQEAU__acrt_ptd@@@Z 000000014001ce70 f   libucrtd:per_thread_data.obj
 0001:0001bf90       ?destroy_ptd_array@@YAXQEAU__acrt_ptd@@@Z 000000014001cf90 f   libucrtd:per_thread_data.obj
 0001:0001bfe0       ?internal_get_ptd_head@@YAPEAU__acrt_ptd@@XZ 000000014001cfe0 f   libucrtd:per_thread_data.obj
 0001:0001c110       ?internal_getptd_noexit@@YAPEAU__acrt_ptd@@XZ 000000014001d110 f   libucrtd:per_thread_data.obj
 0001:0001c180       ?replace_current_thread_locale_nolock@@YAXQEAU__acrt_ptd@@QEAU__crt_locale_data@@@Z 000000014001d180 f   libucrtd:per_thread_data.obj
 0001:0001c240       ?try_get_ptd_head@@YAPEAU__acrt_ptd@@XZ 000000014001d240 f   libucrtd:per_thread_data.obj
 0001:0001c460       ??$common_tcscat_s@_W@@YAHQEA_W_KQEB_W@Z 000000014001d460 f   libucrtd:wcscat_s.obj
 0001:0001cb10       ??$common_tcscpy_s@_W@@YAHQEA_W_KQEB_W@Z 000000014001db10 f   libucrtd:wcscpy_s.obj
 0001:0001d020       ??$common_tcsncpy_s@_W@@YAHQEA_W_KQEB_W1@Z 000000014001e020 f   libucrtd:wcsncpy_s.obj
 0001:0001d700       ??$common_strnlen@$00G@@YA_KQEBG_K@Z 000000014001e700 f   libucrtd:strnlen.obj
 0001:0001d760       ??$common_strnlen@$0A@E@@YA_KQEBE_K@Z 000000014001e760 f   libucrtd:strnlen.obj
 0001:0001d7c0       ??$common_strnlen@$0A@G@@YA_KQEBG_K@Z 000000014001e7c0 f   libucrtd:strnlen.obj
 0001:0001d820       ??$common_strnlen_c@$00G@@YA_KQEBG_K@Z 000000014001e820 f   libucrtd:strnlen.obj
 0001:0001d8a0       ??$common_strnlen_c@$0A@E@@YA_KQEBE_K@Z 000000014001e8a0 f   libucrtd:strnlen.obj
 0001:0001d920       ??$common_strnlen_c@$0A@G@@YA_KQEBG_K@Z 000000014001e920 f   libucrtd:strnlen.obj
 0001:0001d9a0       ??$common_strnlen_simd@$00$00G@@YA_KQEBG_K@Z 000000014001e9a0 f   libucrtd:strnlen.obj
 0001:0001dc40       ??$common_strnlen_simd@$00$0A@G@@YA_KQEBG_K@Z 000000014001ec40 f   libucrtd:strnlen.obj
 0001:0001df30       ??$common_strnlen_simd@$0A@$00E@@YA_KQEBE_K@Z 000000014001ef30 f   libucrtd:strnlen.obj
 0001:0001e1b0       ??$common_strnlen_simd@$0A@$00G@@YA_KQEBG_K@Z 000000014001f1b0 f   libucrtd:strnlen.obj
 0001:0001e450       ??$common_strnlen_simd@$0A@$0A@E@@YA_KQEBE_K@Z 000000014001f450 f   libucrtd:strnlen.obj
 0001:0001e720       ??$common_strnlen_simd@$0A@$0A@G@@YA_KQEBG_K@Z 000000014001f720 f   libucrtd:strnlen.obj
 0001:0001ea10       ??$last_reached@$00@@YA_NQEBX0@Z 000000014001fa10 f   libucrtd:strnlen.obj
 0001:0001ea20       ??$last_reached@$0A@@@YA_NQEBX0@Z 000000014001fa20 f   libucrtd:strnlen.obj
 0001:0001ec60       ??$common_show_message_box@_W@@YAHQEB_W0I@Z 000000014001fc60 f   libucrtd:crtmbox.obj
 0001:0001ef60       ?<lambda_invoker_cdecl>@<lambda_a1ce4c8ae42411fd470c77163914f50e>@@CAHPEBX0@Z 000000014001ff60 f   libucrtd:argv_wildcards.obj
 0001:0001ef90       ??$__acrt_convert_wcs_mbs_cp@D_WV<lambda_7c9dea7b4ca7285d2cdb541a38da6275>@@U__crt_win32_buffer_internal_dynamic_resizing@@@@YAHQEBDAEAV?$__crt_win32_buffer@_WU__crt_win32_buffer_internal_dynamic_resizing@@@@AEBV<lambda_7c9dea7b4ca7285d2cdb541a38da6275>@@I@Z 000000014001ff90 f   libucrtd:argv_wildcards.obj
 0001:0001f130       ??$__acrt_convert_wcs_mbs_cp@_WDV<lambda_d8593a27d1aa8c02be35c86a17d324c4>@@U__crt_win32_buffer_internal_dynamic_resizing@@@@YAHQEB_WAEAV?$__crt_win32_buffer@DU__crt_win32_buffer_internal_dynamic_resizing@@@@AEBV<lambda_d8593a27d1aa8c02be35c86a17d324c4>@@I@Z 0000000140020130 f   libucrtd:argv_wildcards.obj
 0001:0001f370       ??$common_expand_argv_wildcards@D@@YAHQEAPEADQEAPEAPEAD@Z 0000000140020370 f   libucrtd:argv_wildcards.obj
 0001:0001f7a0       ??$copy_and_add_argument_to_buffer@D@@YAHQEBD0_KAEAV?$argument_list@D@?A0x5f5c8891@@@Z 00000001400207a0 f   libucrtd:argv_wildcards.obj
 0001:0001f950       ??$expand_argument_wildcards@D@@YAHQEAD0AEAV?$argument_list@D@?A0x5f5c8891@@@Z 0000000140020950 f   libucrtd:argv_wildcards.obj
 0001:0001fe50       ??0?$argument_list@D@?A0x5f5c8891@@QEAA@XZ 0000000140020e50 f   libucrtd:argv_wildcards.obj
 0001:0001fee0       ??1?$argument_list@D@?A0x5f5c8891@@QEAA@XZ 0000000140020ee0 f   libucrtd:argv_wildcards.obj
 0001:0001ff50       ??B<lambda_a1ce4c8ae42411fd470c77163914f50e>@@QEBAP6AHPEBX0@ZXZ 0000000140020f50 f   libucrtd:argv_wildcards.obj
 0001:0001ff60       ??R<lambda_7c9dea7b4ca7285d2cdb541a38da6275>@@QEBAHIQEBDQEA_W_K@Z 0000000140020f60 f   libucrtd:argv_wildcards.obj
 0001:0001ffb0       ??R<lambda_a1ce4c8ae42411fd470c77163914f50e>@@QEBAHPEBX0@Z 0000000140020fb0 f   libucrtd:argv_wildcards.obj
 0001:0001fff0       ??R<lambda_cfae5a0e6efa98e0d1aa03c4cec8f74e>@@QEBA_ND@Z 0000000140020ff0 f   libucrtd:argv_wildcards.obj
 0001:00020040       ??R<lambda_f788ae46380686e8b737efdd8c720d07>@@QEBAHIQEB_WQEAD_K@Z 0000000140021040 f   libucrtd:getmodulefilenamea.obj
 0001:00020040       ??R<lambda_d8593a27d1aa8c02be35c86a17d324c4>@@QEBAHIQEB_WQEAD_K@Z 0000000140021040 f   libucrtd:argv_wildcards.obj
 0001:000202f0       ?append@?$argument_list@D@?A0x5f5c8891@@QEAAHQEAD@Z 00000001400212f0 f   libucrtd:argv_wildcards.obj
 0001:00020430       ?end@?$argument_list@D@?A0x5f5c8891@@QEBAPEAPEADXZ 0000000140021430 f   libucrtd:argv_wildcards.obj
 0001:00020440       ?expand_if_necessary@?$argument_list@D@?A0x5f5c8891@@AEAAHXZ 0000000140021440 f   libucrtd:argv_wildcards.obj
 0001:00020620       ?get_file_name@@YAPEADQEAV?$__crt_win32_buffer@DU__crt_win32_buffer_internal_dynamic_resizing@@@@QEA_W@Z 0000000140021620 f   libucrtd:argv_wildcards.obj
 0001:00020670       ?get_wide@@YAPEA_WQEAV?$__crt_win32_buffer@_WU__crt_win32_buffer_internal_dynamic_resizing@@@@QEAD@Z 0000000140021670 f   libucrtd:argv_wildcards.obj
 0001:000206c0       ?previous_character@@YAPEADQEAD0@Z 00000001400216c0 f   libucrtd:argv_wildcards.obj
 0001:00020750       ?size@?$argument_list@D@?A0x5f5c8891@@QEBA_KXZ 0000000140021750 f   libucrtd:argv_wildcards.obj
 0001:000207d0       ??$__acrt_convert_wcs_mbs_cp@_WDV<lambda_f788ae46380686e8b737efdd8c720d07>@@U__crt_win32_buffer_no_resizing@@@@YAHQEB_WAEAV?$__crt_win32_buffer@DU__crt_win32_buffer_no_resizing@@@@AEBV<lambda_f788ae46380686e8b737efdd8c720d07>@@I@Z 00000001400217d0 f   libucrtd:getmodulefilenamea.obj
 0001:00020c90       ??$?RV<lambda_efa02eb69bf647d2f7ff0dd6f1103f72>@@AEAV<lambda_bd5a608237428601b7e45fbdc72b1ae8>@@V<lambda_728235dc0fc2b1f82d1fa5b3e7102d8f>@@@?$__crt_seh_guarded_call@X@@QEAAX$$QEAV<lambda_efa02eb69bf647d2f7ff0dd6f1103f72>@@AEAV<lambda_bd5a608237428601b7e45fbdc72b1ae8>@@$$QEAV<lambda_728235dc0fc2b1f82d1fa5b3e7102d8f>@@@Z 0000000140021c90 f   libucrtd:mbctype.obj
 0001:00020cd0       ??$__acrt_lock_and_call@V<lambda_bd5a608237428601b7e45fbdc72b1ae8>@@@@YAXW4__acrt_lock_id@@$$QEAV<lambda_bd5a608237428601b7e45fbdc72b1ae8>@@@Z 0000000140021cd0 f   libucrtd:mbctype.obj
 0001:00020e00       ??R<lambda_bd5a608237428601b7e45fbdc72b1ae8>@@QEBAXXZ 0000000140021e00 f   libucrtd:mbctype.obj
 0001:00020f20       ?CPtoLocaleName@@YAPEB_WH@Z 0000000140021f20 f   libucrtd:mbctype.obj
 0001:00020fc0       ?getSystemCP@@YAHH@Z       0000000140021fc0 f   libucrtd:mbctype.obj
 0001:000210a0       ?setSBCS@@YAXPEAU__crt_multibyte_data@@@Z 00000001400220a0 f   libucrtd:mbctype.obj
 0001:000211a0       ?setSBUpLow@@YAXPEAU__crt_multibyte_data@@@Z 00000001400221a0 f   libucrtd:mbctype.obj
 0001:00021590       ?setmbcp_internal@@YAHH_NQEAU__acrt_ptd@@QEAPEAU__crt_multibyte_data@@@Z 0000000140022590 f   libucrtd:mbctype.obj
 0001:000217f0       ?update_thread_multibyte_data_internal@@YAPEAU__crt_multibyte_data@@QEAU__acrt_ptd@@QEAPEAU1@@Z 00000001400227f0 f   libucrtd:mbctype.obj
 0001:00021f30       memcpy_s                   0000000140022f30 f   libucrtd:cfout.obj
 0001:00021f30       memcpy_s                   0000000140022f30 f   libucrtd:mbctype.obj
 0001:0002206c       ?x_ismbbtype_l@@YAHPEAU__crt_locale_pointers@@IHH@Z 000000014002306c f   libucrtd:ismbbyte.obj
 0001:00022130       ?filter_mbtowcs_flags@@YAKIK@Z 0000000140023130 f   libucrtd:multibytetowidechar.obj
 0001:00022230       ?filter_wcstomb_flags@@YAKIK@Z 0000000140023230 f   libucrtd:widechartomultibyte.obj
 0001:00022650       ??$get_cached_win_policy@Udeveloper_information_policy_properties@?1??__acrt_get_developer_information_policy@@YA?AW4developer_information_policy@@XZ@@@YA?AW4developer_information_policy@@W4AppPolicyShowDeveloperDiagnostic@@@Z 0000000140023650 f   libucrtd:win_policies.obj
 0001:00022720       ??$get_cached_win_policy@Uwindowing_model_policy_properties@?1??__acrt_get_windowing_model_policy@@YA?AW4windowing_model_policy@@XZ@@@YA?AW4windowing_model_policy@@W4AppPolicyWindowingModel@@@Z 0000000140023720 f   libucrtd:win_policies.obj
 0001:000227f0       ??$get_win_policy@Uprocess_end_policy_properties@?1??__acrt_get_process_end_policy@@YA?AW4process_end_policy@@XZ@@@YA?AW4process_end_policy@@W4AppPolicyProcessTerminationMethod@@@Z 00000001400237f0 f   libucrtd:win_policies.obj
 0001:00022840       ?appmodel_get_policy@developer_information_policy_properties@?1??__acrt_get_developer_information_policy@@YA?AW4developer_information_policy@@XZ@SAJPEAW4AppPolicyShowDeveloperDiagnostic@@@Z 0000000140023840 f   libucrtd:win_policies.obj
 0001:00022860       ?appmodel_get_policy@process_end_policy_properties@?1??__acrt_get_process_end_policy@@YA?AW4process_end_policy@@XZ@SAJPEAW4AppPolicyProcessTerminationMethod@@@Z 0000000140023860 f   libucrtd:win_policies.obj
 0001:00022880       ?appmodel_get_policy@windowing_model_policy_properties@?1??__acrt_get_windowing_model_policy@@YA?AW4windowing_model_policy@@XZ@SAJPEAW4AppPolicyWindowingModel@@@Z 0000000140023880 f   libucrtd:win_policies.obj
 0001:000228a0       ?appmodel_policy_to_policy_type@developer_information_policy_properties@?1??__acrt_get_developer_information_policy@@YA?AW4developer_information_policy@@XZ@SA?AW43@J@Z 00000001400238a0 f   libucrtd:win_policies.obj
 0001:000228c0       ?appmodel_policy_to_policy_type@process_end_policy_properties@?1??__acrt_get_process_end_policy@@YA?AW4process_end_policy@@XZ@SA?AW43@W4AppPolicyProcessTerminationMethod@@@Z 00000001400238c0 f   libucrtd:win_policies.obj
 0001:000228e0       ?appmodel_policy_to_policy_type@windowing_model_policy_properties@?1??__acrt_get_windowing_model_policy@@YA?AW4windowing_model_policy@@XZ@SA?AW43@J@Z 00000001400238e0 f   libucrtd:win_policies.obj
 0001:00023130       ?get_std_handle_id@@YAKH@Z 0000000140024130 f   libucrtd:ioinit.obj
 0001:00023180       ?initialize_inherited_file_handles_nolock@@YAXXZ 0000000140024180 f   libucrtd:ioinit.obj
 0001:00023330       ?initialize_stdio_handles_nolock@@YAXXZ 0000000140024330 f   libucrtd:ioinit.obj
 0001:00023890       ??$free_crt_array@D$01@@YAXAEAY01PEAD@Z 0000000140024890 f   libucrtd:inittime.obj
 0001:00023890       ??$free_crt_array@_W$01@@YAXAEAY01PEA_W@Z 0000000140024890 f   libucrtd:inittime.obj
 0001:000238b0       ??$free_crt_array@D$06@@YAXAEAY06PEAD@Z 00000001400248b0 f   libucrtd:inittime.obj
 0001:000238b0       ??$free_crt_array@_W$06@@YAXAEAY06PEA_W@Z 00000001400248b0 f   libucrtd:inittime.obj
 0001:000238d0       ??$free_crt_array@D$0M@@@YAXAEAY0M@PEAD@Z 00000001400248d0 f   libucrtd:inittime.obj
 0001:000238d0       ??$free_crt_array@_W$0M@@@YAXAEAY0M@PEA_W@Z 00000001400248d0 f   libucrtd:inittime.obj
 0001:000238f0       ?free_crt_array_internal@@YAXQEAPEBX_K@Z 00000001400248f0 f   libucrtd:inittime.obj
 0001:00024a10       ?try_get_AppPolicyGetProcessTerminationMethod@@YAP6AJPEAXPEAW4AppPolicyProcessTerminationMethod@@@ZXZ 0000000140025a10 f   libucrtd:winapi_thunks.obj
 0001:00024a40       ?try_get_AppPolicyGetShowDeveloperDiagnostic@@YAP6AJPEAXPEAW4AppPolicyShowDeveloperDiagnostic@@@ZXZ 0000000140025a40 f   libucrtd:winapi_thunks.obj
 0001:00024a70       ?try_get_AppPolicyGetWindowingModel@@YAP6AJPEAXPEAW4AppPolicyWindowingModel@@@ZXZ 0000000140025a70 f   libucrtd:winapi_thunks.obj
 0001:00024aa0       ?try_get_AreFileApisANSI@@YAP6AHXZXZ 0000000140025aa0 f   libucrtd:winapi_thunks.obj
 0001:00024ad0       ?try_get_FlsAlloc@@YAP6AKP6AXPEAX@Z@ZXZ 0000000140025ad0 f   libucrtd:winapi_thunks.obj
 0001:00024b00       ?try_get_FlsFree@@YAP6AHK@ZXZ 0000000140025b00 f   libucrtd:winapi_thunks.obj
 0001:00024b30       ?try_get_FlsGetValue@@YAP6APEAXK@ZXZ 0000000140025b30 f   libucrtd:winapi_thunks.obj
 0001:00024b60       ?try_get_FlsSetValue@@YAP6AHKPEAX@ZXZ 0000000140025b60 f   libucrtd:winapi_thunks.obj
 0001:00024b90       ?try_get_GetActiveWindow@@YAP6APEAUHWND__@@XZXZ 0000000140025b90 f   libucrtd:winapi_thunks.obj
 0001:00024bc0       ?try_get_GetLastActivePopup@@YAP6APEAUHWND__@@PEAU1@@ZXZ 0000000140025bc0 f   libucrtd:winapi_thunks.obj
 0001:00024bf0       ?try_get_GetProcessWindowStation@@YAP6APEAUHWINSTA__@@XZXZ 0000000140025bf0 f   libucrtd:winapi_thunks.obj
 0001:00024c20       ?try_get_GetUserObjectInformationW@@YAP6AHPEAXH0KPEAK@ZXZ 0000000140025c20 f   libucrtd:winapi_thunks.obj
 0001:00024c50       ?try_get_InitializeCriticalSectionEx@@YAP6AHPEAU_RTL_CRITICAL_SECTION@@KK@ZXZ 0000000140025c50 f   libucrtd:winapi_thunks.obj
 0001:00024c80       ?try_get_LCMapStringEx@@YAP6AHPEB_WK0HPEA_WHPEAU_nlsversioninfo@@PEAX_J@ZXZ 0000000140025c80 f   libucrtd:winapi_thunks.obj
 0001:00024cb0       ?try_get_LocaleNameToLCID@@YAP6AKPEB_WK@ZXZ 0000000140025cb0 f   libucrtd:winapi_thunks.obj
 0001:00024ce0       ?try_get_MessageBoxA@@YAP6AHPEAUHWND__@@PEBD1I@ZXZ 0000000140025ce0 f   libucrtd:winapi_thunks.obj
 0001:00024d10       ?try_get_MessageBoxW@@YAP6AHPEAUHWND__@@PEB_W1I@ZXZ 0000000140025d10 f   libucrtd:winapi_thunks.obj
 0001:00024d40       ?try_get_first_available_module@@YAPEAUHINSTANCE__@@QEBW4module_id@?A0x391cf84c@@0@Z 0000000140025d40 f   libucrtd:winapi_thunks.obj
 0001:00024da0       ?try_get_function@@YAPEAXW4function_id@?A0x391cf84c@@QEBDQEBW4module_id@2@2@Z 0000000140025da0 f   libucrtd:winapi_thunks.obj
 0001:00024f40       ?try_get_module@@YAPEAUHINSTANCE__@@W4module_id@?A0x391cf84c@@@Z 0000000140025f40 f   libucrtd:winapi_thunks.obj
 0001:000250a0       ?try_get_proc_address_from_first_available_module@@YAPEAXQEBDQEBW4module_id@?A0x391cf84c@@1@Z 00000001400260a0 f   libucrtd:winapi_thunks.obj
 0001:000250f0       ?try_load_library_from_system_directory@@YAPEAUHINSTANCE__@@QEB_W@Z 00000001400260f0 f   libucrtd:winapi_thunks.obj
 0001:00025b30       ??$?RV<lambda_450d765d439847d4c735a33c368b5fc0>@@AEAV<lambda_44731a7d0e6d81c3e6aa82d741081786>@@V<lambda_601a2a7da3b7a96e9554ac7215c4b07c>@@@?$__crt_seh_guarded_call@P6AXH@Z@@QEAAP6AXH@Z$$QEAV<lambda_450d765d439847d4c735a33c368b5fc0>@@AEAV<lambda_44731a7d0e6d81c3e6aa82d741081786>@@$$QEAV<lambda_601a2a7da3b7a96e9554ac7215c4b07c>@@@Z 0000000140026b30 f   libucrtd:signal.obj
 0001:00025b80       ??$__acrt_lock_and_call@V<lambda_44731a7d0e6d81c3e6aa82d741081786>@@@@YAP6AXH@ZW4__acrt_lock_id@@$$QEAV<lambda_44731a7d0e6d81c3e6aa82d741081786>@@@Z 0000000140026b80 f   libucrtd:signal.obj
 0001:00025bd0       ??R<lambda_44731a7d0e6d81c3e6aa82d741081786>@@QEBAP6AXH@ZXZ 0000000140026bd0 f   libucrtd:signal.obj
 0001:00025c00       ?get_global_action_nolock@@YAPEAP6AXH@ZH@Z 0000000140026c00 f   libucrtd:signal.obj
 0001:00025c90       ?siglookup@@YAPEAU__crt_signal_action_t@@HQEAU1@@Z 0000000140026c90 f   libucrtd:signal.obj
 0001:00026230       $LN58                      0000000140027230     libucrtd:signal.obj
 0001:0002623c       $LN57                      000000014002723c     libucrtd:signal.obj
 0001:00026370       ?select_heap@@YAPEAXQEAX@Z 0000000140027370 f   libucrtd:free_base.obj
 0001:00026490       ?is_contraction_possible@@YA_N_K@Z 0000000140027490 f   libucrtd:expand.obj
 0001:00027400       ?fe_to_nearest@@YA_NQEBN_KF@Z 0000000140028400 f   libucrtd:cvt.obj
 0001:00027550       ?fp_format_a@@YAHQEBNPEAD_KQEAD2H_NIQEAU__crt_locale_pointers@@W4__acrt_rounding_mode@@@Z 0000000140028550 f   libucrtd:cvt.obj
 0001:00027df0       ?fp_format_e@@YAHQEBNQEAD_K12H_NIQEAU__crt_locale_pointers@@W4__acrt_rounding_mode@@@Z 0000000140028df0 f   libucrtd:cvt.obj
 0001:00028010       ?fp_format_e_internal@@YAHQEAD_KH_NIQEAU_strflt@@2QEAU__crt_locale_pointers@@@Z 0000000140029010 f   libucrtd:cvt.obj
 0001:00028440       ?fp_format_f@@YAHQEBNQEAD_K12HQEAU__crt_locale_pointers@@W4__acrt_rounding_mode@@@Z 0000000140029440 f   libucrtd:cvt.obj
 0001:000285a0       ?fp_format_f_internal@@YAHQEAD_KHQEAU_strflt@@_NQEAU__crt_locale_pointers@@@Z 00000001400295a0 f   libucrtd:cvt.obj
 0001:00028840       ?fp_format_g@@YAHQEBNQEAD_K12H_NIW4__acrt_rounding_mode@@QEAU__crt_locale_pointers@@@Z 0000000140029840 f   libucrtd:cvt.obj
 0001:00028a90       ?fp_format_nan_or_infinity@@YAHW4__acrt_fp_class@@_NPEAD_K1@Z 0000000140029a90 f   libucrtd:cvt.obj
 0001:00028c00       ?shift_bytes@@YAXQEAD_K0H@Z 0000000140029c00 f   libucrtd:cvt.obj
 0001:00028c50       ?should_round_up@@YA_NQEBN_KFW4__acrt_rounding_mode@@@Z 0000000140029c50 f   libucrtd:cvt.obj
 0001:00029374       $LN42                      000000014002a374     libucrtd:cvt.obj
 0001:00029388       $LN41                      000000014002a388     libucrtd:cvt.obj
 0001:0002afe0       ?shortsort@@YAXPEAD0_KP6AHPEBX2@Z@Z 000000014002bfe0 f   libucrtd:qsort.obj
 0001:0002b0c0       ?swap@@YAXPEAD0_K@Z        000000014002c0c0 f   libucrtd:qsort.obj
 0001:0002b860       ??$common_tcsncpy_s@D@@YAHQEAD_KQEBD1@Z 000000014002c860 f   libucrtd:strncpy_s.obj
 0001:0002bf20       fallbackMethod             000000014002cf20 f   libucrtd:strpbrk.obj
 0001:0002c884       $LN85                      000000014002d884     libucrtd:strpbrk.obj
 0001:0002c8c0       $LN84                      000000014002d8c0     libucrtd:strpbrk.obj
 0001:0002c900       $LN83                      000000014002d900     libucrtd:strpbrk.obj
 0001:0002ca40       ?__acrt_LCMapStringA_stat@@YAHPEAU__crt_locale_pointers@@PEB_WKPEBDHPEADHHH@Z 000000014002da40 f   libucrtd:lcmapstringa.obj
 0001:0002d0e0       ?initialize_multibyte@@YAHXZ 000000014002e0e0 f   libucrtd:multibyte_initializer.obj
 0001:0002d110       ??$common_xtox@KD@@YAHKQEAD_KI_N@Z 000000014002e110 f   libucrtd:xtoa.obj
 0001:0002d350       ??$common_xtox@K_W@@YAHKQEA_W_KI_N@Z 000000014002e350 f   libucrtd:xtoa.obj
 0001:0002d5a0       ??$common_xtox_s@KD@@YAHKQEAD_KI_N@Z 000000014002e5a0 f   libucrtd:xtoa.obj
 0001:0002d950       ??$common_xtox_s@K_W@@YAHKQEA_W_KI_N@Z 000000014002e950 f   libucrtd:xtoa.obj
 0001:0002de90       ?GetTableIndexFromLocaleName@@YAHPEB_W@Z 000000014002ee90 f   libucrtd:lcidtoname_downlevel.obj
 0001:0002e0b0       ??$?RV<lambda_842d9ff0dc9ef11c61343bbaebe7f885>@@AEAV<lambda_c5860995281e5c4ce005b3de8f5874ee>@@V<lambda_d90129c13df834fdcbf8d2b88dafcf2d>@@@?$__crt_seh_guarded_call@X@@QEAAX$$QEAV<lambda_842d9ff0dc9ef11c61343bbaebe7f885>@@AEAV<lambda_c5860995281e5c4ce005b3de8f5874ee>@@$$QEAV<lambda_d90129c13df834fdcbf8d2b88dafcf2d>@@@Z 000000014002f0b0 f   libucrtd:fflush.obj
 0001:0002e0f0       ??$?RV<lambda_886d6c58226a84441f68b9f2b8217b83>@@AEAV<lambda_ab61a845afdef5b7c387490eaf3616ee>@@V<lambda_f7f22ab5edc0698d5f6905b0d3f44752>@@@?$__crt_seh_guarded_call@X@@QEAAX$$QEAV<lambda_886d6c58226a84441f68b9f2b8217b83>@@AEAV<lambda_ab61a845afdef5b7c387490eaf3616ee>@@$$QEAV<lambda_f7f22ab5edc0698d5f6905b0d3f44752>@@@Z 000000014002f0f0 f   libucrtd:fflush.obj
 0001:0002e130       ??$__acrt_lock_and_call@V<lambda_ab61a845afdef5b7c387490eaf3616ee>@@@@YAXW4__acrt_lock_id@@$$QEAV<lambda_ab61a845afdef5b7c387490eaf3616ee>@@@Z 000000014002f130 f   libucrtd:fflush.obj
 0001:0002e180       ??$__acrt_lock_stream_and_call@V<lambda_c5860995281e5c4ce005b3de8f5874ee>@@@@YAXQEAU_iobuf@@$$QEAV<lambda_c5860995281e5c4ce005b3de8f5874ee>@@@Z 000000014002f180 f   libucrtd:fflush.obj
 0001:0002e1d0       ??0<lambda_842d9ff0dc9ef11c61343bbaebe7f885>@@QEAA@AEBQEAU_iobuf@@@Z 000000014002f1d0 f   libucrtd:fflush.obj
 0001:0002e1d0       ??0<lambda_d90129c13df834fdcbf8d2b88dafcf2d>@@QEAA@AEBQEAU_iobuf@@@Z 000000014002f1d0 f   libucrtd:fflush.obj
 0001:0002e1f0       ??0<lambda_c5860995281e5c4ce005b3de8f5874ee>@@QEAA@AEBV__crt_stdio_stream@@AEAHAEB_N1@Z 000000014002f1f0 f   libucrtd:fflush.obj
 0001:0002e250       ??R<lambda_842d9ff0dc9ef11c61343bbaebe7f885>@@QEBAXXZ 000000014002f250 f   libucrtd:fflush.obj
 0001:0002e270       ??R<lambda_ab61a845afdef5b7c387490eaf3616ee>@@QEBA@XZ 000000014002f270 f   libucrtd:fflush.obj
 0001:0002e360       ??R<lambda_c5860995281e5c4ce005b3de8f5874ee>@@QEBAXXZ 000000014002f360 f   libucrtd:fflush.obj
 0001:0002e400       ??R<lambda_d90129c13df834fdcbf8d2b88dafcf2d>@@QEBAXXZ 000000014002f400 f   libucrtd:fflush.obj
 0001:0002e470       ?common_flush_all@@YAH_N@Z 000000014002f470 f   libucrtd:fflush.obj
 0001:0002e4e0       ?common_flush_all_should_try_to_flush_stream@@YA_NV__crt_stdio_stream@@QEAH@Z 000000014002f4e0 f   libucrtd:fflush.obj
 0001:0002e590       ?is_stream_allocated@@YA_NJ@Z 000000014002f590 f   libucrtd:fflush.obj
 0001:0002e5c0       ?is_stream_flushable@@YA_NJ@Z 000000014002f5c0 f   libucrtd:fflush.obj
 0001:0002e5f0       ?is_stream_flushable_or_commitable@@YA_NJ@Z 000000014002f5f0 f   libucrtd:fflush.obj
 0001:0002e8e0       ??R<lambda_88e6d024674186fe9d3f7283b675e4c3>@@QEBA_KPEBD@Z 000000014002f8e0 f   libucrtd:mbrtowc.obj
 0001:0002eff0       ?check_trailing@@YA_NPEBDW4__acrt_has_trailing_digits@@@Z 000000014002fff0 f   libucrtd:_fptostr.obj
 0001:0002f040       ?should_round_up@@YA_NQEBDHW4__acrt_has_trailing_digits@@W4__acrt_rounding_mode@@@Z 0000000140030040 f   libucrtd:_fptostr.obj
 0001:0002f600       ??$convert_to_fos_high_precision@N@@YA?AW4__acrt_has_trailing_digits@@NIQEAHQEAD_K@Z 0000000140030600 f   libucrtd:cfout.obj
 0001:0002fd20       ??0scoped_fp_state_reset@?A0x71ca7cfb@@QEAA@XZ 0000000140030d20 f   libucrtd:cfout.obj
 0001:0002fd70       ??1scoped_fp_state_reset@?A0x71ca7cfb@@QEAA@XZ 0000000140030d70 f   libucrtd:cfout.obj
 0001:00031b10       ?_mbstowcs_l_helper@@YA_KPEA_WPEBD_KPEAU__crt_locale_pointers@@@Z 0000000140032b10 f   libucrtd:mbstowcs.obj
 0001:00032710       ?_wcstombs_l_helper@@YA_KPEADPEB_W_KPEAU__crt_locale_pointers@@@Z 0000000140033710 f   libucrtd:wcstombs.obj
 0001:00032fc0       ?wcsncnt@@YA_KPEB_W_K@Z    0000000140033fc0 f   libucrtd:wcstombs.obj
 0001:000335e0       ??$common_tcscat_s@D@@YAHQEAD_KQEBD@Z 00000001400345e0 f   libucrtd:strcat_s.obj
 0001:00033d20       ??$?RV<lambda_4e3dbe6921bc0b5a1a6bc6573fdc859e>@@AEAV<lambda_5533cddd4bda0037814beee657757329>@@V<lambda_47cffbaa968af5c721c38a4a6f8da44d>@@@?$__crt_seh_guarded_call@H@@QEAAH$$QEAV<lambda_4e3dbe6921bc0b5a1a6bc6573fdc859e>@@AEAV<lambda_5533cddd4bda0037814beee657757329>@@$$QEAV<lambda_47cffbaa968af5c721c38a4a6f8da44d>@@@Z 0000000140034d20 f   libucrtd:commit.obj
 0001:00033d70       ??$__acrt_lowio_lock_fh_and_call@V<lambda_5533cddd4bda0037814beee657757329>@@@@YAHH$$QEAV<lambda_5533cddd4bda0037814beee657757329>@@@Z 0000000140034d70 f   libucrtd:commit.obj
 0001:00033dc0       ??R<lambda_8ddc48ad9d26c778cb15812d1d88fc8a>@@QEBAXXZ 0000000140034dc0 f   libucrtd:close.obj
 0001:00033dc0       ??R<lambda_47cffbaa968af5c721c38a4a6f8da44d>@@QEBAXXZ 0000000140034dc0 f   libucrtd:commit.obj
 0001:00033de0       ??R<lambda_53fc7fc888e23d815d7080162c0aeeb2>@@QEBAXXZ 0000000140034de0 f   libucrtd:close.obj
 0001:00033de0       ??R<lambda_4e3dbe6921bc0b5a1a6bc6573fdc859e>@@QEBAXXZ 0000000140034de0 f   libucrtd:commit.obj
 0001:00033e00       ??R<lambda_5533cddd4bda0037814beee657757329>@@QEBAHXZ 0000000140034e00 f   libucrtd:commit.obj
 0001:000340a0       ?write_binary_nolock@@YA?AUwrite_result@?A0x17268360@@HQEBDI@Z 00000001400350a0 f   libucrtd:write.obj
 0001:00034170       ?write_double_translated_ansi_nolock@@YA?AUwrite_result@?A0x17268360@@HQEBDI@Z 0000000140035170 f   libucrtd:write.obj
 0001:000350d0       ?write_double_translated_unicode_nolock@@YA?AUwrite_result@?A0x17268360@@QEBDI@Z 00000001400360d0 f   libucrtd:write.obj
 0001:00035230       ?write_requires_double_translation_nolock@@YA_NH@Z 0000000140036230 f   libucrtd:write.obj
 0001:00035350       ?write_text_ansi_nolock@@YA?AUwrite_result@?A0x17268360@@HQEBDI@Z 0000000140036350 f   libucrtd:write.obj
 0001:00035580       ?write_text_utf16le_nolock@@YA?AUwrite_result@?A0x17268360@@HQEBDI@Z 0000000140036580 f   libucrtd:write.obj
 0001:000357c0       ?write_text_utf8_nolock@@YA?AUwrite_result@?A0x17268360@@HQEBDI@Z 00000001400367c0 f   libucrtd:write.obj
 0001:00036700       $$000000                   0000000140037700     libucrtd:log10.obj
 0001:00037240       ??$to_abstract_status@W4__acrt_fenv_machine_sse_status@@@@YA?AW4__acrt_fenv_abstract_status@@W4__acrt_fenv_machine_sse_status@@@Z 0000000140038240 f   libucrtd:_fenvutils.obj
 0001:00037260       ??$translate_control_exception_mask@W4__acrt_fenv_abstract_control@@W4__acrt_fenv_machine_sse_control@@@@YA?AW4__acrt_fenv_abstract_control@@W4__acrt_fenv_machine_sse_control@@@Z 0000000140038260 f   libucrtd:_fenvutils.obj
 0001:00037350       ??$translate_control_exception_mask@W4__acrt_fenv_machine_sse_control@@W4__acrt_fenv_abstract_control@@@@YA?AW4__acrt_fenv_machine_sse_control@@W4__acrt_fenv_abstract_control@@@Z 0000000140038350 f   libucrtd:_fenvutils.obj
 0001:00037440       ??$translate_control_rounding_control@W4__acrt_fenv_abstract_control@@W4__acrt_fenv_machine_sse_control@@@@YA?AW4__acrt_fenv_abstract_control@@W4__acrt_fenv_machine_sse_control@@@Z 0000000140038440 f   libucrtd:_fenvutils.obj
 0001:000374b0       ??$translate_control_rounding_control@W4__acrt_fenv_machine_sse_control@@W4__acrt_fenv_abstract_control@@@@YA?AW4__acrt_fenv_machine_sse_control@@W4__acrt_fenv_abstract_control@@@Z 00000001400384b0 f   libucrtd:_fenvutils.obj
 0001:00037520       ??$translate_status@W4__acrt_fenv_abstract_status@@W4__acrt_fenv_machine_sse_status@@@@YA?AW4__acrt_fenv_abstract_status@@W4__acrt_fenv_machine_sse_status@@@Z 0000000140038520 f   libucrtd:_fenvutils.obj
 0001:00037610       ??$translate_status@W4__acrt_fenv_machine_sse_status@@W4__acrt_fenv_abstract_status@@@@YA?AW4__acrt_fenv_machine_sse_status@@W4__acrt_fenv_abstract_status@@@Z 0000000140038610 f   libucrtd:_fenvutils.obj
 0001:000378e0       ?get_machine_sse_control@@YA?AW4__acrt_fenv_machine_sse_control@@XZ 00000001400388e0 f   libucrtd:_fenvutils.obj
 0001:00037900       ?get_machine_sse_status@@YA?AW4__acrt_fenv_machine_sse_status@@XZ 0000000140038900 f   libucrtd:_fenvutils.obj
 0001:00037920       ?set_machine_sse_control@@YAXW4__acrt_fenv_machine_sse_control@@@Z 0000000140038920 f   libucrtd:_fenvutils.obj
 0001:00037980       ?set_machine_sse_status@@YAXW4__acrt_fenv_machine_sse_status@@@Z 0000000140038980 f   libucrtd:_fenvutils.obj
 0001:000379d0       ?to_abstract_control@@YA?AW4__acrt_fenv_abstract_control@@W4__acrt_fenv_machine_sse_control@@@Z 00000001400389d0 f   libucrtd:_fenvutils.obj
 0001:00037a20       ?to_machine_sse_control@@YA?AW4__acrt_fenv_machine_sse_control@@W4__acrt_fenv_abstract_control@@@Z 0000000140038a20 f   libucrtd:_fenvutils.obj
 0001:00037a80       ?to_machine_sse_status@@YA?AW4__acrt_fenv_machine_sse_status@@W4__acrt_fenv_abstract_status@@@Z 0000000140038a80 f   libucrtd:_fenvutils.obj
 0001:00037aa0       ?translate_control_denormal_control_from_sse@@YA?AW4__acrt_fenv_abstract_control@@W4__acrt_fenv_machine_sse_control@@@Z 0000000140038aa0 f   libucrtd:_fenvutils.obj
 0001:00037b20       ?translate_control_denormal_control_to_sse@@YA?AW4__acrt_fenv_machine_sse_control@@W4__acrt_fenv_abstract_control@@@Z 0000000140038b20 f   libucrtd:_fenvutils.obj
 0001:00037c40       ??$common_lseek_nolock@_J@@YA_JH_JH@Z 0000000140038c40 f   libucrtd:lseek.obj
 0001:00037d50       ?common_lseek_do_seek_nolock@@YA_JQEAX_JH@Z 0000000140038d50 f   libucrtd:lseek.obj
 0001:00038460       _log_special_common        0000000140039460 f   libucrtd:log_special.obj
 0001:00038580       _call_matherr              0000000140039580 f   libucrtd:libm_error.obj
 0001:00038610       _exception_enabled         0000000140039610 f   libucrtd:libm_error.obj
 0001:00038930       _abstract_cw               0000000140039930 f   libucrtd:ieee.obj
 0001:00038a80       _abstract_sw               0000000140039a80 f   libucrtd:ieee.obj
 0001:00038b60       _hw_cw                     0000000140039b60 f   libucrtd:ieee.obj
 0001:00038cb0       common_control87           0000000140039cb0 f   libucrtd:ieee.obj
 0001:00038dd0       ??$?RV<lambda_53fc7fc888e23d815d7080162c0aeeb2>@@AEAV<lambda_4e7105787b7b0e0227fbf2b2d883fa65>@@V<lambda_8ddc48ad9d26c778cb15812d1d88fc8a>@@@?$__crt_seh_guarded_call@H@@QEAAH$$QEAV<lambda_53fc7fc888e23d815d7080162c0aeeb2>@@AEAV<lambda_4e7105787b7b0e0227fbf2b2d883fa65>@@$$QEAV<lambda_8ddc48ad9d26c778cb15812d1d88fc8a>@@@Z 0000000140039dd0 f   libucrtd:close.obj
 0001:00038e20       ??$__acrt_lowio_lock_fh_and_call@V<lambda_4e7105787b7b0e0227fbf2b2d883fa65>@@@@YAHH$$QEAV<lambda_4e7105787b7b0e0227fbf2b2d883fa65>@@@Z 0000000140039e20 f   libucrtd:close.obj
 0001:00038e70       ??R<lambda_4e7105787b7b0e0227fbf2b2d883fa65>@@QEBAHXZ 0000000140039e70 f   libucrtd:close.obj
 0001:00038f20       ?close_os_handle_nolock@@YAKH@Z 0000000140039f20 f   libucrtd:close.obj
 0001:00039430       ?combine_second_surrogate@?A0xc60ee810@@YA_U_SPEAU_Mbstatet@@@Z 000000014003a430 f   libucrtd:c16rtomb.obj
 0001:00039450       ?has_surrogate@?A0xc60ee810@@YA_NPEAU_Mbstatet@@@Z 000000014003a450 f   libucrtd:c16rtomb.obj
 0001:00039480       ?is_first_surrogate@?A0xc60ee810@@YA_N_S@Z 000000014003a480 f   libucrtd:c16rtomb.obj
 0001:000394c0       ?is_second_surrogate@?A0xc60ee810@@YA_N_S@Z 000000014003a4c0 f   libucrtd:c16rtomb.obj
 0001:00039500       ?store_first_surrogate@?A0xc60ee810@@YAX_SPEAU_Mbstatet@@@Z 000000014003a500 f   libucrtd:c16rtomb.obj
 0001:00039ef0       $$000000                   000000014003aef0     libucrtd:fpsr.obj
 0001:0003a320       $$000000                   000000014003b320     libvcruntimed:memcmp.obj
 0001:0003a820       $$000000                   000000014003b820     LIBCMTD:guard_dispatch.obj
 0001:0003a840       $$000000                   000000014003b840     LIBCMTD:guard_xfg_dispatch.obj
 0001:0003a860       ?filt$0@?0??__scrt_common_main_seh@@YAHXZ@4HA 000000014003b860 f   LIBCMTD:exe_winmain.obj
 0001:0003a890       __scrt_is_nonwritable_in_current_image$filt$0 000000014003b890 f   LIBCMTD:utility.obj
 0001:0003a8d0       __DestructExceptionObject$filt$0 000000014003b8d0 f   libvcruntimed:ehhelpers.obj
 0001:0003a900       ?filt$0@?0???$_CallSETranslator@V__FrameHandler3@@@@YAHPEAUEHExceptionRecord@@PEA_KPEAU_CONTEXT@@PEAU_xDISPATCHER_CONTEXT@@PEBU_s_FuncInfo@@K1H@Z@4HA 000000014003b900 f   libvcruntimed:risctrnsctrl.obj
 0001:0003a970       ?filt$0@?0???$BuildCatchObjectHelperInternal@V__FrameHandler3@@@@YAHPEAUEHExceptionRecord@@PEAXPEBU_s_HandlerType@@PEBU_s_CatchableType@@@Z@4HA 000000014003b970 f   libvcruntimed:frame.obj
 0001:0003a970       ?filt$0@?0???$BuildCatchObjectInternal@V__FrameHandler3@@@@YAXPEAUEHExceptionRecord@@PEAXPEBU_s_HandlerType@@PEBU_s_CatchableType@@@Z@4HA 000000014003b970 f   libvcruntimed:frame.obj
 0001:0003a970       ?filt$0@?0??is_bad_read_pointer@@YA_NQEBX_K@Z@4HA 000000014003b970 f   libucrtd:debug_heap.obj
 0001:0003a970       terminate$filt$0           000000014003b970 f   libucrtd:terminate.obj
 0001:0003a990       ?filt$0@?0??CxxCallCatchBlock@__FrameHandler3@@SAPEAXPEAU_EXCEPTION_RECORD@@@Z@4HA 000000014003b990 f   libvcruntimed:frame.obj
 0001:0003a9b9       ?fin$1@?0??CxxCallCatchBlock@__FrameHandler3@@SAPEAXPEAU_EXCEPTION_RECORD@@@Z@4HA 000000014003b9b9 f   libvcruntimed:frame.obj
 0001:0003aa50       ?filt$0@?0??FrameUnwindToState@__FrameHandler3@@SAXPEA_KPEAU_xDISPATCHER_CONTEXT@@PEBU_s_FuncInfo@@H@Z@4HA 000000014003ba50 f   libvcruntimed:frame.obj
 0001:0003aa71       ?fin$1@?0??FrameUnwindToState@__FrameHandler3@@SAXPEA_KPEAU_xDISPATCHER_CONTEXT@@PEBU_s_FuncInfo@@H@Z@4HA 000000014003ba71 f   libvcruntimed:frame.obj
 0001:0003aab0       ?fin$0@?0???$?RV<lambda_0ae27a3a962d80f24befdcbee591983d>@@AEAV<lambda_8d0ee55de4b1038c4002e0adecdf1839>@@V<lambda_dc504788e8f1664fe9b84e20bfb512f2>@@@?$__crt_seh_guarded_call@X@@QEAAX$$QEAV<lambda_0ae27a3a962d80f24befdcbee591983d>@@AEAV<lambda_8d0ee55de4b1038c4002e0adecdf1839>@@$$QEAV<lambda_dc504788e8f1664fe9b84e20bfb512f2>@@@Z@4HA 000000014003bab0 f   libucrtd:per_thread_data.obj
 0001:0003aab0       ?fin$0@?0???$?RV<lambda_2d41944a1d46af3157314b8a01080d33>@@AEAV<lambda_8f455de75cd7d7f24b4096f044d8b9e6>@@V<lambda_aa500f224e6afead328df44964fe2772>@@@?$__crt_seh_guarded_call@X@@QEAAX$$QEAV<lambda_2d41944a1d46af3157314b8a01080d33>@@AEAV<lambda_8f455de75cd7d7f24b4096f044d8b9e6>@@$$QEAV<lambda_aa500f224e6afead328df44964fe2772>@@@Z@4HA 000000014003bab0 f   libucrtd:per_thread_data.obj
 0001:0003aab0       ?fin$0@?0???$?RV<lambda_74a0ef281e44d15e1136f792f539efb3>@@AEAV<lambda_e157831efee4ea0afb0a2ace5dd5fd0d>@@V<lambda_04ddeca75b7c13fd67716e8dfcef87ee>@@@?$__crt_seh_guarded_call@X@@QEAAX$$QEAV<lambda_74a0ef281e44d15e1136f792f539efb3>@@AEAV<lambda_e157831efee4ea0afb0a2ace5dd5fd0d>@@$$QEAV<lambda_04ddeca75b7c13fd67716e8dfcef87ee>@@@Z@4HA 000000014003bab0 f   libucrtd:per_thread_data.obj
 0001:0003aab0       ?fin$0@?0???$?RV<lambda_aa87e3671a710a21b5dc78c0bdf72e11>@@AEAV<lambda_92619d2358a28f41a33ba319515a20b9>@@V<lambda_6992ecaafeb10aed2b74cb1fae11a551>@@@?$__crt_seh_guarded_call@X@@QEAAX$$QEAV<lambda_aa87e3671a710a21b5dc78c0bdf72e11>@@AEAV<lambda_92619d2358a28f41a33ba319515a20b9>@@$$QEAV<lambda_6992ecaafeb10aed2b74cb1fae11a551>@@@Z@4HA 000000014003bab0 f   libucrtd:per_thread_data.obj
 0001:0003aab0       ?fin$0@?0???$?RV<lambda_410d79af7f07d98d83a3f525b3859a53>@@AEAV<lambda_3e16ef9562a7dcce91392c22ab16ea36>@@V<lambda_38119f0e861e05405d8a144b9b982f0a>@@@?$__crt_seh_guarded_call@X@@QEAAX$$QEAV<lambda_410d79af7f07d98d83a3f525b3859a53>@@AEAV<lambda_3e16ef9562a7dcce91392c22ab16ea36>@@$$QEAV<lambda_38119f0e861e05405d8a144b9b982f0a>@@@Z@4HA 000000014003bab0 f   libucrtd:wsetlocale.obj
 0001:0003aab0       ?fin$0@?0???$?RV<lambda_efa02eb69bf647d2f7ff0dd6f1103f72>@@AEAV<lambda_bd5a608237428601b7e45fbdc72b1ae8>@@V<lambda_728235dc0fc2b1f82d1fa5b3e7102d8f>@@@?$__crt_seh_guarded_call@X@@QEAAX$$QEAV<lambda_efa02eb69bf647d2f7ff0dd6f1103f72>@@AEAV<lambda_bd5a608237428601b7e45fbdc72b1ae8>@@$$QEAV<lambda_728235dc0fc2b1f82d1fa5b3e7102d8f>@@@Z@4HA 000000014003bab0 f   libucrtd:mbctype.obj
 0001:0003aab0       ?fin$0@?0???$?RV<lambda_d80eeec6fff315bfe5c115232f3240e3>@@AEAV<lambda_6e4b09c48022b2350581041d5f6b0c4c>@@V<lambda_2358e3775559c9db80273638284d5e45>@@@?$__crt_seh_guarded_call@X@@QEAAX$$QEAV<lambda_d80eeec6fff315bfe5c115232f3240e3>@@AEAV<lambda_6e4b09c48022b2350581041d5f6b0c4c>@@$$QEAV<lambda_2358e3775559c9db80273638284d5e45>@@@Z@4HA 000000014003bab0 f   libucrtd:exit.obj
 0001:0003aab0       ?fin$0@?0???$?RV<lambda_886d6c58226a84441f68b9f2b8217b83>@@AEAV<lambda_ab61a845afdef5b7c387490eaf3616ee>@@V<lambda_f7f22ab5edc0698d5f6905b0d3f44752>@@@?$__crt_seh_guarded_call@X@@QEAAX$$QEAV<lambda_886d6c58226a84441f68b9f2b8217b83>@@AEAV<lambda_ab61a845afdef5b7c387490eaf3616ee>@@$$QEAV<lambda_f7f22ab5edc0698d5f6905b0d3f44752>@@@Z@4HA 000000014003bab0 f   libucrtd:fflush.obj
 0001:0003aad0       ?filt$0@?0???R<lambda_6e4b09c48022b2350581041d5f6b0c4c>@@QEBA@XZ@4HA 000000014003bad0 f   libucrtd:exit.obj
 0001:0003ab00       ?fin$0@?0???$?RV<lambda_450d765d439847d4c735a33c368b5fc0>@@AEAV<lambda_44731a7d0e6d81c3e6aa82d741081786>@@V<lambda_601a2a7da3b7a96e9554ac7215c4b07c>@@@?$__crt_seh_guarded_call@P6AXH@Z@@QEAAP6AXH@Z$$QEAV<lambda_450d765d439847d4c735a33c368b5fc0>@@AEAV<lambda_44731a7d0e6d81c3e6aa82d741081786>@@$$QEAV<lambda_601a2a7da3b7a96e9554ac7215c4b07c>@@@Z@4HA 000000014003bb00 f   libucrtd:signal.obj
 0001:0003ab00       ?fin$0@?0???$?RV<lambda_6a47f4c8fd0152770a780fc1d70204eb>@@AEAV<lambda_d121dba8a4adeaf3a9819e48611155df>@@V<lambda_6aaa2265f5b6a89667e7d7630012e97a>@@@?$__crt_seh_guarded_call@H@@QEAAH$$QEAV<lambda_6a47f4c8fd0152770a780fc1d70204eb>@@AEAV<lambda_d121dba8a4adeaf3a9819e48611155df>@@$$QEAV<lambda_6aaa2265f5b6a89667e7d7630012e97a>@@@Z@4HA 000000014003bb00 f   libucrtd:onexit.obj
 0001:0003ab00       ?fin$0@?0???$?RV<lambda_dce957679fd779aa27c4ca5c39e09098>@@AEAV<lambda_3b83eb014488ad801d84acef5aaf14d3>@@V<lambda_00e911965883f7966597d4c465c83ebc>@@@?$__crt_seh_guarded_call@H@@QEAAH$$QEAV<lambda_dce957679fd779aa27c4ca5c39e09098>@@AEAV<lambda_3b83eb014488ad801d84acef5aaf14d3>@@$$QEAV<lambda_00e911965883f7966597d4c465c83ebc>@@@Z@4HA 000000014003bb00 f   libucrtd:onexit.obj
 0001:0003ab20       ?dtor$0@?0???R<lambda_d121dba8a4adeaf3a9819e48611155df>@@QEBAHXZ@4HA 000000014003bb20 f   libucrtd:onexit.obj
 0001:0003ab40       ?fin$0@?0??heap_alloc_dbg_internal@@YAPEAX_KHQEBDH@Z@4HA 000000014003bb40 f   libucrtd:debug_heap.obj
 0001:0003ab40       _CrtMemCheckpoint$fin$0    000000014003bb40 f   libucrtd:debug_heap.obj
 0001:0003ab60       ?fin$0@?0??validate_heap_if_required_nolock@@YAXXZ@4HA 000000014003bb60 f   libucrtd:debug_heap.obj
 0001:0003ab80       _CrtCheckMemory$fin$0      000000014003bb80 f   libucrtd:debug_heap.obj
 0001:0003ab80       _CrtMemDumpAllObjectsSince$fin$0 000000014003bb80 f   libucrtd:debug_heap.obj
 0001:0003ab80       _CrtSetDbgFlag$fin$0       000000014003bb80 f   libucrtd:debug_heap.obj
 0001:0003ab80       _msize_dbg$fin$0           000000014003bb80 f   libucrtd:debug_heap.obj
 0001:0003ab80       _realloc_dbg$fin$0         000000014003bb80 f   libucrtd:debug_heap.obj
 0001:0003aba0       _free_dbg$fin$0            000000014003bba0 f   libucrtd:debug_heap.obj
 0001:0003aba0       _query_new_handler$fin$0   000000014003bba0 f   libucrtd:new_handler.obj
 0001:0003abc0       ?fin$0@?0??update_thread_multibyte_data_internal@@YAPEAU__crt_multibyte_data@@QEAU__acrt_ptd@@QEAPEAU1@@Z@4HA 000000014003bbc0 f   libucrtd:mbctype.obj
 0001:0003abe0       __acrt_lowio_ensure_fh_exists$fin$0 000000014003bbe0 f   libucrtd:osfinfo.obj
 0001:0003ac00       __acrt_initialize_lowio$fin$0 000000014003bc00 f   libucrtd:ioinit.obj
 0001:0003ac20       __acrt_update_thread_locale_data$fin$0 000000014003bc20 f   libucrtd:locale_refcounting.obj
 0001:0003ac40       raise$fin$0                000000014003bc40 f   libucrtd:signal.obj
 0001:0003ac70       ?dtor$0@?0??fp_format_a@@YAHQEBNPEAD_KQEAD2H_NIQEAU__crt_locale_pointers@@W4__acrt_rounding_mode@@@Z@4HA 000000014003bc70 f   libucrtd:cvt.obj
 0001:0003ac90       _VCrtDbgReportA$fin$0      000000014003bc90 f   libucrtd:dbgrptt.obj
 0001:0003acab       _VCrtDbgReportA$fin$1      000000014003bcab f   libucrtd:dbgrptt.obj
 0001:0003acd0       _VCrtDbgReportW$fin$0      000000014003bcd0 f   libucrtd:dbgrptt.obj
 0001:0003aceb       _VCrtDbgReportW$fin$1      000000014003bceb f   libucrtd:dbgrptt.obj
 0001:0003ad10       ?dtor$0@?0??shortsort@@YAXPEAD0_KP6AHPEBX2@Z@Z@4HA 000000014003bd10 f   libucrtd:qsort.obj
 0001:0003ad30       ?fin$0@?0???$?RV<lambda_842d9ff0dc9ef11c61343bbaebe7f885>@@AEAV<lambda_c5860995281e5c4ce005b3de8f5874ee>@@V<lambda_d90129c13df834fdcbf8d2b88dafcf2d>@@@?$__crt_seh_guarded_call@X@@QEAAX$$QEAV<lambda_842d9ff0dc9ef11c61343bbaebe7f885>@@AEAV<lambda_c5860995281e5c4ce005b3de8f5874ee>@@$$QEAV<lambda_d90129c13df834fdcbf8d2b88dafcf2d>@@@Z@4HA 000000014003bd30 f   libucrtd:fflush.obj
 0001:0003ad50       _fcloseall$fin$0           000000014003bd50 f   libucrtd:closeall.obj
 0001:0003ad70       ?dtor$0@?0??_wcstombs_l_helper@@YA_KPEADPEB_W_KPEAU__crt_locale_pointers@@@Z@4HA 000000014003bd70 f   libucrtd:wcstombs.obj
 0001:0003ad90       ?fin$0@?0???$?RV<lambda_53fc7fc888e23d815d7080162c0aeeb2>@@AEAV<lambda_4e7105787b7b0e0227fbf2b2d883fa65>@@V<lambda_8ddc48ad9d26c778cb15812d1d88fc8a>@@@?$__crt_seh_guarded_call@H@@QEAAH$$QEAV<lambda_53fc7fc888e23d815d7080162c0aeeb2>@@AEAV<lambda_4e7105787b7b0e0227fbf2b2d883fa65>@@$$QEAV<lambda_8ddc48ad9d26c778cb15812d1d88fc8a>@@@Z@4HA 000000014003bd90 f   libucrtd:close.obj
 0001:0003ad90       ?fin$0@?0???$?RV<lambda_4e3dbe6921bc0b5a1a6bc6573fdc859e>@@AEAV<lambda_5533cddd4bda0037814beee657757329>@@V<lambda_47cffbaa968af5c721c38a4a6f8da44d>@@@?$__crt_seh_guarded_call@H@@QEAAH$$QEAV<lambda_4e3dbe6921bc0b5a1a6bc6573fdc859e>@@AEAV<lambda_5533cddd4bda0037814beee657757329>@@$$QEAV<lambda_47cffbaa968af5c721c38a4a6f8da44d>@@@Z@4HA 000000014003bd90 f   libucrtd:commit.obj
 0001:0003adb0       _write$fin$0               000000014003bdb0 f   libucrtd:write.obj
 0001:0003add0       fclose$fin$0               000000014003bdd0 f   libucrtd:fclose.obj
 0001:0003ae00       common_control87$filt$0    000000014003be00 f   libucrtd:ieee.obj
 0001:0003ae50       _ctrlfp$filt$0             000000014003be50 f   libucrtd:fpctrl.obj
 0001:0003aea0       _IsNonwritableInCurrentImage$filt$0 000000014003bea0 f   LIBCMTD:pesect.obj
 0002:00000388       ?pre_cpp_initializer@@3P6AXXZEA 000000014003c388     LIBCMTD:exe_winmain.obj
 0002:000003a0       ?pre_c_initializer@@3P6AHXZEA 000000014003c3a0     LIBCMTD:exe_winmain.obj
 0002:000003a8       ?post_pgo_initializer@@3P6AHXZEA 000000014003c3a8     LIBCMTD:exe_winmain.obj
 0002:00000410       $SG96315                   000000014003c410     win32_made.obj
 0002:00000420       $SG96317                   000000014003c420     win32_made.obj
 0002:00000438       $SG96318                   000000014003c438     win32_made.obj
 0002:00000450       $SG96330                   000000014003c450     win32_made.obj
 0002:00000460       $SG96332                   000000014003c460     win32_made.obj
 0002:00000470       $SG96334                   000000014003c470     win32_made.obj
 0002:00000480       $SG96337                   000000014003c480     win32_made.obj
 0002:00000490       $SG96339                   000000014003c490     win32_made.obj
 0002:000004a0       $SG96361                   000000014003c4a0     win32_made.obj
 0002:000004b0       $SG96364                   000000014003c4b0     win32_made.obj
 0002:000004c8       $SG96373                   000000014003c4c8     win32_made.obj
 0002:000004e8       $SG96375                   000000014003c4e8     win32_made.obj
 0002:00000510       $SG96418                   000000014003c510     win32_made.obj
 0002:00000548       $SG96496                   000000014003c548     win32_made.obj
 0002:00000550       $SG96497                   000000014003c550     win32_made.obj
 0002:00000558       $SG96498                   000000014003c558     win32_made.obj
 0002:00000570       $SG96743                   000000014003c570     win32_made.obj
 0002:00000580       $SG96744                   000000014003c580     win32_made.obj
 0002:00000590       $SG96745                   000000014003c590     win32_made.obj
 0002:000005a4       $SG96748                   000000014003c5a4     win32_made.obj
 0002:000005b0       $SG96756                   000000014003c5b0     win32_made.obj
 0002:000005f0       GS_ExceptionPointers       000000014003c5f0     LIBCMTD:gs_report.obj
 0002:00000660       ?tokenTable@@3QBUStringLiteral@@B 000000014003c660     libvcruntimed:undname.obj
 0002:00000760       ?nameTable@@3QBUStringLiteral@@B 000000014003c760     libvcruntimed:undname.obj
 0002:00000c90       ?rttiTable@@3QBUStringLiteral@@B 000000014003cc90     libvcruntimed:undname.obj
 0002:00000ce0       ?IndirectionName@@3QBUStringLiteral@@B 000000014003cce0     libvcruntimed:undname.obj
 0002:00000d40       ?PrefixName@@3QBUStringLiteral@@B 000000014003cd40     libvcruntimed:undname.obj
 0002:00001420       ?module_names@?A0x61a31dd3@@3QBQEB_WB 000000014003d420     libvcruntimed:winapi_downlevel.obj
 0002:000016a0       ?candidate_modules@?1??try_get_FlsAlloc@@YAP6AKP6AXPEAX@Z@ZXZ@4QBW4module_id@?A0x61a31dd3@@B 000000014003d6a0     libvcruntimed:winapi_downlevel.obj
 0002:000016b8       ?candidate_modules@?1??try_get_FlsFree@@YAP6AHK@ZXZ@4QBW4module_id@?A0x61a31dd3@@B 000000014003d6b8     libvcruntimed:winapi_downlevel.obj
 0002:000016c8       ?candidate_modules@?1??try_get_FlsGetValue@@YAP6APEAXK@ZXZ@4QBW4module_id@?A0x61a31dd3@@B 000000014003d6c8     libvcruntimed:winapi_downlevel.obj
 0002:000016e0       ?candidate_modules@?1??try_get_FlsSetValue@@YAP6AHKPEAX@ZXZ@4QBW4module_id@?A0x61a31dd3@@B 000000014003d6e0     libvcruntimed:winapi_downlevel.obj
 0002:000016f8       ?candidate_modules@?1??try_get_InitializeCriticalSectionEx@@YAP6AHPEAU_RTL_CRITICAL_SECTION@@KK@ZXZ@4QBW4module_id@?A0x61a31dd3@@B 000000014003d6f8     libvcruntimed:winapi_downlevel.obj
 0002:00001720       ?ExceptionTemplate@?1??UnwindNestedFrames@__FrameHandler3@@SAXPEA_KPEAUEHExceptionRecord@@PEAU_CONTEXT@@0PEAXPEBU_s_FuncInfo@@HHPEBU_s_HandlerType@@PEAU_xDISPATCHER_CONTEXT@@E@Z@4U_EXCEPTION_RECORD@@B 000000014003d720     libvcruntimed:risctrnsctrl.obj
 0002:00002548       $cppxdata$??R<lambda_d121dba8a4adeaf3a9819e48611155df>@@QEBAHXZ 000000014003e548     libucrtd:onexit.obj
 0002:000025b0       __acrt_initializers        000000014003e5b0     libucrtd:initialization.obj
 0002:000026b0       ?block_use_names@@3QBQEBDB 000000014003e6b0     libucrtd:debug_heap.obj
 0002:00005938       ?report_type_messages@@3QBQEB_WB 0000000140041938     libucrtd:dbgrpt.obj
 0002:00005998       ?more_info_string@@3QEB_WEB 0000000140041998     libucrtd:dbgrpt.obj
 0002:00005c9e       ?empty_string@?1???$common_message_window@D@@YAHHQEAXQEBD111@Z@4QBDB 0000000140041c9e     libucrtd:dbgrpt.obj
 0002:00005f18       ?empty_string@?1???$common_message_window@_W@@YAHHQEAXQEB_W111@Z@4QB_WB 0000000140041f18     libucrtd:dbgrpt.obj
 0002:00006430       ?errtable@@3QBUerrentry@?A0x31fdb9ec@@B 0000000140042430     libucrtd:errno.obj
 0002:000065c0       $cppxdata$??1?$__crt_win32_buffer@DU__crt_win32_buffer_internal_dynamic_resizing@@@@QEAA@XZ 00000001400425c0     libucrtd:argv_wildcards.obj
 0002:000065c0       $cppxdata$??1?$__crt_win32_buffer@_WU__crt_win32_buffer_internal_dynamic_resizing@@@@QEAA@XZ 00000001400425c0     libucrtd:argv_wildcards.obj
 0002:000069d8       $cppxdata$??1?$__crt_win32_buffer@DU__crt_win32_buffer_no_resizing@@@@QEAA@XZ 00000001400429d8     libucrtd:getmodulefilenamea.obj
 0002:00006a00       ?_mb_locale_names@@3QBQEB_WB 0000000140042a00     libucrtd:mbctype.obj
 0002:00008000       ?module_names@?A0x391cf84c@@3QBQEB_WB 0000000140044000     libucrtd:winapi_thunks.obj
 0002:00008584       ?candidate_modules@?1??try_get_AreFileApisANSI@@YAP6AHXZXZ@4QBW4module_id@?A0x391cf84c@@B 0000000140044584     libucrtd:winapi_thunks.obj
 0002:00008598       ?candidate_modules@?1??try_get_FlsAlloc@@YAP6AKP6AXPEAX@Z@ZXZ@4QBW4module_id@?A0x391cf84c@@B 0000000140044598     libucrtd:winapi_thunks.obj
 0002:000085a0       ?candidate_modules@?1??try_get_FlsFree@@YAP6AHK@ZXZ@4QBW4module_id@?A0x391cf84c@@B 00000001400445a0     libucrtd:winapi_thunks.obj
 0002:000085a8       ?candidate_modules@?1??try_get_FlsGetValue@@YAP6APEAXK@ZXZ@4QBW4module_id@?A0x391cf84c@@B 00000001400445a8     libucrtd:winapi_thunks.obj
 0002:000085b0       ?candidate_modules@?1??try_get_FlsSetValue@@YAP6AHKPEAX@ZXZ@4QBW4module_id@?A0x391cf84c@@B 00000001400445b0     libucrtd:winapi_thunks.obj
 0002:000085b8       ?candidate_modules@?1??try_get_GetActiveWindow@@YAP6APEAUHWND__@@XZXZ@4QBW4module_id@?A0x391cf84c@@B 00000001400445b8     libucrtd:winapi_thunks.obj
 0002:000085d0       ?candidate_modules@?1??try_get_GetLastActivePopup@@YAP6APEAUHWND__@@PEAU2@@ZXZ@4QBW4module_id@?A0x391cf84c@@B 00000001400445d0     libucrtd:winapi_thunks.obj
 0002:000085f0       ?candidate_modules@?1??try_get_GetProcessWindowStation@@YAP6APEAUHWINSTA__@@XZXZ@4QBW4module_id@?A0x391cf84c@@B 00000001400445f0     libucrtd:winapi_thunks.obj
 0002:00008610       ?candidate_modules@?1??try_get_GetUserObjectInformationW@@YAP6AHPEAXH0KPEAK@ZXZ@4QBW4module_id@?A0x391cf84c@@B 0000000140044610     libucrtd:winapi_thunks.obj
 0002:00008638       ?candidate_modules@?1??try_get_InitializeCriticalSectionEx@@YAP6AHPEAU_RTL_CRITICAL_SECTION@@KK@ZXZ@4QBW4module_id@?A0x391cf84c@@B 0000000140044638     libucrtd:winapi_thunks.obj
 0002:00008640       ?candidate_modules@?1??try_get_LCMapStringEx@@YAP6AHPEB_WK0HPEA_WHPEAU_nlsversioninfo@@PEAX_J@ZXZ@4QBW4module_id@?A0x391cf84c@@B 0000000140044640     libucrtd:winapi_thunks.obj
 0002:00008658       ?candidate_modules@?1??try_get_LocaleNameToLCID@@YAP6AKPEB_WK@ZXZ@4QBW4module_id@?A0x391cf84c@@B 0000000140044658     libucrtd:winapi_thunks.obj
 0002:00008678       ?candidate_modules@?1??try_get_MessageBoxA@@YAP6AHPEAUHWND__@@PEBD1I@ZXZ@4QBW4module_id@?A0x391cf84c@@B 0000000140044678     libucrtd:winapi_thunks.obj
 0002:00008690       ?candidate_modules@?1??try_get_MessageBoxW@@YAP6AHPEAUHWND__@@PEB_W1I@ZXZ@4QBW4module_id@?A0x391cf84c@@B 0000000140044690     libucrtd:winapi_thunks.obj
 0002:000086a4       ?candidate_modules@?1??try_get_AppPolicyGetProcessTerminationMethod@@YAP6AJPEAXPEAW4AppPolicyProcessTerminationMethod@@@ZXZ@4QBW4module_id@?A0x391cf84c@@B 00000001400446a4     libucrtd:winapi_thunks.obj
 0002:000086d0       ?candidate_modules@?1??try_get_AppPolicyGetShowDeveloperDiagnostic@@YAP6AJPEAXPEAW4AppPolicyShowDeveloperDiagnostic@@@ZXZ@4QBW4module_id@?A0x391cf84c@@B 00000001400446d0     libucrtd:winapi_thunks.obj
 0002:000086fc       ?candidate_modules@?1??try_get_AppPolicyGetWindowingModel@@YAP6AJPEAXPEAW4AppPolicyWindowingModel@@@ZXZ@4QBW4module_id@?A0x391cf84c@@B 00000001400446fc     libucrtd:winapi_thunks.obj
 0002:00008d50       $cppxdata$?fp_format_a@@YAHQEBNPEAD_KQEAD2H_NIQEAU__crt_locale_pointers@@W4__acrt_rounding_mode@@@Z 0000000140044d50     libucrtd:cvt.obj
 0002:00008d80       ?strings@?1??fp_format_nan_or_infinity@@YAHW4__acrt_fp_class@@_NPEAD_K1@Z@4QAY03QEBDA 0000000140044d80     libucrtd:cvt.obj
 0002:0000a1f8       $cppxdata$?shortsort@@YAXPEAD0_KP6AHPEBX2@Z@Z 00000001400461f8     libucrtd:qsort.obj
 0002:0000a5e0       ?LcidToLocaleNameTable@?A0x881e4c05@@3QBULcidToLocaleName@1@B 00000001400465e0     libucrtd:lcidtoname_downlevel.obj
 0002:0000c030       ?LocaleNameToIndexTable@?A0x881e4c05@@3QBULocaleNameIndex@1@B 0000000140048030     libucrtd:lcidtoname_downlevel.obj
 0002:0000ec70       $cppxdata$?_wcstombs_l_helper@@YA_KPEADPEB_W_KPEAU__crt_locale_pointers@@@Z 000000014004ac70     libucrtd:wcstombs.obj
 0002:0000f0e0       __real_ninf                000000014004b0e0     libucrtd:log10.obj
 0002:0000f0f0       __real_inf                 000000014004b0f0     libucrtd:log10.obj
 0002:0000f100       __real_neg_qnan            000000014004b100     libucrtd:log10.obj
 0002:0000f110       __real_qnanbit             000000014004b110     libucrtd:log10.obj
 0002:0000f120       __int_1023                 000000014004b120     libucrtd:log10.obj
 0002:0000f130       __mask_001                 000000014004b130     libucrtd:log10.obj
 0002:0000f140       __mask_mant                000000014004b140     libucrtd:log10.obj
 0002:0000f150       __mask_mant_top8           000000014004b150     libucrtd:log10.obj
 0002:0000f160       __mask_mant9               000000014004b160     libucrtd:log10.obj
 0002:0000f170       __real_log10_e             000000014004b170     libucrtd:log10.obj
 0002:0000f180       __real_log10_e_lead        000000014004b180     libucrtd:log10.obj
 0002:0000f190       __real_log10_e_tail        000000014004b190     libucrtd:log10.obj
 0002:0000f1a0       __real_log10_2_lead        000000014004b1a0     libucrtd:log10.obj
 0002:0000f1b0       __real_log10_2_tail        000000014004b1b0     libucrtd:log10.obj
 0002:0000f1c0       __real_two                 000000014004b1c0     libucrtd:log10.obj
 0002:0000f1d0       __real_one                 000000014004b1d0     libucrtd:log10.obj
 0002:0000f1e0       __real_half                000000014004b1e0     libucrtd:log10.obj
 0002:0000f1f0       __mask_100                 000000014004b1f0     libucrtd:log10.obj
 0002:0000f200       __real_1_over_512          000000014004b200     libucrtd:log10.obj
 0002:0000f210       __real_1_over_2            000000014004b210     libucrtd:log10.obj
 0002:0000f220       __real_1_over_3            000000014004b220     libucrtd:log10.obj
 0002:0000f230       __real_1_over_4            000000014004b230     libucrtd:log10.obj
 0002:0000f240       __real_1_over_5            000000014004b240     libucrtd:log10.obj
 0002:0000f250       __real_1_over_6            000000014004b250     libucrtd:log10.obj
 0002:0000f260       __real_neg_1023            000000014004b260     libucrtd:log10.obj
 0002:0000f270       __mask_2045                000000014004b270     libucrtd:log10.obj
 0002:0000f280       __real_threshold           000000014004b280     libucrtd:log10.obj
 0002:0000f290       __real_near_one_lt         000000014004b290     libucrtd:log10.obj
 0002:0000f2a0       __real_near_one_gt         000000014004b2a0     libucrtd:log10.obj
 0002:0000f2b0       __real_min_norm            000000014004b2b0     libucrtd:log10.obj
 0002:0000f2c0       __real_notsign             000000014004b2c0     libucrtd:log10.obj
 0002:0000f2d0       __real_ca1                 000000014004b2d0     libucrtd:log10.obj
 0002:0000f2e0       __real_ca2                 000000014004b2e0     libucrtd:log10.obj
 0002:0000f2f0       __real_ca3                 000000014004b2f0     libucrtd:log10.obj
 0002:0000f300       __real_ca4                 000000014004b300     libucrtd:log10.obj
 0002:0000f310       __mask_lower               000000014004b310     libucrtd:log10.obj
 0002:0000f320       __flag_x_zero              000000014004b320     libucrtd:log10.obj
 0002:0000f324       __flag_x_neg               000000014004b324     libucrtd:log10.obj
 0002:0000f328       __flag_x_nan               000000014004b328     libucrtd:log10.obj
 0002:00010ea0       __real@433fffffffffffff    000000014004cea0     libucrtd:fpsr.obj
 0002:00010ea8       __real@c33fffffffffffff    000000014004cea8     libucrtd:fpsr.obj
 0002:00011670       $unwind$WinMain            000000014004d670     win32_made.obj
 0002:00011684       $unwind$?CastStrings@@YAX_KPEAD0101@Z 000000014004d684     win32_made.obj
 0002:0001168c       $unwind$?Win32GetEXEFileName@@YAXPEAUwin32_state@@@Z 000000014004d68c     win32_made.obj
 0002:00011694       $unwind$?StringLength@@YAHPEAD@Z 000000014004d694     win32_made.obj
 0002:0001169c       $unwind$?Win32BuildEXEPathFileName@@YAXPEAUwin32_state@@PEADH1@Z 000000014004d69c     win32_made.obj
 0002:000116a4       $unwind$?DEBUGPlatformFreeFileMemory@@YAXPEAUthread_context@@PEAX@Z 000000014004d6a4     win32_made.obj
 0002:000116ac       $unwind$?DEBUGPlatformReadEntireFile@@YA?AUdebug_read_file_result@@PEAUthread_context@@PEAD@Z 000000014004d6ac     win32_made.obj
 0002:000116b8       $unwind$?DEBUGPlatformWriteEntireFile@@YAHPEAUthread_context@@PEADIPEAX@Z 000000014004d6b8     win32_made.obj
 0002:000116c0       $unwind$?Win32LoadGameCode@@YA?AUwin32_game_code@@PEAD0@Z 000000014004d6c0     win32_made.obj
 0002:000116cc       $unwind$?Win32UnloadGameCode@@YAXPEAUwin32_game_code@@@Z 000000014004d6cc     win32_made.obj
 0002:000116d4       $unwind$?Win32LoadXInput@@YAXXZ 000000014004d6d4     win32_made.obj
 0002:000116dc       $unwind$?Win32InitDSound@@YAXPEAUHWND__@@HH@Z 000000014004d6dc     win32_made.obj
 0002:000116f0       $unwind$?Win32GetWindowDimension@@YA?AUwin32_window_dimension@@PEAUHWND__@@@Z 000000014004d6f0     win32_made.obj
 0002:00011700       $unwind$?Win32ResizeDIBSection@@YAXPEAUwin32_offscreen_buffer@@HH@Z 000000014004d700     win32_made.obj
 0002:00011708       $unwind$?Win32DisplayBufferInWindow@@YAXPEAUwin32_offscreen_buffer@@PEAUHDC__@@HH@Z 000000014004d708     win32_made.obj
 0002:00011710       $unwind$?Win32MainWindowCallback@@YA_JPEAUHWND__@@I_K_J@Z 000000014004d710     win32_made.obj
 0002:00011720       $unwind$?Win32ClearBuffer@@YAXPEAUwin32_sound_output@@@Z 000000014004d720     win32_made.obj
 0002:00011728       $unwind$?Win32FillSoundBuffer@@YAXPEAUwin32_sound_output@@KKPEAUgame_sound_output_buffer@@@Z 000000014004d728     win32_made.obj
 0002:00011730       $unwind$?Win32ProcessXInputDigitalButton@@YAXKPEAUgame_button_state@@K0@Z 000000014004d730     win32_made.obj
 0002:00011738       $unwind$?Win32ProcessXInputStickValue@@YAMFF@Z 000000014004d738     win32_made.obj
 0002:00011740       $unwind$?Win32GetInputFileLocation@@YAXPEAUwin32_state@@HHHPEAD@Z 000000014004d740     win32_made.obj
 0002:00011750       $unwind$?Win32GetReplayBuffer@@YAPEAUwin32_replay_buffer@@PEAUwin32_state@@I@Z 000000014004d750     win32_made.obj
 0002:00011758       $unwind$?Win32BeginRecordingInput@@YAXPEAUwin32_state@@H@Z 000000014004d758     win32_made.obj
 0002:0001176c       $unwind$?Win32EndRecordingInput@@YAXPEAUwin32_state@@@Z 000000014004d76c     win32_made.obj
 0002:00011774       $unwind$?Win32BeginInputPlayBack@@YAXPEAUwin32_state@@H@Z 000000014004d774     win32_made.obj
 0002:00011788       $unwind$?Win32EndInputPlayBack@@YAXPEAUwin32_state@@@Z 000000014004d788     win32_made.obj
 0002:00011790       $unwind$?Win32RecordInput@@YAXPEAUwin32_state@@PEAUgame_input@@@Z 000000014004d790     win32_made.obj
 0002:00011798       $unwind$?Win32PlayBackInput@@YAXPEAUwin32_state@@PEAUgame_input@@@Z 000000014004d798     win32_made.obj
 0002:000117a0       $unwind$?Win32ProcessPendingMessage@@YAXPEAUwin32_state@@PEAUgame_controller_input@@@Z 000000014004d7a0     win32_made.obj
 0002:000117a8       $unwind$?SafeTruncateUInt64@@YAI_K@Z 000000014004d7a8     win32_made.obj
 0002:000117a8       $unwind$ReadNoFence64      000000014004d7a8     LIBCMTD:guard_support.obj
 0002:000117a8       $unwind$?isEHs@__FrameHandler3@@SA_NPEBU_s_FuncInfo@@@Z 000000014004d7a8     libvcruntimed:frame.obj
 0002:000117a8       $unwind$?isNoExcept@__FrameHandler3@@SA_NPEBU_s_FuncInfo@@@Z 000000014004d7a8     libvcruntimed:frame.obj
 0002:000117a8       $unwind$?what@exception@std@@UEBAPEBDXZ 000000014004d7a8     libvcruntimed:frame.obj
 0002:000117a8       $unwind$?detach@?$__crt_unique_heap_ptr@U__vcrt_ptd@@U__crt_internal_free_policy@@@@QEAAPEAU__vcrt_ptd@@XZ 000000014004d7a8     libvcruntimed:per_thread_data.obj
 0002:000117a8       $unwind$?is_valid@?$__crt_unique_heap_ptr@U__vcrt_ptd@@U__crt_internal_free_policy@@@@QEBA_NXZ 000000014004d7a8     libvcruntimed:per_thread_data.obj
 0002:000117a8       $unwind$?detach@?$__crt_unique_heap_ptr@DU__crt_public_free_policy@@@@QEAAPEADXZ 000000014004d7a8     libvcruntimed:std_exception.obj
 0002:000117a8       $unwind$?is_valid@?$__crt_unique_heap_ptr@DU__crt_public_free_policy@@@@QEBA_NXZ 000000014004d7a8     libvcruntimed:std_exception.obj
 0002:000117a8       $unwind$?__crt_interlocked_read_64@@YA_JPED_J@Z 000000014004d7a8     libvcruntimed:std_type_info.obj
 0002:000117a8       $unwind$?is_valid@?$__crt_unique_heap_ptr@DU__crt_internal_free_policy@@@@QEBA_NXZ 000000014004d7a8     libvcruntimed:std_type_info.obj
 0002:000117a8       $unwind$?get@?$c_string_character_source@D@__crt_strtox@@QEAADXZ 000000014004d7a8     libucrtd:atox.obj
 0002:000117a8       $unwind$?get@?$c_string_character_source@_W@__crt_strtox@@QEAA_WXZ 000000014004d7a8     libucrtd:atox.obj
 0002:000117a8       $unwind$?has_surrogate@?A0xc60ee810@@YA_NPEAU_Mbstatet@@@Z 000000014004d7a8     libucrtd:c16rtomb.obj
 0002:000117a8       $unwind$?is_first_surrogate@?A0xc60ee810@@YA_N_S@Z 000000014004d7a8     libucrtd:c16rtomb.obj
 0002:000117a8       $unwind$?is_second_surrogate@?A0xc60ee810@@YA_N_S@Z 000000014004d7a8     libucrtd:c16rtomb.obj
 0002:000117a8       $unwind$?is_zero@__crt_strtox@@YA_NAEBUbig_integer@1@@Z 000000014004d7a8     libucrtd:cfout.obj
 0002:000117a8       $unwind$?__acrt_fp_classify@@YA?AW4__acrt_fp_class@@AEBN@Z 000000014004d7a8     libucrtd:cvt.obj
 0002:000117a8       $unwind$?__acrt_fp_is_negative@@YA_NAEBN@Z 000000014004d7a8     libucrtd:cvt.obj
 0002:000117a8       $unwind$_CrtSetDumpClient  000000014004d7a8     libucrtd:debug_heap.obj
 0002:000117a8       $unwind$__acrt_get_locale_data_prefix 000000014004d7a8     libucrtd:debug_heap.obj
 0002:000117a8       $unwind$?detach@?$__crt_unique_heap_ptr@U__acrt_ptd@@U__crt_internal_free_policy@@@@QEAAPEAU__acrt_ptd@@XZ 000000014004d7a8     libucrtd:per_thread_data.obj
 0002:000117a8       $unwind$?is_valid@?$__crt_unique_heap_ptr@U__acrt_ptd@@U__crt_internal_free_policy@@@@QEBA_NXZ 000000014004d7a8     libucrtd:per_thread_data.obj
 0002:000117a8       $unwind$_MallocaComputeSize 000000014004d7a8     libucrtd:getstringtypea.obj
 0002:000117a8       $unwind$??B?$__crt_scoped_stack_ptr@_W@@QEBA_NXZ 000000014004d7a8     libucrtd:lcmapstringa.obj
 0002:000117a8       $unwind$?detach@?$__crt_unique_heap_ptr@U__crt_multibyte_data@@U__crt_internal_free_policy@@@@QEAAPEAU__crt_multibyte_data@@XZ 000000014004d7a8     libucrtd:wsetlocale.obj
 0002:000117a8       $unwind$?is_valid@?$__crt_unique_heap_ptr@U__crt_multibyte_data@@U__crt_internal_free_policy@@@@QEBA_NXZ 000000014004d7a8     libucrtd:wsetlocale.obj
 0002:000117a8       $unwind$?detach@?$__crt_unique_heap_ptr@U__crt_lowio_handle_data@@U__crt_internal_free_policy@@@@QEAAPEAU__crt_lowio_handle_data@@XZ 000000014004d7a8     libucrtd:osfinfo.obj
 0002:000117a8       $unwind$?is_valid@?$__crt_unique_heap_ptr@U__crt_lowio_handle_data@@U__crt_internal_free_policy@@@@QEBA_NXZ 000000014004d7a8     libucrtd:osfinfo.obj
 0002:000117a8       $unwind$?setSBCS@@YAXPEAU__crt_multibyte_data@@@Z 000000014004d7a8     libucrtd:mbctype.obj
 0002:000117a8       $unwind$__acrt_should_sync_with_global_locale 000000014004d7a8     libucrtd:mbctype.obj
 0002:000117a8       $unwind$?detach@?$__crt_unique_heap_ptr@EU__crt_internal_free_policy@@@@QEAAPEAEXZ 000000014004d7a8     libucrtd:argv_parsing.obj
 0002:000117a8       $unwind$?detach@?$__crt_unique_heap_ptr@PEADU__crt_internal_free_policy@@@@QEAAPEAPEADXZ 000000014004d7a8     libucrtd:argv_parsing.obj
 0002:000117a8       $unwind$?is_valid@?$__crt_unique_heap_ptr@EU__crt_internal_free_policy@@@@QEBA_NXZ 000000014004d7a8     libucrtd:argv_parsing.obj
 0002:000117a8       $unwind$?__crt_fast_encode_pointer@@YA?AU__crt_fast_encoded_nullptr_t@@$$T@Z 000000014004d7a8     libucrtd:exit.obj
 0002:000117a8       $unwind$?__crt_interlocked_read_32@@YAHPEDH@Z 000000014004d7a8     libucrtd:exit.obj
 0002:000117a8       $unwind$?detach@?$__crt_unique_heap_ptr@P6AXXZU__crt_internal_free_policy@@@@QEAAPEAP6AXXZXZ 000000014004d7a8     libucrtd:onexit.obj
 0002:000117a8       $unwind$?detach@?$__crt_unique_heap_ptr@PEAU__crt_stdio_stream_data@@U__crt_internal_free_policy@@@@QEAAPEAPEAU__crt_stdio_stream_data@@XZ 000000014004d7a8     libucrtd:_file.obj
 0002:000117a8       $unwind$??$read_va_arg@C@__crt_stdio_output@@YACAEAPEAD@Z 000000014004d7a8     libucrtd:output.obj
 0002:000117a8       $unwind$??$read_va_arg@E@__crt_stdio_output@@YAEAEAPEAD@Z 000000014004d7a8     libucrtd:output.obj
 0002:000117a8       $unwind$??$read_va_arg@F@__crt_stdio_output@@YAFAEAPEAD@Z 000000014004d7a8     libucrtd:output.obj
 0002:000117a8       $unwind$??$read_va_arg@G@__crt_stdio_output@@YAGAEAPEAD@Z 000000014004d7a8     libucrtd:output.obj
 0002:000117a8       $unwind$??$read_va_arg@H@__crt_stdio_output@@YAHAEAPEAD@Z 000000014004d7a8     libucrtd:output.obj
 0002:000117a8       $unwind$??$read_va_arg@I@__crt_stdio_output@@YAIAEAPEAD@Z 000000014004d7a8     libucrtd:output.obj
 0002:000117a8       $unwind$??$read_va_arg@PEAD@__crt_stdio_output@@YAPEADAEAPEAD@Z 000000014004d7a8     libucrtd:output.obj
 0002:000117a8       $unwind$??$read_va_arg@PEAUansi_string@?1??type_case_Z@?$output_processor@DV?$string_output_adapter@D@__crt_stdio_output@@V?$format_validation_base@DV?$string_output_adapter@D@__crt_stdio_output@@@2@@__crt_stdio_output@@AEAA_NXZ@@__crt_stdio_output@@YAPEAUansi_string@?1??type_case_Z@?$output_processor@DV?$string_output_adapter@D@__crt_stdio_output@@V?$format_validation_base@DV?$string_output_adapter@D@__crt_stdio_output@@@2@@0@AEAA_NXZ@AEAPEAD@Z 000000014004d7a8     libucrtd:output.obj
 0002:000117a8       $unwind$??$read_va_arg@PEAUansi_string@?1??type_case_Z@?$output_processor@_WV?$string_output_adapter@_W@__crt_stdio_output@@V?$format_validation_base@_WV?$string_output_adapter@_W@__crt_stdio_output@@@2@@__crt_stdio_output@@AEAA_NXZ@@__crt_stdio_output@@YAPEAUansi_string@?1??type_case_Z@?$output_processor@_WV?$string_output_adapter@_W@__crt_stdio_output@@V?$format_validation_base@_WV?$string_output_adapter@_W@__crt_stdio_output@@@2@@0@AEAA_NXZ@AEAPEAD@Z 000000014004d7a8     libucrtd:output.obj
 0002:000117a8       $unwind$??$read_va_arg@PEAX@__crt_stdio_output@@YAPEAXAEAPEAD@Z 000000014004d7a8     libucrtd:output.obj
 0002:000117a8       $unwind$??$read_va_arg@U_CRT_DOUBLE@@@__crt_stdio_output@@YA?AU_CRT_DOUBLE@@AEAPEAD@Z 000000014004d7a8     libucrtd:output.obj
 0002:000117a8       $unwind$??$read_va_arg@_J@__crt_stdio_output@@YA_JAEAPEAD@Z 000000014004d7a8     libucrtd:output.obj
 0002:000117a8       $unwind$??$read_va_arg@_K@__crt_stdio_output@@YA_KAEAPEAD@Z 000000014004d7a8     libucrtd:output.obj
 0002:000117a8       $unwind$??$read_va_arg@_W@__crt_stdio_output@@YA_WAEAPEAD@Z 000000014004d7a8     libucrtd:output.obj
 0002:000117a8       $unwind$?advance_to_next_pass@?$standard_base@DV?$string_output_adapter@D@__crt_stdio_output@@@__crt_stdio_output@@IEAA_NXZ 000000014004d7a8     libucrtd:output.obj
 0002:000117a8       $unwind$?advance_to_next_pass@?$standard_base@_WV?$string_output_adapter@_W@__crt_stdio_output@@@__crt_stdio_output@@IEAA_NXZ 000000014004d7a8     libucrtd:output.obj
 0002:000117a8       $unwind$?valid@__crt_stdio_stream@@QEBA_NXZ 000000014004d7a8     libucrtd:output.obj
 0002:000117a8       $unwind$_handle_nan        000000014004d7a8     libucrtd:libm_error.obj
 0002:000117b0       $unwind$?GetController@@YAPEAUgame_controller_input@@PEAUgame_input@@I@Z 000000014004d7b0     win32_made.obj
 0002:000117b0       $unwind$?siglookup@@YAPEAU__crt_signal_action_t@@HQEAU1@@Z 000000014004d7b0     libucrtd:signal.obj
 0002:000117b0       $unwind$??R<lambda_cfae5a0e6efa98e0d1aa03c4cec8f74e>@@QEBA_ND@Z 000000014004d7b0     libucrtd:argv_wildcards.obj
 0002:000117b0       $unwind$?set_flags@__crt_stdio_stream@@QEBA_NJ@Z 000000014004d7b0     libucrtd:_sftbuf.obj
 0002:000117b0       $unwind$?unset_flags@__crt_stdio_stream@@QEBA_NJ@Z 000000014004d7b0     libucrtd:_sftbuf.obj
 0002:000117b0       $unwind$?has_flag@?$output_processor@DV?$string_output_adapter@D@__crt_stdio_output@@V?$format_validation_base@DV?$string_output_adapter@D@__crt_stdio_output@@@2@@__crt_stdio_output@@AEBA_NI@Z 000000014004d7b0     libucrtd:output.obj
 0002:000117b0       $unwind$?has_flag@?$output_processor@_WV?$string_output_adapter@_W@__crt_stdio_output@@V?$format_validation_base@_WV?$string_output_adapter@_W@__crt_stdio_output@@@2@@__crt_stdio_output@@AEBA_NI@Z 000000014004d7b0     libucrtd:output.obj
 0002:000117b8       $unwind$?Win32GetLastWriteTime@@YA?AU_FILETIME@@PEAD@Z 000000014004d7b8     win32_made.obj
 0002:000117c8       $unwind$?Win32GetWallClock@@YA?AT_LARGE_INTEGER@@XZ 000000014004d7c8     win32_made.obj
 0002:000117c8       $unwind$__scrt_initialize_default_local_stdio_options 000000014004d7c8     LIBCMTD:default_local_stdio_options.obj
 0002:000117c8       $unwind$?invoke_main@@YAHXZ 000000014004d7c8     LIBCMTD:exe_winmain.obj
 0002:000117c8       $unwind$?set_commode@__scrt_file_policy@@SAXXZ 000000014004d7c8     LIBCMTD:exe_winmain.obj
 0002:000117c8       $unwind$__security_init_cookie 000000014004d7c8     LIBCMTD:gs_support.obj
 0002:000117c8       $unwind$_guard_icall_checks_enforced 000000014004d7c8     LIBCMTD:guard_support.obj
 0002:000117c8       $unwind$__scrt_is_managed_app 000000014004d7c8     LIBCMTD:utility_desktop.obj
 0002:000117c8       $unwind$__vcrt_initialize_locks 000000014004d7c8     libvcruntimed:locks.obj
 0002:000117c8       $unwind$__vcrt_uninitialize_locks 000000014004d7c8     libvcruntimed:locks.obj
 0002:000117c8       $unwind$__vcrt_getptd      000000014004d7c8     libvcruntimed:per_thread_data.obj
 0002:000117c8       $unwind$?initialize_multibyte@@YAHXZ 000000014004d7c8     libucrtd:multibyte_initializer.obj
 0002:000117c8       $unwind$initialize_pointers 000000014004d7c8     libucrtd:initialization.obj
 0002:000117c8       $unwind$__acrt_initialize_locks 000000014004d7c8     libucrtd:locks.obj
 0002:000117c8       $unwind$?try_get_ptd_head@@YAPEAU__acrt_ptd@@XZ 000000014004d7c8     libucrtd:per_thread_data.obj
 0002:000117c8       $unwind$__acrt_getptd      000000014004d7c8     libucrtd:per_thread_data.obj
 0002:000117c8       $unwind$__acrt_getptd_head 000000014004d7c8     libucrtd:per_thread_data.obj
 0002:000117c8       $unwind$?should_write_error_to_console@@YA_NXZ 000000014004d7c8     libucrtd:report_runtime_error.obj
 0002:000117c8       $unwind$__acrt_AreFileApisANSI 000000014004d7c8     libucrtd:winapi_thunks.obj
 0002:000117c8       $unwind$__acrt_can_show_message_box 000000014004d7c8     libucrtd:winapi_thunks.obj
 0002:000117c8       $unwind$__pctype_func      000000014004d7c8     libucrtd:ctype.obj
 0002:000117c8       $unwind$__acrt_initialize_multibyte 000000014004d7c8     libucrtd:mbctype.obj
 0002:000117c8       $unwind$__acrt_update_thread_multibyte_data 000000014004d7c8     libucrtd:mbctype.obj
 0002:000117c8       $unwind$__doserrno         000000014004d7c8     libucrtd:errno.obj
 0002:000117c8       $unwind$_errno             000000014004d7c8     libucrtd:errno.obj
 0002:000117c8       $unwind$_invalid_parameter_noinfo 000000014004d7c8     libucrtd:invalid_parameter.obj
 0002:000117c8       $unwind$abort              000000014004d7c8     libucrtd:abort.obj
 0002:000117c8       $unwind$?is_managed_app@@YA_NXZ 000000014004d7c8     libucrtd:exit.obj
 0002:000117c8       $unwind$?should_call_terminate_process@@YA_NXZ 000000014004d7c8     libucrtd:exit.obj
 0002:000117c8       $unwind$__acrt_uninitialize_stdio 000000014004d7c8     libucrtd:_file.obj
 0002:000117c8       $unwind$_clrfp             000000014004d7c8     libucrtd:fpctrl.obj
 0002:000117c8       $unwind$_statfp            000000014004d7c8     libucrtd:fpctrl.obj
 0002:000117c8       $unwind$_clearfp           000000014004d7c8     libucrtd:ieee.obj
 0002:000117c8       $unwind$?get_machine_sse_control@@YA?AW4__acrt_fenv_machine_sse_control@@XZ 000000014004d7c8     libucrtd:_fenvutils.obj
 0002:000117c8       $unwind$?get_machine_sse_status@@YA?AW4__acrt_fenv_machine_sse_status@@XZ 000000014004d7c8     libucrtd:_fenvutils.obj
 0002:000117c8       $unwind$__acrt_fenv_get_control 000000014004d7c8     libucrtd:_fenvutils.obj
 0002:000117c8       $unwind$__acrt_fenv_get_status 000000014004d7c8     libucrtd:_fenvutils.obj
 0002:000117c8       $unwind$__acrt_has_user_matherr 000000014004d7c8     libucrtd:matherr.obj
 0002:000117d0       $unwind$?Win32GetSecondsElapsed@@YAMT_LARGE_INTEGER@@0@Z 000000014004d7d0     win32_made.obj
 0002:000117d0       $unwind$__AdjustPointer    000000014004d7d0     libvcruntimed:ehhelpers.obj
 0002:000117d0       $unwind$??8iterator@HandlerMap@__FrameHandler3@@QEBA_NAEBV012@@Z 000000014004d7d0     libvcruntimed:frame.obj
 0002:000117d0       $unwind$??Miterator@TryBlockMap@__FrameHandler3@@QEBA_NAEBV012@@Z 000000014004d7d0     libvcruntimed:frame.obj
 0002:000117d0       $unwind$?store_first_surrogate@?A0xc60ee810@@YAX_SPEAU_Mbstatet@@@Z 000000014004d7d0     libucrtd:c16rtomb.obj
 0002:000117d0       $unwind$??8__crt_strtox@@YA_NAEBUbig_integer@0@0@Z 000000014004d7d0     libucrtd:cfout.obj
 0002:000117d0       $unwind$?wcsncnt@@YA_KPEB_W_K@Z 000000014004d7d0     libucrtd:wcstombs.obj
 0002:000117d0       $unwind$?initialize@?$dual_state_global@P6AH_K@Z@__crt_state_management@@QEAAXQ6AH_K@Z@Z 000000014004d7d0     libucrtd:new_handler.obj
 0002:000117d0       $unwind$?initialize@?$dual_state_global@PEAU__crt_locale_data@@@__crt_state_management@@QEAAXQEAU__crt_locale_data@@@Z 000000014004d7d0     libucrtd:initialization.obj
 0002:000117d0       $unwind$?initialize@?$dual_state_global@PEAU__crt_multibyte_data@@@__crt_state_management@@QEAAXQEAU__crt_multibyte_data@@@Z 000000014004d7d0     libucrtd:mbctype.obj
 0002:000117d0       $unwind$?initialize@?$dual_state_global@P6AXH@Z@__crt_state_management@@QEAAXQ6AXH@Z@Z 000000014004d7d0     libucrtd:signal.obj
 0002:000117d0       $unwind$__strncnt          000000014004d7d0     libucrtd:strncnt.obj
 0002:000117d0       $unwind$??$last_reached@$0A@@@YA_NQEBX0@Z 000000014004d7d0     libucrtd:strnlen.obj
 0002:000117d0       $unwind$?compare_equals@?$__crt_simd_traits@$0A@E@@SA?AT__m128i@@T2@0@Z 000000014004d7d0     libucrtd:strnlen.obj
 0002:000117d0       $unwind$?compare_equals@?$__crt_simd_traits@$0A@G@@SA?AT__m128i@@T2@0@Z 000000014004d7d0     libucrtd:strnlen.obj
 0002:000117d0       $unwind$?initialize@?$dual_state_global@P6AHPEAU_exception@@@Z@__crt_state_management@@QEAAXQ6AHPEAU_exception@@@Z@Z 000000014004d7d0     libucrtd:matherr.obj
 0002:000117d8       $unwind$__GSHandlerCheckCommon 000000014004d7d8     LIBCMTD:gshandler.obj
 0002:000117d8       $unwind$__ascii_wcsnicmp   000000014004d7d8     libucrtd:wcsnicmp.obj
 0002:000117e0       $unwind$__GSHandlerCheck   000000014004d7e0     LIBCMTD:gshandler.obj
 0002:000117e0       $unwind$?BuildCatchObject@__FrameHandler3@@SAXPEAUEHExceptionRecord@@PEAXPEBU_s_HandlerType@@PEBU_s_CatchableType@@@Z 000000014004d7e0     libvcruntimed:frame.obj
 0002:000117e0       $unwind$?shift_bytes@@YAXQEAD_K0H@Z 000000014004d7e0     libucrtd:cvt.obj
 0002:000117e0       $unwind$??$message_box@$$TAEBQEB_WAEBQEB_WK@?$__crt_char_traits@_W@@SAH$$QEA$$TAEBQEB_W1$$QEAK@Z 000000014004d7e0     libucrtd:crtmbox.obj
 0002:000117e0       $unwind$??$message_box@PEAUHWND__@@AEBQEB_WAEBQEB_WAEBI@?$__crt_char_traits@_W@@SAH$$QEAPEAUHWND__@@AEBQEB_W1AEBI@Z 000000014004d7e0     libucrtd:crtmbox.obj
 0002:000117e0       $unwind$_invoke_watson     000000014004d7e0     libucrtd:invalid_parameter.obj
 0002:000117e0       $unwind$??$tcsncpy_s@AEAPEAD_KAEAPEADAEB_K@?$__crt_char_traits@D@@SAHAEAPEAD$$QEA_K0AEB_K@Z 000000014004d7e0     libucrtd:argv_wildcards.obj
 0002:000117e0       $unwind$??$tcsncpy_s@PEADAEB_KAEBQEBDAEB_K@?$__crt_char_traits@D@@SAH$$QEAPEADAEB_KAEBQEBD1@Z 000000014004d7e0     libucrtd:argv_wildcards.obj
 0002:000117e0       $unwind$??$tcsncpy_s@PEAD_KAEBQEBDAEB_K@?$__crt_char_traits@D@@SAH$$QEAPEAD$$QEA_KAEBQEBDAEB_K@Z 000000014004d7e0     libucrtd:argv_wildcards.obj
 0002:000117e0       $unwind$??0?$output_adapter_data@DV?$string_output_adapter@D@__crt_stdio_output@@@__crt_stdio_output@@IEAA@AEBV?$string_output_adapter@D@1@_KQEBDQEAU__crt_locale_pointers@@QEAD@Z 000000014004d7e0     libucrtd:output.obj
 0002:000117e0       $unwind$??0?$output_adapter_data@_WV?$string_output_adapter@_W@__crt_stdio_output@@@__crt_stdio_output@@IEAA@AEBV?$string_output_adapter@_W@1@_KQEB_WQEAU__crt_locale_pointers@@QEAD@Z 000000014004d7e0     libucrtd:output.obj
 0002:000117e0       $unwind$strncpy_s          000000014004d7e0     libucrtd:strncpy_s.obj
 0002:000117e0       $unwind$wcsncpy_s          000000014004d7e0     libucrtd:wcsncpy_s.obj
 0002:000117e8       $xdatasym                  000000014004d7e8     LIBCMTD:chkstk.obj
 0002:000117f0       $xdatasym                  000000014004d7f0     LIBCMTD:amdsecgs.obj
 0002:000117f4       $unwind$?__scrt_common_main@@YAHXZ 000000014004d7f4     LIBCMTD:exe_winmain.obj
 0002:000117f4       $unwind$?configure_argv@__scrt_narrow_argv_policy@@SAHXZ 000000014004d7f4     LIBCMTD:exe_winmain.obj
 0002:000117f4       $unwind$?initialize_environment@__scrt_narrow_environment_policy@@SAHXZ 000000014004d7f4     LIBCMTD:exe_winmain.obj
 0002:000117f4       $unwind$?post_pgo_initialization@@YAHXZ 000000014004d7f4     LIBCMTD:exe_winmain.obj
 0002:000117f4       $unwind$?pre_c_initialization@@YAHXZ 000000014004d7f4     LIBCMTD:exe_winmain.obj
 0002:000117f4       $unwind$?pre_cpp_initialization@@YAXXZ 000000014004d7f4     LIBCMTD:exe_winmain.obj
 0002:000117f4       $unwind$?set_app_type@__scrt_winmain_policy@@SAXXZ 000000014004d7f4     LIBCMTD:exe_winmain.obj
 0002:000117f4       $unwind$?set_fmode@__scrt_file_policy@@SAXXZ 000000014004d7f4     LIBCMTD:exe_winmain.obj
 0002:000117f4       $unwind$__report_rangecheckfailure 000000014004d7f4     LIBCMTD:gs_report.obj
 0002:000117f4       $unwind$?__scrt_initialize_type_info@@YAXXZ 000000014004d7f4     LIBCMTD:tncleanup.obj
 0002:000117f4       $unwind$__scrt_initialize_mta 000000014004d7f4     LIBCMTD:utility_desktop.obj
 0002:000117f4       $unwind$__scrt_set_unhandled_exception_filter 000000014004d7f4     LIBCMTD:utility_desktop.obj
 0002:000117f4       $unwind$__current_exception 000000014004d7f4     libvcruntimed:ehhelpers.obj
 0002:000117f4       $unwind$__current_exception_context 000000014004d7f4     libvcruntimed:ehhelpers.obj
 0002:000117f4       $unwind$__vcrt_initialize  000000014004d7f4     libvcruntimed:initialization.obj
 0002:000117f4       $unwind$__vcrt_initialize_ptd 000000014004d7f4     libvcruntimed:per_thread_data.obj
 0002:000117f4       $unwind$__vcrt_uninitialize_ptd 000000014004d7f4     libvcruntimed:per_thread_data.obj
 0002:000117f4       $unwind$_GetImageBase      000000014004d7f4     libvcruntimed:risctrnsctrl.obj
 0002:000117f4       $unwind$_GetThrowImageBase 000000014004d7f4     libvcruntimed:risctrnsctrl.obj
 0002:000117f4       $unwind$?try_get_FlsAlloc@@YAP6AKP6AXPEAX@Z@ZXZ 000000014004d7f4     libvcruntimed:winapi_downlevel.obj
 0002:000117f4       $unwind$?try_get_FlsFree@@YAP6AHK@ZXZ 000000014004d7f4     libvcruntimed:winapi_downlevel.obj
 0002:000117f4       $unwind$?try_get_FlsGetValue@@YAP6APEAXK@ZXZ 000000014004d7f4     libvcruntimed:winapi_downlevel.obj
 0002:000117f4       $unwind$?try_get_FlsSetValue@@YAP6AHKPEAX@ZXZ 000000014004d7f4     libvcruntimed:winapi_downlevel.obj
 0002:000117f4       $unwind$?try_get_InitializeCriticalSectionEx@@YAP6AHPEAU_RTL_CRITICAL_SECTION@@KK@ZXZ 000000014004d7f4     libvcruntimed:winapi_downlevel.obj
 0002:000117f4       $unwind$__dcrt_terminate_console_output 000000014004d7f4     libucrtd:initcon.obj
 0002:000117f4       $unwind$??$uninitialize_environment_internal@D@@YAXAEAPEAPEAD@Z 000000014004d7f4     libucrtd:environment_initialization.obj
 0002:000117f4       $unwind$??$uninitialize_environment_internal@_W@@YAXAEAPEAPEA_W@Z 000000014004d7f4     libucrtd:environment_initialization.obj
 0002:000117f4       $unwind$__dcrt_uninitialize_environments_nolock 000000014004d7f4     libucrtd:environment_initialization.obj
 0002:000117f4       $unwind$__acrt_initialize_heap 000000014004d7f4     libucrtd:heap_handle.obj
 0002:000117f4       $unwind$_query_new_mode    000000014004d7f4     libucrtd:new_mode.obj
 0002:000117f4       $unwind$__acrt_initialize  000000014004d7f4     libucrtd:initialization.obj
 0002:000117f4       $unwind$initialize_c       000000014004d7f4     libucrtd:initialization.obj
 0002:000117f4       $unwind$initialize_global_variables 000000014004d7f4     libucrtd:initialization.obj
 0002:000117f4       $unwind$__acrt_getptd_noexit 000000014004d7f4     libucrtd:per_thread_data.obj
 0002:000117f4       $unwind$__acrt_initialize_ptd 000000014004d7f4     libucrtd:per_thread_data.obj
 0002:000117f4       $unwind$__acrt_get_developer_information_policy 000000014004d7f4     libucrtd:win_policies.obj
 0002:000117f4       $unwind$__acrt_get_process_end_policy 000000014004d7f4     libucrtd:win_policies.obj
 0002:000117f4       $unwind$__acrt_get_windowing_model_policy 000000014004d7f4     libucrtd:win_policies.obj
 0002:000117f4       $unwind$?try_get_AppPolicyGetProcessTerminationMethod@@YAP6AJPEAXPEAW4AppPolicyProcessTerminationMethod@@@ZXZ 000000014004d7f4     libucrtd:winapi_thunks.obj
 0002:000117f4       $unwind$?try_get_AppPolicyGetShowDeveloperDiagnostic@@YAP6AJPEAXPEAW4AppPolicyShowDeveloperDiagnostic@@@ZXZ 000000014004d7f4     libucrtd:winapi_thunks.obj
 0002:000117f4       $unwind$?try_get_AppPolicyGetWindowingModel@@YAP6AJPEAXPEAW4AppPolicyWindowingModel@@@ZXZ 000000014004d7f4     libucrtd:winapi_thunks.obj
 0002:000117f4       $unwind$?try_get_AreFileApisANSI@@YAP6AHXZXZ 000000014004d7f4     libucrtd:winapi_thunks.obj
 0002:000117f4       $unwind$?try_get_FlsAlloc@@YAP6AKP6AXPEAX@Z@ZXZ 000000014004d7f4     libucrtd:winapi_thunks.obj
 0002:000117f4       $unwind$?try_get_FlsFree@@YAP6AHK@ZXZ 000000014004d7f4     libucrtd:winapi_thunks.obj
 0002:000117f4       $unwind$?try_get_FlsGetValue@@YAP6APEAXK@ZXZ 000000014004d7f4     libucrtd:winapi_thunks.obj
 0002:000117f4       $unwind$?try_get_FlsSetValue@@YAP6AHKPEAX@ZXZ 000000014004d7f4     libucrtd:winapi_thunks.obj
 0002:000117f4       $unwind$?try_get_GetActiveWindow@@YAP6APEAUHWND__@@XZXZ 000000014004d7f4     libucrtd:winapi_thunks.obj
 0002:000117f4       $unwind$?try_get_GetLastActivePopup@@YAP6APEAUHWND__@@PEAU1@@ZXZ 000000014004d7f4     libucrtd:winapi_thunks.obj
 0002:000117f4       $unwind$?try_get_GetProcessWindowStation@@YAP6APEAUHWINSTA__@@XZXZ 000000014004d7f4     libucrtd:winapi_thunks.obj
 0002:000117f4       $unwind$?try_get_GetUserObjectInformationW@@YAP6AHPEAXH0KPEAK@ZXZ 000000014004d7f4     libucrtd:winapi_thunks.obj
 0002:000117f4       $unwind$?try_get_InitializeCriticalSectionEx@@YAP6AHPEAU_RTL_CRITICAL_SECTION@@KK@ZXZ 000000014004d7f4     libucrtd:winapi_thunks.obj
 0002:000117f4       $unwind$?try_get_LCMapStringEx@@YAP6AHPEB_WK0HPEA_WHPEAU_nlsversioninfo@@PEAX_J@ZXZ 000000014004d7f4     libucrtd:winapi_thunks.obj
 0002:000117f4       $unwind$?try_get_LocaleNameToLCID@@YAP6AKPEB_WK@ZXZ 000000014004d7f4     libucrtd:winapi_thunks.obj
 0002:000117f4       $unwind$?try_get_MessageBoxA@@YAP6AHPEAUHWND__@@PEBD1I@ZXZ 000000014004d7f4     libucrtd:winapi_thunks.obj
 0002:000117f4       $unwind$?try_get_MessageBoxW@@YAP6AHPEAUHWND__@@PEB_W1I@ZXZ 000000014004d7f4     libucrtd:winapi_thunks.obj
 0002:000117f4       $unwind$__fpecode          000000014004d7f4     libucrtd:signal.obj
 0002:000117f4       $unwind$__acrt_initialize_command_line 000000014004d7f4     libucrtd:argv_data.obj
 0002:000117f4       $unwind$_get_narrow_winmain_command_line 000000014004d7f4     libucrtd:argv_winmain.obj
 0002:000117f4       $unwind$_c_exit            000000014004d7f4     libucrtd:exit.obj
 0002:000117f4       $unwind$_cexit             000000014004d7f4     libucrtd:exit.obj
 0002:000117f4       $unwind$_flushall          000000014004d7f4     libucrtd:fflush.obj
 0002:000117f4       $unwind$fegetround         000000014004d7f4     libucrtd:fegetround.obj
 0002:000117fc       $unwind$?__scrt_common_main_seh@@YAHXZ 000000014004d7fc     LIBCMTD:exe_winmain.obj
 0002:0001181c       $unwind$?filt$0@?0??__scrt_common_main_seh@@YAHXZ@4HA 000000014004d81c     LIBCMTD:exe_winmain.obj
 0002:0001181c       $unwind$_IsNonwritableInCurrentImage$filt$0 000000014004d81c     LIBCMTD:pesect.obj
 0002:0001181c       $unwind$__scrt_is_nonwritable_in_current_image$filt$0 000000014004d81c     LIBCMTD:utility.obj
 0002:0001181c       $unwind$__DestructExceptionObject$filt$0 000000014004d81c     libvcruntimed:ehhelpers.obj
 0002:0001181c       $unwind$?filt$0@?0???$BuildCatchObjectHelperInternal@V__FrameHandler3@@@@YAHPEAUEHExceptionRecord@@PEAXPEBU_s_HandlerType@@PEBU_s_CatchableType@@@Z@4HA 000000014004d81c     libvcruntimed:frame.obj
 0002:0001181c       $unwind$?filt$0@?0???$BuildCatchObjectInternal@V__FrameHandler3@@@@YAXPEAUEHExceptionRecord@@PEAXPEBU_s_HandlerType@@PEBU_s_CatchableType@@@Z@4HA 000000014004d81c     libvcruntimed:frame.obj
 0002:0001181c       $unwind$?filt$0@?0??CxxCallCatchBlock@__FrameHandler3@@SAPEAXPEAU_EXCEPTION_RECORD@@@Z@4HA 000000014004d81c     libvcruntimed:frame.obj
 0002:0001181c       $unwind$?filt$0@?0??FrameUnwindToState@__FrameHandler3@@SAXPEA_KPEAU_xDISPATCHER_CONTEXT@@PEBU_s_FuncInfo@@H@Z@4HA 000000014004d81c     libvcruntimed:frame.obj
 0002:0001181c       $unwind$?fin$1@?0??CxxCallCatchBlock@__FrameHandler3@@SAPEAXPEAU_EXCEPTION_RECORD@@@Z@4HA 000000014004d81c     libvcruntimed:frame.obj
 0002:0001181c       $unwind$?fin$1@?0??FrameUnwindToState@__FrameHandler3@@SAXPEA_KPEAU_xDISPATCHER_CONTEXT@@PEBU_s_FuncInfo@@H@Z@4HA 000000014004d81c     libvcruntimed:frame.obj
 0002:0001181c       $unwind$?dtor$0@?0??fp_format_a@@YAHQEBNPEAD_KQEAD2H_NIQEAU__crt_locale_pointers@@W4__acrt_rounding_mode@@@Z@4HA 000000014004d81c     libucrtd:cvt.obj
 0002:0001181c       $unwind$?dtor$0@?0??_wcstombs_l_helper@@YA_KPEADPEB_W_KPEAU__crt_locale_pointers@@@Z@4HA 000000014004d81c     libucrtd:wcstombs.obj
 0002:0001181c       $unwind$?filt$0@?0??is_bad_read_pointer@@YA_NQEBX_K@Z@4HA 000000014004d81c     libucrtd:debug_heap.obj
 0002:0001181c       $unwind$_free_dbg$fin$0    000000014004d81c     libucrtd:debug_heap.obj
 0002:0001181c       $unwind$_query_new_handler$fin$0 000000014004d81c     libucrtd:new_handler.obj
 0002:0001181c       $unwind$?fin$0@?0???$?RV<lambda_0ae27a3a962d80f24befdcbee591983d>@@AEAV<lambda_8d0ee55de4b1038c4002e0adecdf1839>@@V<lambda_dc504788e8f1664fe9b84e20bfb512f2>@@@?$__crt_seh_guarded_call@X@@QEAAX$$QEAV<lambda_0ae27a3a962d80f24befdcbee591983d>@@AEAV<lambda_8d0ee55de4b1038c4002e0adecdf1839>@@$$QEAV<lambda_dc504788e8f1664fe9b84e20bfb512f2>@@@Z@4HA 000000014004d81c     libucrtd:per_thread_data.obj
 0002:0001181c       $unwind$?fin$0@?0???$?RV<lambda_2d41944a1d46af3157314b8a01080d33>@@AEAV<lambda_8f455de75cd7d7f24b4096f044d8b9e6>@@V<lambda_aa500f224e6afead328df44964fe2772>@@@?$__crt_seh_guarded_call@X@@QEAAX$$QEAV<lambda_2d41944a1d46af3157314b8a01080d33>@@AEAV<lambda_8f455de75cd7d7f24b4096f044d8b9e6>@@$$QEAV<lambda_aa500f224e6afead328df44964fe2772>@@@Z@4HA 000000014004d81c     libucrtd:per_thread_data.obj
 0002:0001181c       $unwind$?fin$0@?0???$?RV<lambda_74a0ef281e44d15e1136f792f539efb3>@@AEAV<lambda_e157831efee4ea0afb0a2ace5dd5fd0d>@@V<lambda_04ddeca75b7c13fd67716e8dfcef87ee>@@@?$__crt_seh_guarded_call@X@@QEAAX$$QEAV<lambda_74a0ef281e44d15e1136f792f539efb3>@@AEAV<lambda_e157831efee4ea0afb0a2ace5dd5fd0d>@@$$QEAV<lambda_04ddeca75b7c13fd67716e8dfcef87ee>@@@Z@4HA 000000014004d81c     libucrtd:per_thread_data.obj
 0002:0001181c       $unwind$?fin$0@?0???$?RV<lambda_aa87e3671a710a21b5dc78c0bdf72e11>@@AEAV<lambda_92619d2358a28f41a33ba319515a20b9>@@V<lambda_6992ecaafeb10aed2b74cb1fae11a551>@@@?$__crt_seh_guarded_call@X@@QEAAX$$QEAV<lambda_aa87e3671a710a21b5dc78c0bdf72e11>@@AEAV<lambda_92619d2358a28f41a33ba319515a20b9>@@$$QEAV<lambda_6992ecaafeb10aed2b74cb1fae11a551>@@@Z@4HA 000000014004d81c     libucrtd:per_thread_data.obj
 0002:0001181c       $unwind$__acrt_update_thread_locale_data$fin$0 000000014004d81c     libucrtd:locale_refcounting.obj
 0002:0001181c       $unwind$?fin$0@?0???$?RV<lambda_410d79af7f07d98d83a3f525b3859a53>@@AEAV<lambda_3e16ef9562a7dcce91392c22ab16ea36>@@V<lambda_38119f0e861e05405d8a144b9b982f0a>@@@?$__crt_seh_guarded_call@X@@QEAAX$$QEAV<lambda_410d79af7f07d98d83a3f525b3859a53>@@AEAV<lambda_3e16ef9562a7dcce91392c22ab16ea36>@@$$QEAV<lambda_38119f0e861e05405d8a144b9b982f0a>@@@Z@4HA 000000014004d81c     libucrtd:wsetlocale.obj
 0002:0001181c       $unwind$?fin$0@?0???$?RV<lambda_53fc7fc888e23d815d7080162c0aeeb2>@@AEAV<lambda_4e7105787b7b0e0227fbf2b2d883fa65>@@V<lambda_8ddc48ad9d26c778cb15812d1d88fc8a>@@@?$__crt_seh_guarded_call@H@@QEAAH$$QEAV<lambda_53fc7fc888e23d815d7080162c0aeeb2>@@AEAV<lambda_4e7105787b7b0e0227fbf2b2d883fa65>@@$$QEAV<lambda_8ddc48ad9d26c778cb15812d1d88fc8a>@@@Z@4HA 000000014004d81c     libucrtd:close.obj
 0002:0001181c       $unwind$?fin$0@?0???$?RV<lambda_4e3dbe6921bc0b5a1a6bc6573fdc859e>@@AEAV<lambda_5533cddd4bda0037814beee657757329>@@V<lambda_47cffbaa968af5c721c38a4a6f8da44d>@@@?$__crt_seh_guarded_call@H@@QEAAH$$QEAV<lambda_4e3dbe6921bc0b5a1a6bc6573fdc859e>@@AEAV<lambda_5533cddd4bda0037814beee657757329>@@$$QEAV<lambda_47cffbaa968af5c721c38a4a6f8da44d>@@@Z@4HA 000000014004d81c     libucrtd:commit.obj
 0002:0001181c       $unwind$__acrt_initialize_lowio$fin$0 000000014004d81c     libucrtd:ioinit.obj
 0002:0001181c       $unwind$?fin$0@?0???$?RV<lambda_efa02eb69bf647d2f7ff0dd6f1103f72>@@AEAV<lambda_bd5a608237428601b7e45fbdc72b1ae8>@@V<lambda_728235dc0fc2b1f82d1fa5b3e7102d8f>@@@?$__crt_seh_guarded_call@X@@QEAAX$$QEAV<lambda_efa02eb69bf647d2f7ff0dd6f1103f72>@@AEAV<lambda_bd5a608237428601b7e45fbdc72b1ae8>@@$$QEAV<lambda_728235dc0fc2b1f82d1fa5b3e7102d8f>@@@Z@4HA 000000014004d81c     libucrtd:mbctype.obj
 0002:0001181c       $unwind$?fin$0@?0??update_thread_multibyte_data_internal@@YAPEAU__crt_multibyte_data@@QEAU__acrt_ptd@@QEAPEAU1@@Z@4HA 000000014004d81c     libucrtd:mbctype.obj
 0002:0001181c       $unwind$?fin$0@?0???$?RV<lambda_450d765d439847d4c735a33c368b5fc0>@@AEAV<lambda_44731a7d0e6d81c3e6aa82d741081786>@@V<lambda_601a2a7da3b7a96e9554ac7215c4b07c>@@@?$__crt_seh_guarded_call@P6AXH@Z@@QEAAP6AXH@Z$$QEAV<lambda_450d765d439847d4c735a33c368b5fc0>@@AEAV<lambda_44731a7d0e6d81c3e6aa82d741081786>@@$$QEAV<lambda_601a2a7da3b7a96e9554ac7215c4b07c>@@@Z@4HA 000000014004d81c     libucrtd:signal.obj
 0002:0001181c       $unwind$terminate$filt$0   000000014004d81c     libucrtd:terminate.obj
 0002:0001181c       $unwind$?filt$0@?0???R<lambda_6e4b09c48022b2350581041d5f6b0c4c>@@QEBA@XZ@4HA 000000014004d81c     libucrtd:exit.obj
 0002:0001181c       $unwind$?fin$0@?0???$?RV<lambda_d80eeec6fff315bfe5c115232f3240e3>@@AEAV<lambda_6e4b09c48022b2350581041d5f6b0c4c>@@V<lambda_2358e3775559c9db80273638284d5e45>@@@?$__crt_seh_guarded_call@X@@QEAAX$$QEAV<lambda_d80eeec6fff315bfe5c115232f3240e3>@@AEAV<lambda_6e4b09c48022b2350581041d5f6b0c4c>@@$$QEAV<lambda_2358e3775559c9db80273638284d5e45>@@@Z@4HA 000000014004d81c     libucrtd:exit.obj
 0002:0001181c       $unwind$?dtor$0@?0???R<lambda_d121dba8a4adeaf3a9819e48611155df>@@QEBAHXZ@4HA 000000014004d81c     libucrtd:onexit.obj
 0002:0001181c       $unwind$?fin$0@?0???$?RV<lambda_6a47f4c8fd0152770a780fc1d70204eb>@@AEAV<lambda_d121dba8a4adeaf3a9819e48611155df>@@V<lambda_6aaa2265f5b6a89667e7d7630012e97a>@@@?$__crt_seh_guarded_call@H@@QEAAH$$QEAV<lambda_6a47f4c8fd0152770a780fc1d70204eb>@@AEAV<lambda_d121dba8a4adeaf3a9819e48611155df>@@$$QEAV<lambda_6aaa2265f5b6a89667e7d7630012e97a>@@@Z@4HA 000000014004d81c     libucrtd:onexit.obj
 0002:0001181c       $unwind$?fin$0@?0???$?RV<lambda_dce957679fd779aa27c4ca5c39e09098>@@AEAV<lambda_3b83eb014488ad801d84acef5aaf14d3>@@V<lambda_00e911965883f7966597d4c465c83ebc>@@@?$__crt_seh_guarded_call@H@@QEAAH$$QEAV<lambda_dce957679fd779aa27c4ca5c39e09098>@@AEAV<lambda_3b83eb014488ad801d84acef5aaf14d3>@@$$QEAV<lambda_00e911965883f7966597d4c465c83ebc>@@@Z@4HA 000000014004d81c     libucrtd:onexit.obj
 0002:0001181c       $unwind$_fcloseall$fin$0   000000014004d81c     libucrtd:closeall.obj
 0002:0001181c       $unwind$?fin$0@?0???$?RV<lambda_842d9ff0dc9ef11c61343bbaebe7f885>@@AEAV<lambda_c5860995281e5c4ce005b3de8f5874ee>@@V<lambda_d90129c13df834fdcbf8d2b88dafcf2d>@@@?$__crt_seh_guarded_call@X@@QEAAX$$QEAV<lambda_842d9ff0dc9ef11c61343bbaebe7f885>@@AEAV<lambda_c5860995281e5c4ce005b3de8f5874ee>@@$$QEAV<lambda_d90129c13df834fdcbf8d2b88dafcf2d>@@@Z@4HA 000000014004d81c     libucrtd:fflush.obj
 0002:0001181c       $unwind$?fin$0@?0???$?RV<lambda_886d6c58226a84441f68b9f2b8217b83>@@AEAV<lambda_ab61a845afdef5b7c387490eaf3616ee>@@V<lambda_f7f22ab5edc0698d5f6905b0d3f44752>@@@?$__crt_seh_guarded_call@X@@QEAAX$$QEAV<lambda_886d6c58226a84441f68b9f2b8217b83>@@AEAV<lambda_ab61a845afdef5b7c387490eaf3616ee>@@$$QEAV<lambda_f7f22ab5edc0698d5f6905b0d3f44752>@@@Z@4HA 000000014004d81c     libucrtd:fflush.obj
 0002:0001181c       $unwind$?dtor$0@?0??shortsort@@YAXPEAD0_KP6AHPEBX2@Z@Z@4HA 000000014004d81c     libucrtd:qsort.obj
 0002:0001181c       $unwind$_ctrlfp$filt$0     000000014004d81c     libucrtd:fpctrl.obj
 0002:00011824       $unwind$??3@YAXPEAX@Z      000000014004d824     LIBCMTD:delete_scalar.obj
 0002:00011824       $unwind$WinMainCRTStartup  000000014004d824     LIBCMTD:exe_winmain.obj
 0002:00011824       $unwind$__raise_securityfailure 000000014004d824     LIBCMTD:gs_report.obj
 0002:00011824       $unwind$ReadPointerNoFence 000000014004d824     LIBCMTD:guard_support.obj
 0002:00011824       $unwind$_ValidateImageBase 000000014004d824     LIBCMTD:pesect.obj
 0002:00011824       $unwind$?is_potentially_valid_image_base@@YA_NQEAX@Z 000000014004d824     LIBCMTD:utility.obj
 0002:00011824       $unwind$??0bad_exception@std@@QEAA@XZ 000000014004d824     libvcruntimed:frame.obj
 0002:00011824       $unwind$??1bad_exception@std@@UEAA@XZ 000000014004d824     libvcruntimed:frame.obj
 0002:00011824       $unwind$??1exception@std@@UEAA@XZ 000000014004d824     libvcruntimed:frame.obj
 0002:00011824       $unwind$?__RethrowException@@YAXPEAUEHExceptionRecord@@@Z 000000014004d824     libvcruntimed:frame.obj
 0002:00011824       $unwind$__vcrt_EncodePointer 000000014004d824     libvcruntimed:frame.obj
 0002:00011824       $unwind$??0scoped_get_last_error_reset@?A0x26810693@@QEAA@XZ 000000014004d824     libvcruntimed:per_thread_data.obj
 0002:00011824       $unwind$??1?$__crt_unique_heap_ptr@U__vcrt_ptd@@U__crt_internal_free_policy@@@@QEAA@XZ 000000014004d824     libvcruntimed:per_thread_data.obj
 0002:00011824       $unwind$??1scoped_get_last_error_reset@?A0x26810693@@QEAA@XZ 000000014004d824     libvcruntimed:per_thread_data.obj
 0002:00011824       $unwind$??B?$__crt_unique_heap_ptr@U__vcrt_ptd@@U__crt_internal_free_policy@@@@QEBA_NXZ 000000014004d824     libvcruntimed:per_thread_data.obj
 0002:00011824       $unwind$?store_and_initialize_ptd@@YA_NQEAU__vcrt_ptd@@@Z 000000014004d824     libvcruntimed:per_thread_data.obj
 0002:00011824       $unwind$__vcrt_freefls     000000014004d824     libvcruntimed:per_thread_data.obj
 0002:00011824       $unwind$_SetImageBase      000000014004d824     libvcruntimed:risctrnsctrl.obj
 0002:00011824       $unwind$_SetThrowImageBase 000000014004d824     libvcruntimed:risctrnsctrl.obj
 0002:00011824       $unwind$??1?$__crt_unique_heap_ptr@DU__crt_public_free_policy@@@@QEAA@XZ 000000014004d824     libvcruntimed:std_exception.obj
 0002:00011824       $unwind$??B?$__crt_unique_heap_ptr@DU__crt_public_free_policy@@@@QEBA_NXZ 000000014004d824     libvcruntimed:std_exception.obj
 0002:00011824       $unwind$__std_exception_destroy 000000014004d824     libvcruntimed:std_exception.obj
 0002:00011824       $unwind$??1?$__crt_unique_heap_ptr@DU__crt_internal_free_policy@@@@QEAA@XZ 000000014004d824     libvcruntimed:std_type_info.obj
 0002:00011824       $unwind$??B?$__crt_unique_heap_ptr@DU__crt_internal_free_policy@@@@QEBA_NXZ 000000014004d824     libvcruntimed:std_type_info.obj
 0002:00011824       $unwind$??$__crt_interlocked_read_pointer@UHINSTANCE__@@@@YAPEAUHINSTANCE__@@PEDSEAU0@@Z 000000014004d824     libvcruntimed:winapi_downlevel.obj
 0002:00011824       $unwind$??$__crt_interlocked_read_pointer@X@@YAPEAXPEDSEAX@Z 000000014004d824     libvcruntimed:winapi_downlevel.obj
 0002:00011824       $unwind$_putwch_nolock     000000014004d824     libucrtd:putwch.obj
 0002:00011824       $unwind$??0big_integer@__crt_strtox@@QEAA@XZ 000000014004d824     libucrtd:cfout.obj
 0002:00011824       $unwind$??0scoped_fp_state_reset@?A0x71ca7cfb@@QEAA@XZ 000000014004d824     libucrtd:cfout.obj
 0002:00011824       $unwind$??1scoped_fp_state_reset@?A0x71ca7cfb@@QEAA@XZ 000000014004d824     libucrtd:cfout.obj
 0002:00011824       $unwind$??1_LocaleUpdate@@QEAA@XZ 000000014004d824     libucrtd:debug_heap.obj
 0002:00011824       $unwind$_CrtIsValidHeapPointer 000000014004d824     libucrtd:debug_heap.obj
 0002:00011824       $unwind$malloc             000000014004d824     libucrtd:malloc.obj
 0002:00011824       $unwind$??$__crt_fast_decode_pointer@P6AH_K@Z@@YAP6AH_K@ZQ6AH0@Z@Z 000000014004d824     libucrtd:new_handler.obj
 0002:00011824       $unwind$?value@?$dual_state_global@P6AH_K@Z@__crt_state_management@@QEAAAEAP6AH_K@ZXZ 000000014004d824     libucrtd:new_handler.obj
 0002:00011824       $unwind$__acrt_initialize_new_handler 000000014004d824     libucrtd:new_handler.obj
 0002:00011824       $unwind$?value@?$dual_state_global@J@__crt_state_management@@QEAAAEAJXZ 000000014004d824     libucrtd:new_mode.obj
 0002:00011824       $unwind$?_deallocate@?$__crt_win32_buffer@DU__crt_win32_buffer_no_resizing@@@@AEAAXXZ 000000014004d824     libucrtd:getmodulefilenamea.obj
 0002:00011824       $unwind$?set_to_nullptr@?$__crt_win32_buffer@DU__crt_win32_buffer_no_resizing@@@@QEAAXXZ 000000014004d824     libucrtd:getmodulefilenamea.obj
 0002:00011824       $unwind$??$?BX@__crt_fast_encoded_nullptr_t@@QEBAPEAXXZ 000000014004d824     libucrtd:initialization.obj
 0002:00011824       $unwind$??$__crt_fast_encode_pointer@PEAX@@YAPEAXQEAX@Z 000000014004d824     libucrtd:initialization.obj
 0002:00011824       $unwind$??0__crt_scoped_get_last_error_reset@@QEAA@XZ 000000014004d824     libucrtd:per_thread_data.obj
 0002:00011824       $unwind$??1?$__crt_unique_heap_ptr@U__acrt_ptd@@U__crt_internal_free_policy@@@@QEAA@XZ 000000014004d824     libucrtd:per_thread_data.obj
 0002:00011824       $unwind$??1__crt_scoped_get_last_error_reset@@QEAA@XZ 000000014004d824     libucrtd:per_thread_data.obj
 0002:00011824       $unwind$??B?$__crt_unique_heap_ptr@U__acrt_ptd@@U__crt_internal_free_policy@@@@QEBA_NXZ 000000014004d824     libucrtd:per_thread_data.obj
 0002:00011824       $unwind$??R<lambda_04ddeca75b7c13fd67716e8dfcef87ee>@@QEBAXXZ 000000014004d824     libucrtd:per_thread_data.obj
 0002:00011824       $unwind$??R<lambda_0ae27a3a962d80f24befdcbee591983d>@@QEBAXXZ 000000014004d824     libucrtd:per_thread_data.obj
 0002:00011824       $unwind$??R<lambda_2d41944a1d46af3157314b8a01080d33>@@QEBAXXZ 000000014004d824     libucrtd:per_thread_data.obj
 0002:00011824       $unwind$??R<lambda_6992ecaafeb10aed2b74cb1fae11a551>@@QEBAXXZ 000000014004d824     libucrtd:per_thread_data.obj
 0002:00011824       $unwind$??R<lambda_74a0ef281e44d15e1136f792f539efb3>@@QEBAXXZ 000000014004d824     libucrtd:per_thread_data.obj
 0002:00011824       $unwind$??R<lambda_8f455de75cd7d7f24b4096f044d8b9e6>@@QEBAXXZ 000000014004d824     libucrtd:per_thread_data.obj
 0002:00011824       $unwind$??R<lambda_92619d2358a28f41a33ba319515a20b9>@@QEBAXXZ 000000014004d824     libucrtd:per_thread_data.obj
 0002:00011824       $unwind$??R<lambda_aa500f224e6afead328df44964fe2772>@@QEBAXXZ 000000014004d824     libucrtd:per_thread_data.obj
 0002:00011824       $unwind$??R<lambda_aa87e3671a710a21b5dc78c0bdf72e11>@@QEBAXXZ 000000014004d824     libucrtd:per_thread_data.obj
 0002:00011824       $unwind$??R<lambda_dc504788e8f1664fe9b84e20bfb512f2>@@QEBAXXZ 000000014004d824     libucrtd:per_thread_data.obj
 0002:00011824       $unwind$?destroy_fls@@YAXPEAX@Z 000000014004d824     libucrtd:per_thread_data.obj
 0002:00011824       $unwind$?appmodel_get_policy@developer_information_policy_properties@?1??__acrt_get_developer_information_policy@@YA?AW4developer_information_policy@@XZ@SAJPEAW4AppPolicyShowDeveloperDiagnostic@@@Z 000000014004d824     libucrtd:win_policies.obj
 0002:00011824       $unwind$?appmodel_get_policy@process_end_policy_properties@?1??__acrt_get_process_end_policy@@YA?AW4process_end_policy@@XZ@SAJPEAW4AppPolicyProcessTerminationMethod@@@Z 000000014004d824     libucrtd:win_policies.obj
 0002:00011824       $unwind$?appmodel_get_policy@windowing_model_policy_properties@?1??__acrt_get_windowing_model_policy@@YA?AW4windowing_model_policy@@XZ@SAJPEAW4AppPolicyWindowingModel@@@Z 000000014004d824     libucrtd:win_policies.obj
 0002:00011824       $unwind$??$__crt_fast_decode_pointer@PEAX@@YAPEAXQEAX@Z 000000014004d824     libucrtd:winapi_thunks.obj
 0002:00011824       $unwind$??1?$__crt_scoped_stack_ptr@_W@@QEAA@XZ 000000014004d824     libucrtd:getstringtypea.obj
 0002:00011824       $unwind$__acrt_locale_free_monetary 000000014004d824     libucrtd:initmon.obj
 0002:00011824       $unwind$__acrt_locale_free_numeric 000000014004d824     libucrtd:initnum.obj
 0002:00011824       $unwind$??$free_crt_array@D$01@@YAXAEAY01PEAD@Z 000000014004d824     libucrtd:inittime.obj
 0002:00011824       $unwind$??$free_crt_array@D$06@@YAXAEAY06PEAD@Z 000000014004d824     libucrtd:inittime.obj
 0002:00011824       $unwind$??$free_crt_array@D$0M@@@YAXAEAY0M@PEAD@Z 000000014004d824     libucrtd:inittime.obj
 0002:00011824       $unwind$??$free_crt_array@_W$01@@YAXAEAY01PEA_W@Z 000000014004d824     libucrtd:inittime.obj
 0002:00011824       $unwind$??$free_crt_array@_W$06@@YAXAEAY06PEA_W@Z 000000014004d824     libucrtd:inittime.obj
 0002:00011824       $unwind$??$free_crt_array@_W$0M@@@YAXAEAY0M@PEA_W@Z 000000014004d824     libucrtd:inittime.obj
 0002:00011824       $unwind$__acrt_locale_free_time 000000014004d824     libucrtd:inittime.obj
 0002:00011824       $unwind$__acrt_locale_free_lc_time_if_unreferenced 000000014004d824     libucrtd:locale_refcounting.obj
 0002:00011824       $unwind$??1?$__crt_unique_heap_ptr@U__crt_multibyte_data@@U__crt_internal_free_policy@@@@QEAA@XZ 000000014004d824     libucrtd:wsetlocale.obj
 0002:00011824       $unwind$??B?$__crt_unique_heap_ptr@U__crt_multibyte_data@@U__crt_internal_free_policy@@@@QEBA_NXZ 000000014004d824     libucrtd:wsetlocale.obj
 0002:00011824       $unwind$??R<lambda_38119f0e861e05405d8a144b9b982f0a>@@QEBAXXZ 000000014004d824     libucrtd:wsetlocale.obj
 0002:00011824       $unwind$??R<lambda_410d79af7f07d98d83a3f525b3859a53>@@QEBAXXZ 000000014004d824     libucrtd:wsetlocale.obj
 0002:00011824       $unwind$?value@?$dual_state_global@PEAU__crt_locale_data@@@__crt_state_management@@QEAAAEAPEAU__crt_locale_data@@XZ 000000014004d824     libucrtd:wsetlocale.obj
 0002:00011824       $unwind$??R<lambda_53fc7fc888e23d815d7080162c0aeeb2>@@QEBAXXZ 000000014004d824     libucrtd:close.obj
 0002:00011824       $unwind$??R<lambda_8ddc48ad9d26c778cb15812d1d88fc8a>@@QEBAXXZ 000000014004d824     libucrtd:close.obj
 0002:00011824       $unwind$??R<lambda_47cffbaa968af5c721c38a4a6f8da44d>@@QEBAXXZ 000000014004d824     libucrtd:commit.obj
 0002:00011824       $unwind$??R<lambda_4e3dbe6921bc0b5a1a6bc6573fdc859e>@@QEBAXXZ 000000014004d824     libucrtd:commit.obj
 0002:00011824       $unwind$??1?$__crt_unique_heap_ptr@U__crt_lowio_handle_data@@U__crt_internal_free_policy@@@@QEAA@XZ 000000014004d824     libucrtd:osfinfo.obj
 0002:00011824       $unwind$??B?$__crt_unique_heap_ptr@U__crt_lowio_handle_data@@U__crt_internal_free_policy@@@@QEBA_NXZ 000000014004d824     libucrtd:osfinfo.obj
 0002:00011824       $unwind$?value@?$dual_state_global@H@__crt_state_management@@QEAAAEAHXZ 000000014004d824     libucrtd:setmode.obj
 0002:00011824       $unwind$??R<lambda_728235dc0fc2b1f82d1fa5b3e7102d8f>@@QEBAXXZ 000000014004d824     libucrtd:mbctype.obj
 0002:00011824       $unwind$??R<lambda_efa02eb69bf647d2f7ff0dd6f1103f72>@@QEBAXXZ 000000014004d824     libucrtd:mbctype.obj
 0002:00011824       $unwind$?value@?$dual_state_global@PEAE@__crt_state_management@@QEAAAEAPEAEXZ 000000014004d824     libucrtd:mbctype.obj
 0002:00011824       $unwind$?value@?$dual_state_global@PEAU__crt_multibyte_data@@@__crt_state_management@@QEAAAEAPEAU__crt_multibyte_data@@XZ 000000014004d824     libucrtd:mbctype.obj
 0002:00011824       $unwind$??$output_debug_string@AEBQEB_W@?$__crt_char_traits@_W@@SAXAEBQEB_W@Z 000000014004d824     libucrtd:crtmbox.obj
 0002:00011824       $unwind$??$tcslen@AEAY0BAF@D@?$__crt_char_traits@D@@SA_KAEAY0BAF@D@Z 000000014004d824     libucrtd:dbgrpt.obj
 0002:00011824       $unwind$??$tcslen@AEAY0BAF@_W@?$__crt_char_traits@_W@@SA_KAEAY0BAF@_W@Z 000000014004d824     libucrtd:dbgrpt.obj
 0002:00011824       $unwind$??$tcslen@AEBQEBD@?$__crt_char_traits@D@@SA_KAEBQEBD@Z 000000014004d824     libucrtd:dbgrpt.obj
 0002:00011824       $unwind$??$tcslen@AEBQEB_W@?$__crt_char_traits@_W@@SA_KAEBQEB_W@Z 000000014004d824     libucrtd:dbgrpt.obj
 0002:00011824       $unwind$??$__crt_fast_decode_pointer@P6AXPEB_W00I_K@Z@@YAP6AXPEB_W00I_K@ZQ6AX000I1@Z@Z 000000014004d824     libucrtd:invalid_parameter.obj
 0002:00011824       $unwind$?value@?$dual_state_global@P6AXPEB_W00I_K@Z@__crt_state_management@@QEAAAEAP6AXPEB_W00I_K@ZXZ 000000014004d824     libucrtd:invalid_parameter.obj
 0002:00011824       $unwind$??$?B$$A6AXH@Z@__crt_fast_encoded_nullptr_t@@QEBAP6AXH@ZXZ 000000014004d824     libucrtd:signal.obj
 0002:00011824       $unwind$??$__crt_fast_decode_pointer@P6AXH@Z@@YAP6AXH@ZQ6AXH@Z@Z 000000014004d824     libucrtd:signal.obj
 0002:00011824       $unwind$??$__crt_fast_encode_pointer@P6AXH@Z@@YAP6AXH@ZQ6AXH@Z@Z 000000014004d824     libucrtd:signal.obj
 0002:00011824       $unwind$??R<lambda_44731a7d0e6d81c3e6aa82d741081786>@@QEBAP6AXH@ZXZ 000000014004d824     libucrtd:signal.obj
 0002:00011824       $unwind$??R<lambda_450d765d439847d4c735a33c368b5fc0>@@QEBAXXZ 000000014004d824     libucrtd:signal.obj
 0002:00011824       $unwind$??R<lambda_601a2a7da3b7a96e9554ac7215c4b07c>@@QEBAXXZ 000000014004d824     libucrtd:signal.obj
 0002:00011824       $unwind$?value@?$dual_state_global@P6AXH@Z@__crt_state_management@@QEAAAEAP6AXH@ZXZ 000000014004d824     libucrtd:signal.obj
 0002:00011824       $unwind$__acrt_initialize_signal_handlers 000000014004d824     libucrtd:signal.obj
 0002:00011824       $unwind$??$set_program_name@PEAD@?$__crt_char_traits@D@@SAX$$QEAPEAD@Z 000000014004d824     libucrtd:argv_parsing.obj
 0002:00011824       $unwind$??1?$__crt_unique_heap_ptr@EU__crt_internal_free_policy@@@@QEAA@XZ 000000014004d824     libucrtd:argv_parsing.obj
 0002:00011824       $unwind$??1?$__crt_unique_heap_ptr@PEADU__crt_internal_free_policy@@@@QEAA@XZ 000000014004d824     libucrtd:argv_parsing.obj
 0002:00011824       $unwind$??B?$__crt_unique_heap_ptr@EU__crt_internal_free_policy@@@@QEBA_NXZ 000000014004d824     libucrtd:argv_parsing.obj
 0002:00011824       $unwind$??1?$__crt_unique_handle_t@U__crt_findfile_traits@@@@QEAA@XZ 000000014004d824     libucrtd:argv_wildcards.obj
 0002:00011824       $unwind$?_deallocate@?$__crt_win32_buffer@DU__crt_win32_buffer_internal_dynamic_resizing@@@@AEAAXXZ 000000014004d824     libucrtd:argv_wildcards.obj
 0002:00011824       $unwind$?_deallocate@?$__crt_win32_buffer@_WU__crt_win32_buffer_internal_dynamic_resizing@@@@AEAAXXZ 000000014004d824     libucrtd:argv_wildcards.obj
 0002:00011824       $unwind$?close@?$__crt_unique_handle_t@U__crt_findfile_traits@@@@QEAAXXZ 000000014004d824     libucrtd:argv_wildcards.obj
 0002:00011824       $unwind$?set_to_nullptr@?$__crt_win32_buffer@DU__crt_win32_buffer_internal_dynamic_resizing@@@@QEAAXXZ 000000014004d824     libucrtd:argv_wildcards.obj
 0002:00011824       $unwind$?set_to_nullptr@?$__crt_win32_buffer@_WU__crt_win32_buffer_internal_dynamic_resizing@@@@QEAAXXZ 000000014004d824     libucrtd:argv_wildcards.obj
 0002:00011824       $unwind$??$?B$$A6AXPEAXK0@Z@__crt_fast_encoded_nullptr_t@@QEBAP6AXPEAXK0@ZXZ 000000014004d824     libucrtd:exit.obj
 0002:00011824       $unwind$??$__crt_fast_decode_pointer@P6AXPEAXK0@Z@@YAP6AXPEAXK0@ZQ6AX0K0@Z@Z 000000014004d824     libucrtd:exit.obj
 0002:00011824       $unwind$??$__crt_fast_encode_pointer@P6AXPEAXK0@Z@@YAP6AXPEAXK0@ZQ6AX0K0@Z@Z 000000014004d824     libucrtd:exit.obj
 0002:00011824       $unwind$??$__crt_interlocked_read@J@@YAJPEDJ@Z 000000014004d824     libucrtd:exit.obj
 0002:00011824       $unwind$??1?$__crt_unique_handle_t@U__crt_hmodule_traits@@@@QEAA@XZ 000000014004d824     libucrtd:exit.obj
 0002:00011824       $unwind$??R<lambda_2358e3775559c9db80273638284d5e45>@@QEBAXXZ 000000014004d824     libucrtd:exit.obj
 0002:00011824       $unwind$??R<lambda_d80eeec6fff315bfe5c115232f3240e3>@@QEBAXXZ 000000014004d824     libucrtd:exit.obj
 0002:00011824       $unwind$?close@?$__crt_unique_handle_t@U__crt_hmodule_traits@@@@QEAAXXZ 000000014004d824     libucrtd:exit.obj
 0002:00011824       $unwind$??$?B$$A6AXXZ@__crt_fast_encoded_nullptr_t@@QEBAP6AXXZXZ 000000014004d824     libucrtd:onexit.obj
 0002:00011824       $unwind$??$?BP6AXXZ@__crt_fast_encoded_nullptr_t@@QEBAPEAP6AXXZXZ 000000014004d824     libucrtd:onexit.obj
 0002:00011824       $unwind$??$__crt_fast_decode_pointer@P6AXXZ@@YAP6AXXZQ6AXXZ@Z 000000014004d824     libucrtd:onexit.obj
 0002:00011824       $unwind$??$__crt_fast_decode_pointer@PEAP6AXXZ@@YAPEAP6AXXZQEAP6AXXZ@Z 000000014004d824     libucrtd:onexit.obj
 0002:00011824       $unwind$??$__crt_fast_encode_pointer@P6AHXZ@@YAP6AHXZQ6AHXZ@Z 000000014004d824     libucrtd:onexit.obj
 0002:00011824       $unwind$??$__crt_fast_encode_pointer@P6AXXZ@@YAP6AXXZQ6AXXZ@Z 000000014004d824     libucrtd:onexit.obj
 0002:00011824       $unwind$??$__crt_fast_encode_pointer@PEAP6AXXZ@@YAPEAP6AXXZQEAP6AXXZ@Z 000000014004d824     libucrtd:onexit.obj
 0002:00011824       $unwind$??1?$__crt_unique_heap_ptr@P6AXXZU__crt_internal_free_policy@@@@QEAA@XZ 000000014004d824     libucrtd:onexit.obj
 0002:00011824       $unwind$??R<lambda_00e911965883f7966597d4c465c83ebc>@@QEBAXXZ 000000014004d824     libucrtd:onexit.obj
 0002:00011824       $unwind$??R<lambda_6a47f4c8fd0152770a780fc1d70204eb>@@QEBAXXZ 000000014004d824     libucrtd:onexit.obj
 0002:00011824       $unwind$??R<lambda_6aaa2265f5b6a89667e7d7630012e97a>@@QEBAXXZ 000000014004d824     libucrtd:onexit.obj
 0002:00011824       $unwind$??R<lambda_dce957679fd779aa27c4ca5c39e09098>@@QEBAXXZ 000000014004d824     libucrtd:onexit.obj
 0002:00011824       $unwind$_crt_atexit        000000014004d824     libucrtd:onexit.obj
 0002:00011824       $unwind$??1?$__crt_unique_heap_ptr@PEAU__crt_stdio_stream_data@@U__crt_internal_free_policy@@@@QEAA@XZ 000000014004d824     libucrtd:_file.obj
 0002:00011824       $unwind$?has_crt_buffer@__crt_stdio_stream@@QEBA_NXZ 000000014004d824     libucrtd:_freebuf.obj
 0002:00011824       $unwind$??R<lambda_842d9ff0dc9ef11c61343bbaebe7f885>@@QEBAXXZ 000000014004d824     libucrtd:fflush.obj
 0002:00011824       $unwind$??R<lambda_886d6c58226a84441f68b9f2b8217b83>@@QEBAXXZ 000000014004d824     libucrtd:fflush.obj
 0002:00011824       $unwind$??R<lambda_c5860995281e5c4ce005b3de8f5874ee>@@QEBAXXZ 000000014004d824     libucrtd:fflush.obj
 0002:00011824       $unwind$??R<lambda_d90129c13df834fdcbf8d2b88dafcf2d>@@QEBAXXZ 000000014004d824     libucrtd:fflush.obj
 0002:00011824       $unwind$??R<lambda_f7f22ab5edc0698d5f6905b0d3f44752>@@QEBAXXZ 000000014004d824     libucrtd:fflush.obj
 0002:00011824       $unwind$?lowio_handle@__crt_stdio_stream@@QEBAHXZ 000000014004d824     libucrtd:fileno.obj
 0002:00011824       $unwind$??$count@D@formatting_buffer@__crt_stdio_output@@QEBA_KXZ 000000014004d824     libucrtd:output.obj
 0002:00011824       $unwind$??$count@_W@formatting_buffer@__crt_stdio_output@@QEBA_KXZ 000000014004d824     libucrtd:output.obj
 0002:00011824       $unwind$??$data@D@formatting_buffer@__crt_stdio_output@@QEAAPEADXZ 000000014004d824     libucrtd:output.obj
 0002:00011824       $unwind$??$data@_W@formatting_buffer@__crt_stdio_output@@QEAAPEA_WXZ 000000014004d824     libucrtd:output.obj
 0002:00011824       $unwind$??$scratch_count@D@formatting_buffer@__crt_stdio_output@@QEBA_KXZ 000000014004d824     libucrtd:output.obj
 0002:00011824       $unwind$??0?$common_data@D@__crt_stdio_output@@IEAA@XZ 000000014004d824     libucrtd:output.obj
 0002:00011824       $unwind$??0?$common_data@_W@__crt_stdio_output@@IEAA@XZ 000000014004d824     libucrtd:output.obj
 0002:00011824       $unwind$??0formatting_buffer@__crt_stdio_output@@QEAA@XZ 000000014004d824     libucrtd:output.obj
 0002:00011824       $unwind$??1?$common_data@D@__crt_stdio_output@@QEAA@XZ 000000014004d824     libucrtd:output.obj
 0002:00011824       $unwind$??1?$common_data@_W@__crt_stdio_output@@QEAA@XZ 000000014004d824     libucrtd:output.obj
 0002:00011824       $unwind$??1?$format_validation_base@DV?$string_output_adapter@D@__crt_stdio_output@@@__crt_stdio_output@@QEAA@XZ 000000014004d824     libucrtd:output.obj
 0002:00011824       $unwind$??1?$format_validation_base@_WV?$string_output_adapter@_W@__crt_stdio_output@@@__crt_stdio_output@@QEAA@XZ 000000014004d824     libucrtd:output.obj
 0002:00011824       $unwind$??1?$output_adapter_data@DV?$string_output_adapter@D@__crt_stdio_output@@@__crt_stdio_output@@QEAA@XZ 000000014004d824     libucrtd:output.obj
 0002:00011824       $unwind$??1?$output_adapter_data@_WV?$string_output_adapter@_W@__crt_stdio_output@@@__crt_stdio_output@@QEAA@XZ 000000014004d824     libucrtd:output.obj
 0002:00011824       $unwind$??1?$output_processor@DV?$string_output_adapter@D@__crt_stdio_output@@V?$format_validation_base@DV?$string_output_adapter@D@__crt_stdio_output@@@2@@__crt_stdio_output@@QEAA@XZ 000000014004d824     libucrtd:output.obj
 0002:00011824       $unwind$??1?$output_processor@_WV?$string_output_adapter@_W@__crt_stdio_output@@V?$format_validation_base@_WV?$string_output_adapter@_W@__crt_stdio_output@@@2@@__crt_stdio_output@@QEAA@XZ 000000014004d824     libucrtd:output.obj
 0002:00011824       $unwind$??1?$standard_base@DV?$string_output_adapter@D@__crt_stdio_output@@@__crt_stdio_output@@QEAA@XZ 000000014004d824     libucrtd:output.obj
 0002:00011824       $unwind$??1?$standard_base@_WV?$string_output_adapter@_W@__crt_stdio_output@@@__crt_stdio_output@@QEAA@XZ 000000014004d824     libucrtd:output.obj
 0002:00011824       $unwind$??1formatting_buffer@__crt_stdio_output@@QEAA@XZ 000000014004d824     libucrtd:output.obj
 0002:00011824       $unwind$?get@__crt_deferred_errno_cache@@QEAAAEAHXZ 000000014004d824     libucrtd:output.obj
 0002:00011824       $unwind$?get_flags@__crt_stdio_stream@@QEBAJXZ 000000014004d824     libucrtd:output.obj
 0002:00011824       $unwind$?state_case_normal_common@?$output_processor@DV?$string_output_adapter@D@__crt_stdio_output@@V?$format_validation_base@DV?$string_output_adapter@D@__crt_stdio_output@@@2@@__crt_stdio_output@@AEAA_NXZ 000000014004d824     libucrtd:output.obj
 0002:00011824       $unwind$?state_case_normal_common@?$output_processor@_WV?$string_output_adapter@_W@__crt_stdio_output@@V?$format_validation_base@_WV?$string_output_adapter@_W@__crt_stdio_output@@@2@@__crt_stdio_output@@AEAA_NXZ 000000014004d824     libucrtd:output.obj
 0002:00011824       $unwind$?state_case_precision@?$output_processor@DV?$string_output_adapter@D@__crt_stdio_output@@V?$format_validation_base@DV?$string_output_adapter@D@__crt_stdio_output@@@2@@__crt_stdio_output@@AEAA_NXZ 000000014004d824     libucrtd:output.obj
 0002:00011824       $unwind$?state_case_precision@?$output_processor@_WV?$string_output_adapter@_W@__crt_stdio_output@@V?$format_validation_base@_WV?$string_output_adapter@_W@__crt_stdio_output@@@2@@__crt_stdio_output@@AEAA_NXZ 000000014004d824     libucrtd:output.obj
 0002:00011824       $unwind$?state_case_width@?$output_processor@DV?$string_output_adapter@D@__crt_stdio_output@@V?$format_validation_base@DV?$string_output_adapter@D@__crt_stdio_output@@@2@@__crt_stdio_output@@AEAA_NXZ 000000014004d824     libucrtd:output.obj
 0002:00011824       $unwind$?state_case_width@?$output_processor@_WV?$string_output_adapter@_W@__crt_stdio_output@@V?$format_validation_base@_WV?$string_output_adapter@_W@__crt_stdio_output@@@2@@__crt_stdio_output@@AEAA_NXZ 000000014004d824     libucrtd:output.obj
 0002:00011824       $unwind$?tchar_string@?$common_data@D@__crt_stdio_output@@IEAAAEAPEADXZ 000000014004d824     libucrtd:output.obj
 0002:00011824       $unwind$?tchar_string@?$common_data@_W@__crt_stdio_output@@IEAAAEAPEA_WXZ 000000014004d824     libucrtd:output.obj
 0002:00011824       $unwind$?type_case_X@?$output_processor@DV?$string_output_adapter@D@__crt_stdio_output@@V?$format_validation_base@DV?$string_output_adapter@D@__crt_stdio_output@@@2@@__crt_stdio_output@@AEAA_NXZ 000000014004d824     libucrtd:output.obj
 0002:00011824       $unwind$?type_case_X@?$output_processor@_WV?$string_output_adapter@_W@__crt_stdio_output@@V?$format_validation_base@_WV?$string_output_adapter@_W@__crt_stdio_output@@@2@@__crt_stdio_output@@AEAA_NXZ 000000014004d824     libucrtd:output.obj
 0002:00011824       $unwind$?type_case_c@?$output_processor@DV?$string_output_adapter@D@__crt_stdio_output@@V?$format_validation_base@DV?$string_output_adapter@D@__crt_stdio_output@@@2@@__crt_stdio_output@@AEAA_NXZ 000000014004d824     libucrtd:output.obj
 0002:00011824       $unwind$?type_case_c@?$output_processor@_WV?$string_output_adapter@_W@__crt_stdio_output@@V?$format_validation_base@_WV?$string_output_adapter@_W@__crt_stdio_output@@@2@@__crt_stdio_output@@AEAA_NXZ 000000014004d824     libucrtd:output.obj
 0002:00011824       $unwind$?type_case_d@?$output_processor@DV?$string_output_adapter@D@__crt_stdio_output@@V?$format_validation_base@DV?$string_output_adapter@D@__crt_stdio_output@@@2@@__crt_stdio_output@@AEAA_NXZ 000000014004d824     libucrtd:output.obj
 0002:00011824       $unwind$?type_case_d@?$output_processor@_WV?$string_output_adapter@_W@__crt_stdio_output@@V?$format_validation_base@_WV?$string_output_adapter@_W@__crt_stdio_output@@@2@@__crt_stdio_output@@AEAA_NXZ 000000014004d824     libucrtd:output.obj
 0002:00011824       $unwind$?type_case_o@?$output_processor@DV?$string_output_adapter@D@__crt_stdio_output@@V?$format_validation_base@DV?$string_output_adapter@D@__crt_stdio_output@@@2@@__crt_stdio_output@@AEAA_NXZ 000000014004d824     libucrtd:output.obj
 0002:00011824       $unwind$?type_case_o@?$output_processor@_WV?$string_output_adapter@_W@__crt_stdio_output@@V?$format_validation_base@_WV?$string_output_adapter@_W@__crt_stdio_output@@@2@@__crt_stdio_output@@AEAA_NXZ 000000014004d824     libucrtd:output.obj
 0002:00011824       $unwind$?type_case_p@?$output_processor@DV?$string_output_adapter@D@__crt_stdio_output@@V?$format_validation_base@DV?$string_output_adapter@D@__crt_stdio_output@@@2@@__crt_stdio_output@@AEAA_NXZ 000000014004d824     libucrtd:output.obj
 0002:00011824       $unwind$?type_case_p@?$output_processor@_WV?$string_output_adapter@_W@__crt_stdio_output@@V?$format_validation_base@_WV?$string_output_adapter@_W@__crt_stdio_output@@@2@@__crt_stdio_output@@AEAA_NXZ 000000014004d824     libucrtd:output.obj
 0002:00011824       $unwind$?type_case_u@?$output_processor@DV?$string_output_adapter@D@__crt_stdio_output@@V?$format_validation_base@DV?$string_output_adapter@D@__crt_stdio_output@@@2@@__crt_stdio_output@@AEAA_NXZ 000000014004d824     libucrtd:output.obj
 0002:00011824       $unwind$?type_case_u@?$output_processor@_WV?$string_output_adapter@_W@__crt_stdio_output@@V?$format_validation_base@_WV?$string_output_adapter@_W@__crt_stdio_output@@@2@@__crt_stdio_output@@AEAA_NXZ 000000014004d824     libucrtd:output.obj
 0002:00011824       $unwind$?type_case_x@?$output_processor@DV?$string_output_adapter@D@__crt_stdio_output@@V?$format_validation_base@DV?$string_output_adapter@D@__crt_stdio_output@@@2@@__crt_stdio_output@@AEAA_NXZ 000000014004d824     libucrtd:output.obj
 0002:00011824       $unwind$?type_case_x@?$output_processor@_WV?$string_output_adapter@_W@__crt_stdio_output@@V?$format_validation_base@_WV?$string_output_adapter@_W@__crt_stdio_output@@@2@@__crt_stdio_output@@AEAA_NXZ 000000014004d824     libucrtd:output.obj
 0002:00011824       $unwind$?update_field_width@?$standard_base@DV?$string_output_adapter@D@__crt_stdio_output@@@__crt_stdio_output@@IEAA_NXZ 000000014004d824     libucrtd:output.obj
 0002:00011824       $unwind$?update_field_width@?$standard_base@_WV?$string_output_adapter@_W@__crt_stdio_output@@@__crt_stdio_output@@IEAA_NXZ 000000014004d824     libucrtd:output.obj
 0002:00011824       $unwind$?update_precision@?$standard_base@DV?$string_output_adapter@D@__crt_stdio_output@@@__crt_stdio_output@@IEAA_NXZ 000000014004d824     libucrtd:output.obj
 0002:00011824       $unwind$?update_precision@?$standard_base@_WV?$string_output_adapter@_W@__crt_stdio_output@@@__crt_stdio_output@@IEAA_NXZ 000000014004d824     libucrtd:output.obj
 0002:00011824       $unwind$?__acrt_stdio_free_stream@@YAXV__crt_stdio_stream@@@Z 000000014004d824     libucrtd:stream.obj
 0002:00011824       $unwind$wcslen             000000014004d824     libucrtd:strnlen.obj
 0002:00011824       $unwind$fegetenv           000000014004d824     libucrtd:fegetenv.obj
 0002:00011824       $unwind$??$__crt_fast_decode_pointer@P6AHPEAU_exception@@@Z@@YAP6AHPEAU_exception@@@ZQ6AH0@Z@Z 000000014004d824     libucrtd:matherr.obj
 0002:00011824       $unwind$??$__crt_fast_encode_pointer@P6AHPEAU_exception@@@Z@@YAP6AHPEAU_exception@@@ZQ6AH0@Z@Z 000000014004d824     libucrtd:matherr.obj
 0002:00011824       $unwind$?value@?$dual_state_global@P6AHPEAU_exception@@@Z@__crt_state_management@@QEAAAEAP6AHPEAU_exception@@@ZXZ 000000014004d824     libucrtd:matherr.obj
 0002:00011824       $unwind$__acrt_initialize_user_matherr 000000014004d824     libucrtd:matherr.obj
 0002:0001182c       $unwind$__report_securityfailure 000000014004d82c     LIBCMTD:gs_report.obj
 0002:0001182c       $unwind$__scrt_initialize_crt 000000014004d82c     LIBCMTD:utility.obj
 0002:0001182c       $unwind$__scrt_release_startup_lock 000000014004d82c     LIBCMTD:utility.obj
 0002:0001182c       $unwind$__vcrt_uninitialize 000000014004d82c     libvcruntimed:initialization.obj
 0002:0001182c       $unwind$__ascii_towupper   000000014004d82c     libucrtd:atox.obj
 0002:0001182c       $unwind$__acrt_uninitialize 000000014004d82c     libucrtd:initialization.obj
 0002:0001182c       $unwind$report_memory_leaks 000000014004d82c     libucrtd:initialization.obj
 0002:0001182c       $unwind$uninitialize_allocated_io_buffers 000000014004d82c     libucrtd:initialization.obj
 0002:0001182c       $unwind$uninitialize_environment 000000014004d82c     libucrtd:initialization.obj
 0002:0001182c       $unwind$uninitialize_vcruntime 000000014004d82c     libucrtd:initialization.obj
 0002:0001182c       $unwind$__acrt_lock        000000014004d82c     libucrtd:locks.obj
 0002:0001182c       $unwind$__acrt_unlock      000000014004d82c     libucrtd:locks.obj
 0002:0001182c       $unwind$__acrt_uninitialize_ptd 000000014004d82c     libucrtd:per_thread_data.obj
 0002:0001182c       $unwind$__ascii_towlower   000000014004d82c     libucrtd:wsetlocale.obj
 0002:0001182c       $unwind$__acrt_lowio_lock_fh 000000014004d82c     libucrtd:osfinfo.obj
 0002:0001182c       $unwind$__acrt_lowio_unlock_fh 000000014004d82c     libucrtd:osfinfo.obj
 0002:0001182c       $unwind$?do_locale_initialization@@YAXD@Z 000000014004d82c     libucrtd:argv_parsing.obj
 0002:0001182c       $unwind$_configure_narrow_argv 000000014004d82c     libucrtd:argv_parsing.obj
 0002:0001182c       $unwind$?do_locale_initialization@@YAXE@Z 000000014004d82c     libucrtd:argv_winmain.obj
 0002:0001182c       $unwind$?exit_or_terminate_process@@YAXI@Z 000000014004d82c     libucrtd:exit.obj
 0002:0001182c       $unwind$_exit              000000014004d82c     libucrtd:exit.obj
 0002:0001182c       $unwind$exit               000000014004d82c     libucrtd:exit.obj
 0002:0001182c       $unwind$?is_stream_flushable_or_commitable@@YA_NJ@Z 000000014004d82c     libucrtd:fflush.obj
 0002:0001182c       $unwind$??$to_abstract_status@W4__acrt_fenv_machine_sse_status@@@@YA?AW4__acrt_fenv_abstract_status@@W4__acrt_fenv_machine_sse_status@@@Z 000000014004d82c     libucrtd:_fenvutils.obj
 0002:0001182c       $unwind$?__acrt_fenv_shift_abstract_sse_status@@YA?AW4__acrt_fenv_abstract_status@@W41@@Z 000000014004d82c     libucrtd:_fenvutils.obj
 0002:0001182c       $unwind$?__acrt_fenv_unshift_abstract_sse_status@@YA?AW4__acrt_fenv_abstract_status@@W41@@Z 000000014004d82c     libucrtd:_fenvutils.obj
 0002:0001182c       $unwind$?to_machine_sse_status@@YA?AW4__acrt_fenv_machine_sse_status@@W4__acrt_fenv_abstract_status@@@Z 000000014004d82c     libucrtd:_fenvutils.obj
 0002:0001182c       $unwind$__acrt_fenv_get_common_round_control 000000014004d82c     libucrtd:_fenvutils.obj
 0002:0001182c       $unwind$__acrt_fenv_set_control 000000014004d82c     libucrtd:_fenvutils.obj
 0002:0001182c       $unwind$__acrt_fenv_set_status 000000014004d82c     libucrtd:_fenvutils.obj
 0002:00011834       $unwind$__report_gsfailure 000000014004d834     LIBCMTD:gs_report.obj
 0002:00011834       $unwind$atexit             000000014004d834     LIBCMTD:utility.obj
 0002:00011834       $unwind$__scrt_unhandled_exception_filter 000000014004d834     LIBCMTD:utility_desktop.obj
 0002:00011834       $unwind$_IsExceptionObjectToBeDestroyed 000000014004d834     libvcruntimed:ehhelpers.obj
 0002:00011834       $unwind$?getESTypes@__FrameHandler3@@SAPEBU_s_ESTypeList@@PEBU_s_FuncInfo@@@Z 000000014004d834     libvcruntimed:frame.obj
 0002:00011834       $unwind$__except_validate_context_record 000000014004d834     libvcruntimed:jbcxrval.obj
 0002:00011834       $unwind$?release@?$__crt_unique_heap_ptr@U__vcrt_ptd@@U__crt_internal_free_policy@@@@QEAAXXZ 000000014004d834     libvcruntimed:per_thread_data.obj
 0002:00011834       $unwind$_FindAndUnlinkFrame 000000014004d834     libvcruntimed:risctrnsctrl.obj
 0002:00011834       $unwind$?release@?$__crt_unique_heap_ptr@DU__crt_public_free_policy@@@@QEAAXXZ 000000014004d834     libvcruntimed:std_exception.obj
 0002:00011834       $unwind$?release@?$__crt_unique_heap_ptr@DU__crt_internal_free_policy@@@@QEAAXXZ 000000014004d834     libvcruntimed:std_type_info.obj
 0002:00011834       $unwind$?try_load_library_from_system_directory@@YAPEAUHINSTANCE__@@QEB_W@Z 000000014004d834     libvcruntimed:winapi_downlevel.obj
 0002:00011834       $unwind$?parse_digit@__crt_strtox@@YAI_W@Z 000000014004d834     libucrtd:atox.obj
 0002:00011834       $unwind$?is_block_an_aligned_allocation@@YA_NQEBX@Z 000000014004d834     libucrtd:debug_heap.obj
 0002:00011834       $unwind$free               000000014004d834     libucrtd:free.obj
 0002:00011834       $unwind$_free_base         000000014004d834     libucrtd:free_base.obj
 0002:00011834       $unwind$_callnewh          000000014004d834     libucrtd:new_handler.obj
 0002:00011834       $unwind$??R<lambda_e157831efee4ea0afb0a2ace5dd5fd0d>@@QEBAXXZ 000000014004d834     libucrtd:per_thread_data.obj
 0002:00011834       $unwind$?construct_ptd_array@@YAXQEAU__acrt_ptd@@@Z 000000014004d834     libucrtd:per_thread_data.obj
 0002:00011834       $unwind$?destroy_ptd@@YAXQEAU__acrt_ptd@@@Z 000000014004d834     libucrtd:per_thread_data.obj
 0002:00011834       $unwind$?destroy_ptd_array@@YAXQEAU__acrt_ptd@@@Z 000000014004d834     libucrtd:per_thread_data.obj
 0002:00011834       $unwind$?release@?$__crt_unique_heap_ptr@U__acrt_ptd@@U__crt_internal_free_policy@@@@QEAAXXZ 000000014004d834     libucrtd:per_thread_data.obj
 0002:00011834       $unwind$?try_load_library_from_system_directory@@YAPEAUHINSTANCE__@@QEB_W@Z 000000014004d834     libucrtd:winapi_thunks.obj
 0002:00011834       $unwind$__acrt_AppPolicyGetProcessTerminationMethodInternal 000000014004d834     libucrtd:winapi_thunks.obj
 0002:00011834       $unwind$__acrt_AppPolicyGetShowDeveloperDiagnosticInternal 000000014004d834     libucrtd:winapi_thunks.obj
 0002:00011834       $unwind$__acrt_AppPolicyGetWindowingModelInternal 000000014004d834     libucrtd:winapi_thunks.obj
 0002:00011834       $unwind$__acrt_FlsAlloc    000000014004d834     libucrtd:winapi_thunks.obj
 0002:00011834       $unwind$__acrt_DownlevelLocaleNameToLCID 000000014004d834     libucrtd:lcidtoname_downlevel.obj
 0002:00011834       $unwind$__acrt_add_locale_ref 000000014004d834     libucrtd:locale_refcounting.obj
 0002:00011834       $unwind$__acrt_release_locale_ref 000000014004d834     libucrtd:locale_refcounting.obj
 0002:00011834       $unwind$?release@?$__crt_unique_heap_ptr@U__crt_multibyte_data@@U__crt_internal_free_policy@@@@QEAAXXZ 000000014004d834     libucrtd:wsetlocale.obj
 0002:00011834       $unwind$??R<lambda_4e7105787b7b0e0227fbf2b2d883fa65>@@QEBAHXZ 000000014004d834     libucrtd:close.obj
 0002:00011834       $unwind$?release@?$__crt_unique_heap_ptr@U__crt_lowio_handle_data@@U__crt_internal_free_policy@@@@QEAAXXZ 000000014004d834     libucrtd:osfinfo.obj
 0002:00011834       $unwind$??R<lambda_bd5a608237428601b7e45fbdc72b1ae8>@@QEBAXXZ 000000014004d834     libucrtd:mbctype.obj
 0002:00011834       $unwind$__acrt_initialize_invalid_parameter_handler 000000014004d834     libucrtd:invalid_parameter.obj
 0002:00011834       $unwind$??R<lambda_df1553121bfa390f1154bd84936f2730>@@QEBAHXZ 000000014004d834     libucrtd:argv_parsing.obj
 0002:00011834       $unwind$?release@?$__crt_unique_heap_ptr@EU__crt_internal_free_policy@@@@QEAAXXZ 000000014004d834     libucrtd:argv_parsing.obj
 0002:00011834       $unwind$?release@?$__crt_unique_heap_ptr@PEADU__crt_internal_free_policy@@@@QEAAXXZ 000000014004d834     libucrtd:argv_parsing.obj
 0002:00011834       $unwind$??1?$argument_list@D@?A0x5f5c8891@@QEAA@XZ 000000014004d834     libucrtd:argv_wildcards.obj
 0002:00011834       $unwind$?close@__crt_findfile_traits@@SA_NPEAX@Z 000000014004d834     libucrtd:argv_wildcards.obj
 0002:00011834       $unwind$?close@__crt_hmodule_traits@@SA_NPEAUHINSTANCE__@@@Z 000000014004d834     libucrtd:exit.obj
 0002:00011834       $unwind$_register_thread_local_exe_atexit_callback 000000014004d834     libucrtd:exit.obj
 0002:00011834       $unwind$?release@?$__crt_unique_heap_ptr@P6AXXZU__crt_internal_free_policy@@@@QEAAXXZ 000000014004d834     libucrtd:onexit.obj
 0002:00011834       $unwind$_execute_onexit_table 000000014004d834     libucrtd:onexit.obj
 0002:00011834       $unwind$_initialize_onexit_table 000000014004d834     libucrtd:onexit.obj
 0002:00011834       $unwind$?release@?$__crt_unique_heap_ptr@PEAU__crt_stdio_stream_data@@U__crt_internal_free_policy@@@@QEAAXXZ 000000014004d834     libucrtd:_file.obj
 0002:00011834       $unwind$_lock_file         000000014004d834     libucrtd:_file.obj
 0002:00011834       $unwind$_unlock_file       000000014004d834     libucrtd:_file.obj
 0002:00011834       $unwind$?is_in_use@__crt_stdio_stream@@QEBA_NXZ 000000014004d834     libucrtd:closeall.obj
 0002:00011834       $unwind$?__acrt_stdio_reset_buffer@@YAXV__crt_stdio_stream@@@Z 000000014004d834     libucrtd:fflush.obj
 0002:00011834       $unwind$_fflush_nolock     000000014004d834     libucrtd:fflush.obj
 0002:00011834       $unwind$??$scratch_data@D@formatting_buffer@__crt_stdio_output@@QEAAPEADXZ 000000014004d834     libucrtd:output.obj
 0002:00011834       $unwind$?is_string_backed@__crt_stdio_stream@@QEBA_NXZ 000000014004d834     libucrtd:output.obj
 0002:00011834       $unwind$?state_case_flag@?$output_processor@DV?$string_output_adapter@D@__crt_stdio_output@@V?$format_validation_base@DV?$string_output_adapter@D@__crt_stdio_output@@@2@@__crt_stdio_output@@AEAA_NXZ 000000014004d834     libucrtd:output.obj
 0002:00011834       $unwind$?state_case_flag@?$output_processor@_WV?$string_output_adapter@_W@__crt_stdio_output@@V?$format_validation_base@_WV?$string_output_adapter@_W@__crt_stdio_output@@@2@@__crt_stdio_output@@AEAA_NXZ 000000014004d834     libucrtd:output.obj
 0002:00011834       $unwind$?type_case_Z@?$output_processor@DV?$string_output_adapter@D@__crt_stdio_output@@V?$format_validation_base@DV?$string_output_adapter@D@__crt_stdio_output@@@2@@__crt_stdio_output@@AEAA_NXZ 000000014004d834     libucrtd:output.obj
 0002:00011834       $unwind$?type_case_Z@?$output_processor@_WV?$string_output_adapter@_W@__crt_stdio_output@@V?$format_validation_base@_WV?$string_output_adapter@_W@__crt_stdio_output@@@2@@__crt_stdio_output@@AEAA_NXZ 000000014004d834     libucrtd:output.obj
 0002:00011834       $unwind$?type_case_s@?$output_processor@DV?$string_output_adapter@D@__crt_stdio_output@@V?$format_validation_base@DV?$string_output_adapter@D@__crt_stdio_output@@@2@@__crt_stdio_output@@AEAA_NXZ 000000014004d834     libucrtd:output.obj
 0002:00011834       $unwind$?type_case_s@?$output_processor@_WV?$string_output_adapter@_W@__crt_stdio_output@@V?$format_validation_base@_WV?$string_output_adapter@_W@__crt_stdio_output@@@2@@__crt_stdio_output@@AEAA_NXZ 000000014004d834     libucrtd:output.obj
 0002:00011834       $unwind$_set_statfp        000000014004d834     libucrtd:fpctrl.obj
 0002:00011834       $unwind$??$translate_control_exception_mask@W4__acrt_fenv_abstract_control@@W4__acrt_fenv_machine_sse_control@@@@YA?AW4__acrt_fenv_abstract_control@@W4__acrt_fenv_machine_sse_control@@@Z 000000014004d834     libucrtd:_fenvutils.obj
 0002:00011834       $unwind$??$translate_control_rounding_control@W4__acrt_fenv_abstract_control@@W4__acrt_fenv_machine_sse_control@@@@YA?AW4__acrt_fenv_abstract_control@@W4__acrt_fenv_machine_sse_control@@@Z 000000014004d834     libucrtd:_fenvutils.obj
 0002:00011834       $unwind$?set_machine_sse_control@@YAXW4__acrt_fenv_machine_sse_control@@@Z 000000014004d834     libucrtd:_fenvutils.obj
 0002:00011834       $unwind$?to_abstract_control@@YA?AW4__acrt_fenv_abstract_control@@W4__acrt_fenv_machine_sse_control@@@Z 000000014004d834     libucrtd:_fenvutils.obj
 0002:00011834       $unwind$?translate_control_denormal_control_from_sse@@YA?AW4__acrt_fenv_abstract_control@@W4__acrt_fenv_machine_sse_control@@@Z 000000014004d834     libucrtd:_fenvutils.obj
 0002:00011834       $unwind$feholdexcept       000000014004d834     libucrtd:feholdexcept.obj
 0002:00011834       $unwind$__acrt_invoke_user_matherr 000000014004d834     libucrtd:matherr.obj
 0002:00011834       $unwind$__setusermatherr   000000014004d834     libucrtd:matherr.obj
 0002:0001183c       $unwind$capture_current_context 000000014004d83c     LIBCMTD:gs_report.obj
 0002:0001183c       $unwind$capture_previous_context 000000014004d83c     LIBCMTD:gs_report.obj
 0002:0001183c       $unwind$?capture_current_context@@YAXQEAU_CONTEXT@@@Z 000000014004d83c     libucrtd:invalid_parameter.obj
 0002:00011844       $unwind$_onexit            000000014004d844     LIBCMTD:utility.obj
 0002:00011844       $unwind$__FrameUnwindFilter 000000014004d844     libvcruntimed:ehhelpers.obj
 0002:00011844       $unwind$?Is_bad_exception_allowed@@YAEPEBU_s_ESTypeList@@@Z 000000014004d844     libvcruntimed:frame.obj
 0002:00011844       $unwind$__vcrt_FlsAlloc    000000014004d844     libvcruntimed:winapi_downlevel.obj
 0002:00011844       $unwind$?validate@?$c_string_character_source@D@__crt_strtox@@QEBA_NXZ 000000014004d844     libucrtd:atox.obj
 0002:00011844       $unwind$?validate@?$c_string_character_source@_W@__crt_strtox@@QEBA_NXZ 000000014004d844     libucrtd:atox.obj
 0002:00011844       $unwind$?is_contraction_possible@@YA_N_K@Z 000000014004d844     libucrtd:expand.obj
 0002:00011844       $unwind$_malloc_base       000000014004d844     libucrtd:malloc_base.obj
 0002:00011844       $unwind$?issue_debug_notification@@YA_NQEB_W@Z 000000014004d844     libucrtd:report_runtime_error.obj
 0002:00011844       $unwind$_freea_crt         000000014004d844     libucrtd:getstringtypea.obj
 0002:00011844       $unwind$?GetTableIndexFromLocaleName@@YAHPEB_W@Z 000000014004d844     libucrtd:lcidtoname_downlevel.obj
 0002:00011844       $unwind$__acrt_free_locale 000000014004d844     libucrtd:locale_refcounting.obj
 0002:00011844       $unwind$??R<lambda_5533cddd4bda0037814beee657757329>@@QEBAHXZ 000000014004d844     libucrtd:commit.obj
 0002:00011844       $unwind$__acrt_lowio_destroy_handle_array 000000014004d844     libucrtd:osfinfo.obj
 0002:00011844       $unwind$__acrt_stdio_free_buffer_nolock 000000014004d844     libucrtd:_freebuf.obj
 0002:00011844       $unwind$__acrt_stdio_flush_nolock 000000014004d844     libucrtd:fflush.obj
 0002:00011844       $unwind$_fileno            000000014004d844     libucrtd:fileno.obj
 0002:00011844       $unwind$?state_case_normal@?$output_processor@DV?$string_output_adapter@D@__crt_stdio_output@@V?$format_validation_base@DV?$string_output_adapter@D@__crt_stdio_output@@@2@@__crt_stdio_output@@AEAA_NXZ 000000014004d844     libucrtd:output.obj
 0002:00011844       $unwind$?state_case_normal@?$output_processor@_WV?$string_output_adapter@_W@__crt_stdio_output@@V?$format_validation_base@_WV?$string_output_adapter@_W@__crt_stdio_output@@@2@@__crt_stdio_output@@AEAA_NXZ 000000014004d844     libucrtd:output.obj
 0002:00011844       $unwind$?validate@?$string_output_adapter@D@__crt_stdio_output@@QEBA_NXZ 000000014004d844     libucrtd:output.obj
 0002:00011844       $unwind$?validate@?$string_output_adapter@_W@__crt_stdio_output@@QEBA_NXZ 000000014004d844     libucrtd:output.obj
 0002:00011844       $unwind$?validate_and_update_state_at_end_of_format_string@?$format_validation_base@DV?$string_output_adapter@D@__crt_stdio_output@@@__crt_stdio_output@@IEBA_NXZ 000000014004d844     libucrtd:output.obj
 0002:00011844       $unwind$?validate_and_update_state_at_end_of_format_string@?$format_validation_base@_WV?$string_output_adapter@_W@__crt_stdio_output@@@__crt_stdio_output@@IEBA_NXZ 000000014004d844     libucrtd:output.obj
 0002:0001184c       $unwind$__scrt_is_nonwritable_in_current_image 000000014004d84c     LIBCMTD:utility.obj
 0002:0001186c       $unwind$__scrt_acquire_startup_lock 000000014004d86c     LIBCMTD:utility.obj
 0002:0001186c       $unwind$?internal_getptd_noexit@@YAPEAU__acrt_ptd@@XZ 000000014004d86c     libucrtd:per_thread_data.obj
 0002:0001186c       $unwind$?initialize_stdio_handles_nolock@@YAXXZ 000000014004d86c     libucrtd:ioinit.obj
 0002:0001186c       $unwind$__acrt_initialize_fmode 000000014004d86c     libucrtd:txtmode.obj
 0002:0001186c       $unwind$??$common_wincmdln@E@@YAPEAEXZ 000000014004d86c     libucrtd:argv_winmain.obj
 0002:00011874       $unwind$__scrt_uninitialize_crt 000000014004d874     LIBCMTD:utility.obj
 0002:00011874       $unwind$??$is_overflow_condition@K@__crt_strtox@@YA_NIK@Z 000000014004d874     libucrtd:atox.obj
 0002:00011874       $unwind$_control87         000000014004d874     libucrtd:ieee.obj
 0002:0001187c       $unwind$__scrt_initialize_onexit_tables 000000014004d87c     LIBCMTD:utility.obj
 0002:00011888       $unwind$?find_pe_section@@YAPEAU_IMAGE_SECTION_HEADER@@QEAE_K@Z 000000014004d888     LIBCMTD:utility.obj
 0002:00011888       $unwind$?_CallMemberFunction0@@YAXQEAX0@Z 000000014004d888     libvcruntimed:ehhelpers.obj
 0002:00011888       $unwind$?StateFromControlPc@__FrameHandler3@@SAHPEBU_s_FuncInfo@@PEAU_xDISPATCHER_CONTEXT@@@Z 000000014004d888     libvcruntimed:ehstate.obj
 0002:00011888       $unwind$??8type_info@@QEBA_NAEBV0@@Z 000000014004d888     libvcruntimed:frame.obj
 0002:00011888       $unwind$??9iterator@HandlerMap@__FrameHandler3@@QEBA_NAEBV012@@Z 000000014004d888     libvcruntimed:frame.obj
 0002:00011888       $unwind$?ExecutionInCatch@__FrameHandler3@@SA_NPEAU_xDISPATCHER_CONTEXT@@PEBU_s_FuncInfo@@@Z 000000014004d888     libvcruntimed:risctrnsctrl.obj
 0002:00011888       $unwind$_CreateFrameInfo   000000014004d888     libvcruntimed:risctrnsctrl.obj
 0002:00011888       $unwind$?try_get_first_available_module@@YAPEAUHINSTANCE__@@QEBW4module_id@?A0x61a31dd3@@0@Z 000000014004d888     libvcruntimed:winapi_downlevel.obj
 0002:00011888       $unwind$?is_space@__crt_strtox@@YA_N_WPEAU__crt_locale_pointers@@@Z 000000014004d888     libucrtd:atox.obj
 0002:00011888       $unwind$??0big_integer@__crt_strtox@@QEAA@AEBU01@@Z 000000014004d888     libucrtd:cfout.obj
 0002:00011888       $unwind$??4big_integer@__crt_strtox@@QEAAAEAU01@AEBU01@@Z 000000014004d888     libucrtd:cfout.obj
 0002:00011888       $unwind$??9__crt_strtox@@YA_NAEBUbig_integer@0@0@Z 000000014004d888     libucrtd:cfout.obj
 0002:00011888       $unwind$iswctype           000000014004d888     libucrtd:iswctype.obj
 0002:00011888       $unwind$_realloc_base      000000014004d888     libucrtd:realloc_base.obj
 0002:00011888       $unwind$?allocate@?$__crt_win32_buffer@DU__crt_win32_buffer_no_resizing@@@@QEAAH_K@Z 000000014004d888     libucrtd:getmodulefilenamea.obj
 0002:00011888       $unwind$??$uninitialize@V<lambda_af27fe6ede5d83bbdbd622796c194e9c>@@@?$dual_state_global@PEAU__crt_multibyte_data@@@__crt_state_management@@QEAAX$$QEAV<lambda_af27fe6ede5d83bbdbd622796c194e9c>@@@Z 000000014004d888     libucrtd:initialization.obj
 0002:00011888       $unwind$__acrt_execute_uninitializers 000000014004d888     libucrtd:shared_initialization.obj
 0002:00011888       $unwind$?try_get_first_available_module@@YAPEAUHINSTANCE__@@QEBW4module_id@?A0x391cf84c@@0@Z 000000014004d888     libucrtd:winapi_thunks.obj
 0002:00011888       $unwind$?free_crt_array_internal@@YAXQEAPEBX_K@Z 000000014004d888     libucrtd:inittime.obj
 0002:00011888       $unwind$_updatetlocinfoEx_nolock 000000014004d888     libucrtd:locale_refcounting.obj
 0002:00011888       $unwind$??$uninitialize@V<lambda_363eea9039da1e8169e2d060c7fe5cbc>@@@?$dual_state_global@PEAU__crt_locale_data@@@__crt_state_management@@QEAAX$$QEAV<lambda_363eea9039da1e8169e2d060c7fe5cbc>@@@Z 000000014004d888     libucrtd:wsetlocale.obj
 0002:00011888       $unwind$??$initialize_from_array@$$BY10BAA@E@?$dual_state_global@PEAE@__crt_state_management@@QEAAXAEAY10BAA@E@Z 000000014004d888     libucrtd:mbctype.obj
 0002:00011888       $unwind$??$initialize_from_array@$$BY10BAB@E@?$dual_state_global@PEAE@__crt_state_management@@QEAAXAEAY10BAB@E@Z 000000014004d888     libucrtd:mbctype.obj
 0002:00011888       $unwind$??$initialize_from_array@$$BY00Q6AXPEB_W00I_K@Z@?$dual_state_global@P6AXPEB_W00I_K@Z@__crt_state_management@@QEAAXAEAY00Q6AXPEB_W00I_K@Z@Z 000000014004d888     libucrtd:invalid_parameter.obj
 0002:00011888       $unwind$?allocate@?$__crt_win32_buffer@DU__crt_win32_buffer_internal_dynamic_resizing@@@@QEAAH_K@Z 000000014004d888     libucrtd:argv_wildcards.obj
 0002:00011888       $unwind$?allocate@?$__crt_win32_buffer@_WU__crt_win32_buffer_internal_dynamic_resizing@@@@QEAAH_K@Z 000000014004d888     libucrtd:argv_wildcards.obj
 0002:00011888       $unwind$?append@?$argument_list@D@?A0x5f5c8891@@QEAAHQEAD@Z 000000014004d888     libucrtd:argv_wildcards.obj
 0002:00011888       $unwind$?get_file_name@@YAPEADQEAV?$__crt_win32_buffer@DU__crt_win32_buffer_internal_dynamic_resizing@@@@QEA_W@Z 000000014004d888     libucrtd:argv_wildcards.obj
 0002:00011888       $unwind$?get_wide@@YAPEA_WQEAV?$__crt_win32_buffer@_WU__crt_win32_buffer_internal_dynamic_resizing@@@@QEAD@Z 000000014004d888     libucrtd:argv_wildcards.obj
 0002:00011888       $unwind$_initterm          000000014004d888     libucrtd:initterm.obj
 0002:00011888       $unwind$?common_flush_all_should_try_to_flush_stream@@YA_NV__crt_stdio_stream@@QEAH@Z 000000014004d888     libucrtd:fflush.obj
 0002:00011888       $unwind$??$extract_argument_from_va_list@U_CRT_DOUBLE@@U1@@?$standard_base@DV?$string_output_adapter@D@__crt_stdio_output@@@__crt_stdio_output@@IEAA_NAEAU_CRT_DOUBLE@@@Z 000000014004d888     libucrtd:output.obj
 0002:00011888       $unwind$??$extract_argument_from_va_list@U_CRT_DOUBLE@@U1@@?$standard_base@_WV?$string_output_adapter@_W@__crt_stdio_output@@@__crt_stdio_output@@IEAA_NAEAU_CRT_DOUBLE@@@Z 000000014004d888     libucrtd:output.obj
 0002:00011888       $unwind$?force_decimal_point@__crt_stdio_output@@YAXPEADQEAU__crt_locale_pointers@@@Z 000000014004d888     libucrtd:output.obj
 0002:00011888       $unwind$?type_case_c_tchar@?$output_processor@_WV?$string_output_adapter@_W@__crt_stdio_output@@V?$format_validation_base@_WV?$string_output_adapter@_W@__crt_stdio_output@@@2@@__crt_stdio_output@@AEAA_N_W@Z 000000014004d888     libucrtd:output.obj
 0002:00011888       $unwind$??$common_strnlen_c@$00G@@YA_KQEBG_K@Z 000000014004d888     libucrtd:strnlen.obj
 0002:00011888       $unwind$??$common_strnlen_c@$0A@E@@YA_KQEBE_K@Z 000000014004d888     libucrtd:strnlen.obj
 0002:00011888       $unwind$??$common_strnlen_c@$0A@G@@YA_KQEBG_K@Z 000000014004d888     libucrtd:strnlen.obj
 0002:00011890       $unwind$__get_entropy      000000014004d890     LIBCMTD:gs_support.obj
 0002:00011898       $unwind$__scrt_is_user_matherr_present 000000014004d898     LIBCMTD:matherr_detection.obj
 0002:00011898       $unwind$__scrt_is_ucrt_dll_in_use 000000014004d898     LIBCMTD:ucrt_detection.obj
 0002:00011898       $unwind$__acrt_locale_changed 000000014004d898     libucrtd:debug_heap.obj
 0002:00011898       $unwind$_get_printf_count_output 000000014004d898     libucrtd:printf_count_output.obj
 0002:00011898       $unwind$?get_zero_pack@?$__crt_simd_pack_traits@$0A@@@SA?AT__m128i@@XZ 000000014004d898     libucrtd:strnlen.obj
 0002:000118a0       $unwind$__scrt_get_show_window_mode 000000014004d8a0     LIBCMTD:utility_desktop.obj
 0002:000118ac       $unwind$__scrt_fastfail    000000014004d8ac     LIBCMTD:utility_desktop.obj
 0002:000118b8       $unwind$_RTC_Initialize    000000014004d8b8     LIBCMTD:initsect.obj
 0002:000118b8       $unwind$_RTC_Terminate     000000014004d8b8     LIBCMTD:initsect.obj
 0002:000118b8       $unwind$??$common_initialize_environment_nolock@D@@YAHXZ 000000014004d8b8     libucrtd:environment_initialization.obj
 0002:000118c4       $unwind$__isa_available_init 000000014004d8c4     LIBCMTD:cpu_disp.obj
 0002:000118d8       $xdatasym                  000000014004d8d8     LIBCMTD:guard_dispatch.obj
 0002:000118e0       $xdatasym                  000000014004d8e0     LIBCMTD:guard_xfg_dispatch.obj
 0002:000118e4       $unwind$??$__InternalCxxFrameHandler@V__FrameHandler3@@@@YA?AW4_EXCEPTION_DISPOSITION@@PEAUEHExceptionRecord@@PEA_KPEAU_CONTEXT@@PEAU_xDISPATCHER_CONTEXT@@PEBU_s_FuncInfo@@H1E@Z 000000014004d8e4     libvcruntimed:frame.obj
 0002:000118e4       $unwind$__C_specific_handler 000000014004d8e4     libvcruntimed:riscchandler.obj
 0002:000118e4       $unwind$??$parse_integer@KV?$c_string_character_source@D@__crt_strtox@@@__crt_strtox@@YAKQEAU__crt_locale_pointers@@V?$c_string_character_source@D@0@H_N@Z 000000014004d8e4     libucrtd:atox.obj
 0002:000118e4       $unwind$??$parse_integer@KV?$c_string_character_source@_W@__crt_strtox@@@__crt_strtox@@YAKQEAU__crt_locale_pointers@@V?$c_string_character_source@_W@0@H_N@Z 000000014004d8e4     libucrtd:atox.obj
 0002:000118e4       $unwind$?fp_format_e@@YAHQEBNQEAD_K12H_NIQEAU__crt_locale_pointers@@W4__acrt_rounding_mode@@@Z 000000014004d8e4     libucrtd:cvt.obj
 0002:000118e4       $unwind$_wcstombs_s_l      000000014004d8e4     libucrtd:wcstombs.obj
 0002:000118ec       $unwind$??3@YAXPEAX_K@Z    000000014004d8ec     LIBCMTD:delete_scalar_size.obj
 0002:000118ec       $unwind$_FindPESection     000000014004d8ec     LIBCMTD:pesect.obj
 0002:000118ec       $unwind$??0bad_exception@std@@QEAA@AEBV01@@Z 000000014004d8ec     libvcruntimed:frame.obj
 0002:000118ec       $unwind$?begin@HandlerMap@__FrameHandler3@@QEAA?AViterator@12@XZ 000000014004d8ec     libvcruntimed:frame.obj
 0002:000118ec       $unwind$?end@HandlerMap@__FrameHandler3@@QEAA?AViterator@12@XZ 000000014004d8ec     libvcruntimed:frame.obj
 0002:000118ec       $unwind$??$?RU__vcrt_ptd@@@__crt_internal_free_policy@@QEBAXQEBU__vcrt_ptd@@@Z 000000014004d8ec     libvcruntimed:per_thread_data.obj
 0002:000118ec       $unwind$??$?RD@__crt_public_free_policy@@QEBAXQEBD@Z 000000014004d8ec     libvcruntimed:std_exception.obj
 0002:000118ec       $unwind$??$?RD@__crt_internal_free_policy@@QEBAXQEBD@Z 000000014004d8ec     libvcruntimed:std_type_info.obj
 0002:000118ec       $unwind$__std_type_info_compare 000000014004d8ec     libvcruntimed:std_type_info.obj
 0002:000118ec       $unwind$??R<lambda_af27fe6ede5d83bbdbd622796c194e9c>@@QEBAXAEAPEAU__crt_multibyte_data@@@Z 000000014004d8ec     libucrtd:initialization.obj
 0002:000118ec       $unwind$??$?RU__acrt_ptd@@@__crt_internal_free_policy@@QEBAXQEBU__acrt_ptd@@@Z 000000014004d8ec     libucrtd:per_thread_data.obj
 0002:000118ec       $unwind$?replace_current_thread_locale_nolock@@YAXQEAU__acrt_ptd@@QEAU__crt_locale_data@@@Z 000000014004d8ec     libucrtd:per_thread_data.obj
 0002:000118ec       $unwind$__acrt_update_locale_info 000000014004d8ec     libucrtd:locale_update.obj
 0002:000118ec       $unwind$__acrt_update_multibyte_info 000000014004d8ec     libucrtd:locale_update.obj
 0002:000118ec       $unwind$??$?RU__crt_multibyte_data@@@__crt_internal_free_policy@@QEBAXQEBU__crt_multibyte_data@@@Z 000000014004d8ec     libucrtd:wsetlocale.obj
 0002:000118ec       $unwind$??R<lambda_363eea9039da1e8169e2d060c7fe5cbc>@@QEBAXAEAPEAU__crt_locale_data@@@Z 000000014004d8ec     libucrtd:wsetlocale.obj
 0002:000118ec       $unwind$??$?RU__crt_lowio_handle_data@@@__crt_internal_free_policy@@QEBAXQEBU__crt_lowio_handle_data@@@Z 000000014004d8ec     libucrtd:osfinfo.obj
 0002:000118ec       $unwind$??$?RE@__crt_internal_free_policy@@QEBAXQEBE@Z 000000014004d8ec     libucrtd:argv_parsing.obj
 0002:000118ec       $unwind$??$?RPEAD@__crt_internal_free_policy@@QEBAXQEBQEAD@Z 000000014004d8ec     libucrtd:argv_parsing.obj
 0002:000118ec       $unwind$?expand_argv_wildcards@@YAHQEAPEADQEAPEAPEAD@Z 000000014004d8ec     libucrtd:argv_parsing.obj
 0002:000118ec       $unwind$?<lambda_invoker_cdecl>@<lambda_a1ce4c8ae42411fd470c77163914f50e>@@CAHPEBX0@Z 000000014004d8ec     libucrtd:argv_wildcards.obj
 0002:000118ec       $unwind$??$tcspbrk@AEAPEADAEAY02$$CBD@?$__crt_char_traits@D@@SAPEADAEAPEADAEAY02$$CBD@Z 000000014004d8ec     libucrtd:argv_wildcards.obj
 0002:000118ec       $unwind$?deallocate@__crt_win32_buffer_internal_dynamic_resizing@@SAXQEAXAEBV__crt_win32_buffer_empty_debug_info@@@Z 000000014004d8ec     libucrtd:argv_wildcards.obj
 0002:000118ec       $unwind$?previous_character@@YAPEADQEAD0@Z 000000014004d8ec     libucrtd:argv_wildcards.obj
 0002:000118ec       $unwind$?strpbrk@@YAPEADQEADQEBD@Z 000000014004d8ec     libucrtd:argv_wildcards.obj
 0002:000118ec       $unwind$__acrt_expand_narrow_argv_wildcards 000000014004d8ec     libucrtd:argv_wildcards.obj
 0002:000118ec       $unwind$??$__crt_get_proc_address@P6AXI@Z@@YAP6AXI@ZQEAUHINSTANCE__@@QEBD@Z 000000014004d8ec     libucrtd:exit.obj
 0002:000118ec       $unwind$??$?RP6AXXZ@__crt_internal_free_policy@@QEBAXQEBQ6AXXZ@Z 000000014004d8ec     libucrtd:onexit.obj
 0002:000118ec       $unwind$??$?RPEAU__crt_stdio_stream_data@@@__crt_internal_free_policy@@QEBAXQEBQEAU__crt_stdio_stream_data@@@Z 000000014004d8ec     libucrtd:_file.obj
 0002:000118ec       $unwind$??$extract_argument_from_va_list@C_J@?$standard_base@DV?$string_output_adapter@D@__crt_stdio_output@@@__crt_stdio_output@@IEAA_NAEA_J@Z 000000014004d8ec     libucrtd:output.obj
 0002:000118ec       $unwind$??$extract_argument_from_va_list@C_J@?$standard_base@_WV?$string_output_adapter@_W@__crt_stdio_output@@@__crt_stdio_output@@IEAA_NAEA_J@Z 000000014004d8ec     libucrtd:output.obj
 0002:000118ec       $unwind$??$extract_argument_from_va_list@E_J@?$standard_base@DV?$string_output_adapter@D@__crt_stdio_output@@@__crt_stdio_output@@IEAA_NAEA_J@Z 000000014004d8ec     libucrtd:output.obj
 0002:000118ec       $unwind$??$extract_argument_from_va_list@E_J@?$standard_base@_WV?$string_output_adapter@_W@__crt_stdio_output@@@__crt_stdio_output@@IEAA_NAEA_J@Z 000000014004d8ec     libucrtd:output.obj
 0002:000118ec       $unwind$??$extract_argument_from_va_list@F_J@?$standard_base@DV?$string_output_adapter@D@__crt_stdio_output@@@__crt_stdio_output@@IEAA_NAEA_J@Z 000000014004d8ec     libucrtd:output.obj
 0002:000118ec       $unwind$??$extract_argument_from_va_list@F_J@?$standard_base@_WV?$string_output_adapter@_W@__crt_stdio_output@@@__crt_stdio_output@@IEAA_NAEA_J@Z 000000014004d8ec     libucrtd:output.obj
 0002:000118ec       $unwind$??$extract_argument_from_va_list@GD@?$standard_base@DV?$string_output_adapter@D@__crt_stdio_output@@@__crt_stdio_output@@IEAA_NAEAD@Z 000000014004d8ec     libucrtd:output.obj
 0002:000118ec       $unwind$??$extract_argument_from_va_list@G_J@?$standard_base@DV?$string_output_adapter@D@__crt_stdio_output@@@__crt_stdio_output@@IEAA_NAEA_J@Z 000000014004d8ec     libucrtd:output.obj
 0002:000118ec       $unwind$??$extract_argument_from_va_list@G_J@?$standard_base@_WV?$string_output_adapter@_W@__crt_stdio_output@@@__crt_stdio_output@@IEAA_NAEA_J@Z 000000014004d8ec     libucrtd:output.obj
 0002:000118ec       $unwind$??$extract_argument_from_va_list@H_J@?$standard_base@DV?$string_output_adapter@D@__crt_stdio_output@@@__crt_stdio_output@@IEAA_NAEA_J@Z 000000014004d8ec     libucrtd:output.obj
 0002:000118ec       $unwind$??$extract_argument_from_va_list@H_J@?$standard_base@_WV?$string_output_adapter@_W@__crt_stdio_output@@@__crt_stdio_output@@IEAA_NAEA_J@Z 000000014004d8ec     libucrtd:output.obj
 0002:000118ec       $unwind$??$extract_argument_from_va_list@I_J@?$standard_base@DV?$string_output_adapter@D@__crt_stdio_output@@@__crt_stdio_output@@IEAA_NAEA_J@Z 000000014004d8ec     libucrtd:output.obj
 0002:000118ec       $unwind$??$extract_argument_from_va_list@I_J@?$standard_base@_WV?$string_output_adapter@_W@__crt_stdio_output@@@__crt_stdio_output@@IEAA_NAEA_J@Z 000000014004d8ec     libucrtd:output.obj
 0002:000118ec       $unwind$??$extract_argument_from_va_list@PEADPEAD@?$standard_base@DV?$string_output_adapter@D@__crt_stdio_output@@@__crt_stdio_output@@IEAA_NAEAPEAD@Z 000000014004d8ec     libucrtd:output.obj
 0002:000118ec       $unwind$??$extract_argument_from_va_list@PEADPEAD@?$standard_base@_WV?$string_output_adapter@_W@__crt_stdio_output@@@__crt_stdio_output@@IEAA_NAEAPEAD@Z 000000014004d8ec     libucrtd:output.obj
 0002:000118ec       $unwind$??$extract_argument_from_va_list@PEAUansi_string@?1??type_case_Z@?$output_processor@DV?$string_output_adapter@D@__crt_stdio_output@@V?$format_validation_base@DV?$string_output_adapter@D@__crt_stdio_output@@@2@@__crt_stdio_output@@AEAA_NXZ@PEAU1?1??234@AEAA_NXZ@@?$standard_base@DV?$string_output_adapter@D@__crt_stdio_output@@@__crt_stdio_output@@IEAA_NAEAPEAUansi_string@?1??type_case_Z@?$output_processor@DV?$string_output_adapter@D@__crt_stdio_output@@V?$format_validation_base@DV?$string_output_adapter@D@__crt_stdio_output@@@2@@1@AEAA_NXZ@@Z 000000014004d8ec     libucrtd:output.obj
 0002:000118ec       $unwind$??$extract_argument_from_va_list@PEAUansi_string@?1??type_case_Z@?$output_processor@_WV?$string_output_adapter@_W@__crt_stdio_output@@V?$format_validation_base@_WV?$string_output_adapter@_W@__crt_stdio_output@@@2@@__crt_stdio_output@@AEAA_NXZ@PEAU1?1??234@AEAA_NXZ@@?$standard_base@_WV?$string_output_adapter@_W@__crt_stdio_output@@@__crt_stdio_output@@IEAA_NAEAPEAUansi_string@?1??type_case_Z@?$output_processor@_WV?$string_output_adapter@_W@__crt_stdio_output@@V?$format_validation_base@_WV?$string_output_adapter@_W@__crt_stdio_output@@@2@@1@AEAA_NXZ@@Z 000000014004d8ec     libucrtd:output.obj
 0002:000118ec       $unwind$??$extract_argument_from_va_list@PEAXPEAX@?$standard_base@DV?$string_output_adapter@D@__crt_stdio_output@@@__crt_stdio_output@@IEAA_NAEAPEAX@Z 000000014004d8ec     libucrtd:output.obj
 0002:000118ec       $unwind$??$extract_argument_from_va_list@PEAXPEAX@?$standard_base@_WV?$string_output_adapter@_W@__crt_stdio_output@@@__crt_stdio_output@@IEAA_NAEAPEAX@Z 000000014004d8ec     libucrtd:output.obj
 0002:000118ec       $unwind$??$extract_argument_from_va_list@_J_J@?$standard_base@DV?$string_output_adapter@D@__crt_stdio_output@@@__crt_stdio_output@@IEAA_NAEA_J@Z 000000014004d8ec     libucrtd:output.obj
 0002:000118ec       $unwind$??$extract_argument_from_va_list@_J_J@?$standard_base@_WV?$string_output_adapter@_W@__crt_stdio_output@@@__crt_stdio_output@@IEAA_NAEA_J@Z 000000014004d8ec     libucrtd:output.obj
 0002:000118ec       $unwind$??$extract_argument_from_va_list@_K_J@?$standard_base@DV?$string_output_adapter@D@__crt_stdio_output@@@__crt_stdio_output@@IEAA_NAEA_J@Z 000000014004d8ec     libucrtd:output.obj
 0002:000118ec       $unwind$??$extract_argument_from_va_list@_K_J@?$standard_base@_WV?$string_output_adapter@_W@__crt_stdio_output@@@__crt_stdio_output@@IEAA_NAEA_J@Z 000000014004d8ec     libucrtd:output.obj
 0002:000118ec       $unwind$??$extract_argument_from_va_list@_W_W@?$standard_base@DV?$string_output_adapter@D@__crt_stdio_output@@@__crt_stdio_output@@IEAA_NAEA_W@Z 000000014004d8ec     libucrtd:output.obj
 0002:000118ec       $unwind$??$extract_argument_from_va_list@_W_W@?$standard_base@_WV?$string_output_adapter@_W@__crt_stdio_output@@@__crt_stdio_output@@IEAA_NAEA_W@Z 000000014004d8ec     libucrtd:output.obj
 0002:000118ec       $unwind$??4?$__crt_unique_heap_ptr@DU__crt_internal_free_policy@@@@QEAAAEAV0@$$QEAV0@@Z 000000014004d8ec     libucrtd:output.obj
 0002:000118ec       $unwind$?crop_zeroes@__crt_stdio_output@@YAXPEADQEAU__crt_locale_pointers@@@Z 000000014004d8ec     libucrtd:output.obj
 0002:000118ec       $unwind$??$common_strnlen@$00G@@YA_KQEBG_K@Z 000000014004d8ec     libucrtd:strnlen.obj
 0002:000118ec       $unwind$??$common_strnlen@$0A@E@@YA_KQEBE_K@Z 000000014004d8ec     libucrtd:strnlen.obj
 0002:000118ec       $unwind$??$common_strnlen@$0A@G@@YA_KQEBG_K@Z 000000014004d8ec     libucrtd:strnlen.obj
 0002:000118ec       $unwind$strnlen            000000014004d8ec     libucrtd:strnlen.obj
 0002:000118ec       $unwind$wcsnlen            000000014004d8ec     libucrtd:strnlen.obj
 0002:000118f4       $unwind$__DestructExceptionObject 000000014004d8f4     libvcruntimed:ehhelpers.obj
 0002:00011914       $unwind$?_FilterSetCurrentException@@YAKPEAU_EXCEPTION_POINTERS@@E@Z 000000014004d914     libvcruntimed:ehhelpers.obj
 0002:00011914       $unwind$?CatchTryBlock@__FrameHandler3@@SAPEBU_s_TryBlockMapEntry@@PEBU_s_FuncInfo@@H@Z 000000014004d914     libvcruntimed:risctrnsctrl.obj
 0002:00011914       $unwind$?is_space@__crt_strtox@@YA_NDQEAU__crt_locale_pointers@@@Z 000000014004d914     libucrtd:atox.obj
 0002:00011914       $unwind$__acrt_FlsSetValue 000000014004d914     libucrtd:winapi_thunks.obj
 0002:00011914       $unwind$__acrt_LocaleNameToLCID 000000014004d914     libucrtd:winapi_thunks.obj
 0002:00011914       $unwind$?has_any_of@__crt_stdio_stream@@QEBA_NJ@Z 000000014004d914     libucrtd:_sftbuf.obj
 0002:00011914       $unwind$?has_all_of@__crt_stdio_stream@@QEBA_NJ@Z 000000014004d914     libucrtd:fflush.obj
 0002:00011914       $unwind$_exception_enabled 000000014004d914     libucrtd:libm_error.obj
 0002:00011920       $xdatasym                  000000014004d920     libvcruntimed:notify.obj
 0002:0001192c       $unwind$__vcrt_getptd_noexit 000000014004d92c     libvcruntimed:per_thread_data.obj
 0002:00011934       $unwind$__GSHandlerCheck_EH 000000014004d934     LIBCMTD:gshandlereh.obj
 0002:00011934       $unwind$__GSHandlerCheck_SEH 000000014004d934     LIBCMTD:gshandlerseh.obj
 0002:00011934       $unwind$_vsprintf_s_l      000000014004d934     libvcruntimed:undname.obj
 0002:00011934       $unwind$sprintf_s          000000014004d934     libvcruntimed:undname.obj
 0002:00011934       $unwind$memcpy_s           000000014004d934     libucrtd:cfout.obj
 0002:00011934       $unwind$??$parse_integer_from_string@JDPEAPEAD@__crt_strtox@@YAJQEBDQEAPEADHQEAU__crt_locale_pointers@@@Z 000000014004d934     libucrtd:strtox.obj
 0002:00011934       $unwind$??$parse_integer_from_string@J_WPEAPEA_W@__crt_strtox@@YAJQEB_WQEAPEA_WHQEAU__crt_locale_pointers@@@Z 000000014004d934     libucrtd:strtox.obj
 0002:00011934       $unwind$__acrt_MessageBoxW 000000014004d934     libucrtd:winapi_thunks.obj
 0002:00011934       $unwind$memcpy_s           000000014004d934     libucrtd:mbctype.obj
 0002:00011934       $unwind$_snwprintf_s       000000014004d934     libucrtd:dbgrpt.obj
 0002:00011934       $unwind$_snprintf_s        000000014004d934     libucrtd:dbgrptt.obj
 0002:00011934       $unwind$??$parse_command_line@D@@YAXPEADPEAPEAD0PEA_K2@Z 000000014004d934     libucrtd:argv_parsing.obj
 0002:00011934       $unwind$?write_string@?$string_output_adapter@D@__crt_stdio_output@@QEBAXQEBDHQEAHAEAV__crt_deferred_errno_cache@@@Z 000000014004d934     libucrtd:output.obj
 0002:00011934       $unwind$?write_string@?$string_output_adapter@_W@__crt_stdio_output@@QEBAXQEB_WHQEAHAEAV__crt_deferred_errno_cache@@@Z 000000014004d934     libucrtd:output.obj
 0002:00011934       $unwind$__stdio_common_vsnprintf_s 000000014004d934     libucrtd:output.obj
 0002:00011934       $unwind$__stdio_common_vsnwprintf_s 000000014004d934     libucrtd:output.obj
 0002:00011934       $unwind$_raise_exc         000000014004d934     libucrtd:fpexcept.obj
 0002:0001193c       $unwind$__vcrt_FlsFree     000000014004d93c     libvcruntimed:winapi_downlevel.obj
 0002:0001193c       $unwind$__vcrt_FlsGetValue 000000014004d93c     libvcruntimed:winapi_downlevel.obj
 0002:0001193c       $unwind$_set_new_mode      000000014004d93c     libucrtd:new_mode.obj
 0002:0001193c       $unwind$??$get_cached_win_policy@Udeveloper_information_policy_properties@?1??__acrt_get_developer_information_policy@@YA?AW4developer_information_policy@@XZ@@@YA?AW4developer_information_policy@@W4AppPolicyShowDeveloperDiagnostic@@@Z 000000014004d93c     libucrtd:win_policies.obj
 0002:0001193c       $unwind$??$get_cached_win_policy@Uwindowing_model_policy_properties@?1??__acrt_get_windowing_model_policy@@YA?AW4windowing_model_policy@@XZ@@@YA?AW4windowing_model_policy@@W4AppPolicyWindowingModel@@@Z 000000014004d93c     libucrtd:win_policies.obj
 0002:0001193c       $unwind$__acrt_uninitialize_winapi_thunks 000000014004d93c     libucrtd:winapi_thunks.obj
 0002:0001193c       $unwind$_isatty            000000014004d93c     libucrtd:isatty.obj
 0002:0001193c       $unwind$_get_osfhandle     000000014004d93c     libucrtd:osfinfo.obj
 0002:0001193c       $unwind$_set_fmode         000000014004d93c     libucrtd:setmode.obj
 0002:0001193c       $unwind$?write_requires_double_translation_nolock@@YA_NH@Z 000000014004d93c     libucrtd:write.obj
 0002:0001193c       $unwind$_set_error_mode    000000014004d93c     libucrtd:set_error_mode.obj
 0002:0001193c       $unwind$?try_cor_exit_process@@YAXI@Z 000000014004d93c     libucrtd:exit.obj
 0002:00011944       $unwind$__vcrt_FlsSetValue 000000014004d944     libvcruntimed:winapi_downlevel.obj
 0002:00011944       $unwind$?unget@?$c_string_character_source@D@__crt_strtox@@QEAAXD@Z 000000014004d944     libucrtd:atox.obj
 0002:00011944       $unwind$??$__acrt_lock_and_call@V<lambda_8d0ee55de4b1038c4002e0adecdf1839>@@@@YAXW4__acrt_lock_id@@$$QEAV<lambda_8d0ee55de4b1038c4002e0adecdf1839>@@@Z 000000014004d944     libucrtd:per_thread_data.obj
 0002:00011944       $unwind$??$__acrt_lock_and_call@V<lambda_8f455de75cd7d7f24b4096f044d8b9e6>@@@@YAXW4__acrt_lock_id@@$$QEAV<lambda_8f455de75cd7d7f24b4096f044d8b9e6>@@@Z 000000014004d944     libucrtd:per_thread_data.obj
 0002:00011944       $unwind$??$__acrt_lock_and_call@V<lambda_92619d2358a28f41a33ba319515a20b9>@@@@YAXW4__acrt_lock_id@@$$QEAV<lambda_92619d2358a28f41a33ba319515a20b9>@@@Z 000000014004d944     libucrtd:per_thread_data.obj
 0002:00011944       $unwind$??$__acrt_lock_and_call@V<lambda_e157831efee4ea0afb0a2ace5dd5fd0d>@@@@YAXW4__acrt_lock_id@@$$QEAV<lambda_e157831efee4ea0afb0a2ace5dd5fd0d>@@@Z 000000014004d944     libucrtd:per_thread_data.obj
 0002:00011944       $unwind$??$__acrt_lock_and_call@V<lambda_3e16ef9562a7dcce91392c22ab16ea36>@@@@YAXW4__acrt_lock_id@@$$QEAV<lambda_3e16ef9562a7dcce91392c22ab16ea36>@@@Z 000000014004d944     libucrtd:wsetlocale.obj
 0002:00011944       $unwind$??$__acrt_lowio_lock_fh_and_call@V<lambda_4e7105787b7b0e0227fbf2b2d883fa65>@@@@YAHH$$QEAV<lambda_4e7105787b7b0e0227fbf2b2d883fa65>@@@Z 000000014004d944     libucrtd:close.obj
 0002:00011944       $unwind$??$__acrt_lowio_lock_fh_and_call@V<lambda_5533cddd4bda0037814beee657757329>@@@@YAHH$$QEAV<lambda_5533cddd4bda0037814beee657757329>@@@Z 000000014004d944     libucrtd:commit.obj
 0002:00011944       $unwind$??$__acrt_lock_and_call@V<lambda_bd5a608237428601b7e45fbdc72b1ae8>@@@@YAXW4__acrt_lock_id@@$$QEAV<lambda_bd5a608237428601b7e45fbdc72b1ae8>@@@Z 000000014004d944     libucrtd:mbctype.obj
 0002:00011944       $unwind$??$__acrt_lock_and_call@V<lambda_44731a7d0e6d81c3e6aa82d741081786>@@@@YAP6AXH@ZW4__acrt_lock_id@@$$QEAV<lambda_44731a7d0e6d81c3e6aa82d741081786>@@@Z 000000014004d944     libucrtd:signal.obj
 0002:00011944       $unwind$??$__acrt_lock_and_call@V<lambda_6e4b09c48022b2350581041d5f6b0c4c>@@@@YAXW4__acrt_lock_id@@$$QEAV<lambda_6e4b09c48022b2350581041d5f6b0c4c>@@@Z 000000014004d944     libucrtd:exit.obj
 0002:00011944       $unwind$??$__acrt_lock_and_call@V<lambda_3b83eb014488ad801d84acef5aaf14d3>@@@@YAHW4__acrt_lock_id@@$$QEAV<lambda_3b83eb014488ad801d84acef5aaf14d3>@@@Z 000000014004d944     libucrtd:onexit.obj
 0002:00011944       $unwind$??$__acrt_lock_and_call@V<lambda_d121dba8a4adeaf3a9819e48611155df>@@@@YAHW4__acrt_lock_id@@$$QEAV<lambda_d121dba8a4adeaf3a9819e48611155df>@@@Z 000000014004d944     libucrtd:onexit.obj
 0002:00011944       $unwind$??$__acrt_lock_and_call@V<lambda_ab61a845afdef5b7c387490eaf3616ee>@@@@YAXW4__acrt_lock_id@@$$QEAV<lambda_ab61a845afdef5b7c387490eaf3616ee>@@@Z 000000014004d944     libucrtd:fflush.obj
 0002:00011944       $unwind$?state_case_normal_tchar@?$output_processor@DV?$string_output_adapter@D@__crt_stdio_output@@V?$format_validation_base@DV?$string_output_adapter@D@__crt_stdio_output@@@2@@__crt_stdio_output@@AEAA_ND@Z 000000014004d944     libucrtd:output.obj
 0002:00011944       $unwind$?type_case_c_tchar@?$output_processor@DV?$string_output_adapter@D@__crt_stdio_output@@V?$format_validation_base@DV?$string_output_adapter@D@__crt_stdio_output@@@2@@__crt_stdio_output@@AEAA_ND@Z 000000014004d944     libucrtd:output.obj
 0002:0001194c       $unwind$__vcrt_InitializeCriticalSectionEx 000000014004d94c     libvcruntimed:winapi_downlevel.obj
 0002:0001194c       $unwind$??$common_lseek_nolock@_J@@YA_JH_JH@Z 000000014004d94c     libucrtd:lseek.obj
 0002:0001194c       $unwind$?find_next_state@?$output_processor@DV?$string_output_adapter@D@__crt_stdio_output@@V?$format_validation_base@DV?$string_output_adapter@D@__crt_stdio_output@@@2@@__crt_stdio_output@@AEBA?AW4state@2@DW432@@Z 000000014004d94c     libucrtd:output.obj
 0002:0001194c       $unwind$_controlfp_s       000000014004d94c     libucrtd:contrlfp.obj
 0002:00011954       $unwind$?try_get_module@@YAPEAUHINSTANCE__@@W4module_id@?A0x61a31dd3@@@Z 000000014004d954     libvcruntimed:winapi_downlevel.obj
